0x00401000: E8 8B D4 36 00       call 0x76e490
0x00401005: E9 91 AA 00 00       jmp 0x40ba9b
0x0040100A: CC                   int3
0x0040100B: CC                   int3
0x0040100C: CC                   int3
0x0040100D: CC                   int3
0x0040100E: CC                   int3
0x0040100F: CC                   int3
0x00401010: 55                   push ebp
0x00401011: 8B EC                mov ebp, esp
0x00401013: 8B 45 08             mov eax, dword ptr [ebp + 8]
0x00401016: 6A 00                push 0
0x00401018: 6A FF                push -1
0x0040101A: 68 14 0E 9E 00       push 0x9e0e14
0x0040101F: 50                   push eax
0x00401020: E8 1B D5 36 00       call 0x76e540
0x00401025: 5D                   pop ebp
0x00401026: C3                   ret
0x00401027: CC                   int3
0x00401028: CC                   int3
0x00401029: CC                   int3
0x0040102A: CC                   int3
0x0040102B: CC                   int3
0x0040102C: CC                   int3
0x0040102D: CC                   int3
0x0040102E: CC                   int3
0x0040102F: CC                   int3
0x00401030: 55                   push ebp
0x00401031: 8B EC                mov ebp, esp
0x00401033: 8B 45 08             mov eax, dword ptr [ebp + 8]
0x00401036: 85 C0                test eax, eax
0x00401038: 74 0F                je 0x401049
0x0040103A: 6A 00                push 0
0x0040103C: 6A FF                push -1
0x0040103E: 68 18 0E 9E 00       push 0x9e0e18
0x00401043: 50                   push eax
0x00401044: E8 57 D5 36 00       call 0x76e5a0
0x00401049: 5D                   pop ebp
0x0040104A: C3                   ret
0x0040104B: CC                   int3
0x0040104C: CC                   int3
0x0040104D: CC                   int3
0x0040104E: CC                   int3
0x0040104F: CC                   int3
0x00401050: 8B C1                mov eax, ecx
0x00401052: 33 C9                xor ecx, ecx
0x00401054: C7 00 24 0E 9E 00    mov dword ptr [eax], 0x9e0e24
0x0040105A: 89 48 04             mov dword ptr [eax + 4], ecx
0x0040105D: 89 48 08             mov dword ptr [eax + 8], ecx
0x00401060: 89 48 0C             mov dword ptr [eax + 0xc], ecx
0x00401063: 89 48 10             mov dword ptr [eax + 0x10], ecx
0x00401066: C7 40 14 FF FF FF FF mov dword ptr [eax + 0x14], 0xffffffff
0x0040106D: C3                   ret
0x0040106E: CC                   int3
0x0040106F: CC                   int3
0x00401070: 55                   push ebp
0x00401071: 8B EC                mov ebp, esp
0x00401073: 8B 41 08             mov eax, dword ptr [ecx + 8]
0x00401076: 8B 55 08             mov edx, dword ptr [ebp + 8]
0x00401079: 3B D0                cmp edx, eax
0x0040107B: 53                   push ebx
0x0040107C: 56                   push esi
0x0040107D: 8D 71 08             lea esi, [ecx + 8]
0x00401080: 57                   push edi
0x00401081: 8B 7D 0C             mov edi, dword ptr [ebp + 0xc]
0x00401084: 72 0C                jb 0x401092
0x00401086: 8B 59 0C             mov ebx, dword ptr [ecx + 0xc]
0x00401089: 03 D8                add ebx, eax
0x0040108B: 8D 04 3A             lea eax, [edx + edi]
0x0040108E: 3B C3                cmp eax, ebx
0x00401090: 76 25                jbe 0x4010b7
0x00401092: 8B 5D 14             mov ebx, dword ptr [ebp + 0x14]
0x00401095: 8B 01                mov eax, dword ptr [ecx]
0x00401097: 53                   push ebx
0x00401098: 8B 5D 10             mov ebx, dword ptr [ebp + 0x10]
0x0040109B: 53                   push ebx
0x0040109C: 8D 59 0C             lea ebx, [ecx + 0xc]
0x0040109F: 53                   push ebx
0x004010A0: 56                   push esi
0x004010A1: 8D 71 04             lea esi, [ecx + 4]
0x004010A4: 56                   push esi
0x004010A5: 57                   push edi
0x004010A6: 52                   push edx
0x004010A7: 8B 50 0C             mov edx, dword ptr [eax + 0xc]
0x004010AA: FF D2                call edx
0x004010AC: 85 C0                test eax, eax
0x004010AE: 75 07                jne 0x4010b7
0x004010B0: 5F                   pop edi
0x004010B1: 5E                   pop esi
0x004010B2: 5B                   pop ebx
0x004010B3: 5D                   pop ebp
0x004010B4: C2 10 00             ret 0x10
0x004010B7: 5F                   pop edi
0x004010B8: 5E                   pop esi
0x004010B9: B8 01 00 00 00       mov eax, 1
0x004010BE: 5B                   pop ebx
0x004010BF: 5D                   pop ebp
0x004010C0: C2 10 00             ret 0x10
0x004010C3: CC                   int3
0x004010C4: CC                   int3
0x004010C5: CC                   int3
0x004010C6: CC                   int3
0x004010C7: CC                   int3
0x004010C8: CC                   int3
0x004010C9: CC                   int3
0x004010CA: CC                   int3
0x004010CB: CC                   int3
0x004010CC: CC                   int3
0x004010CD: CC                   int3
0x004010CE: CC                   int3
0x004010CF: CC                   int3
0x004010D0: 8B 41 14             mov eax, dword ptr [ecx + 0x14]
0x004010D3: 33 D2                xor edx, edx
0x004010D5: 3B 41 10             cmp eax, dword ptr [ecx + 0x10]
0x004010D8: 0F 94 C2             sete dl
0x004010DB: 8B C2                mov eax, edx
0x004010DD: C3                   ret
0x004010DE: CC                   int3
0x004010DF: CC                   int3
0x004010E0: 56                   push esi
0x004010E1: 8B F1                mov esi, ecx
0x004010E3: 83 7E 0C FF          cmp dword ptr [esi + 0xc], -1
0x004010E7: 8D 46 0C             lea eax, [esi + 0xc]
0x004010EA: 75 0D                jne 0x4010f9
0x004010EC: C7 46 04 00 00 00 00 mov dword ptr [esi + 4], 0
0x004010F3: C7 00 00 00 00 00    mov dword ptr [eax], 0
0x004010F9: 83 7E 08 00          cmp dword ptr [esi + 8], 0
0x004010FD: 8D 4E 08             lea ecx, [esi + 8]
0x00401100: 76 17                jbe 0x401119
0x00401102: 8B 16                mov edx, dword ptr [esi]
0x00401104: 8B 52 0C             mov edx, dword ptr [edx + 0xc]
0x00401107: 6A 00                push 0
0x00401109: 6A 00                push 0
0x0040110B: 50                   push eax
0x0040110C: 51                   push ecx
0x0040110D: 8D 46 04             lea eax, [esi + 4]
0x00401110: 50                   push eax
0x00401111: 6A 00                push 0
0x00401113: 6A 00                push 0
0x00401115: 8B CE                mov ecx, esi
0x00401117: FF D2                call edx
0x00401119: C7 46 14 FF FF FF FF mov dword ptr [esi + 0x14], 0xffffffff
0x00401120: C7 46 10 00 00 00 00 mov dword ptr [esi + 0x10], 0
0x00401127: 5E                   pop esi
0x00401128: C3                   ret
0x00401129: CC                   int3
0x0040112A: CC                   int3
0x0040112B: CC                   int3
0x0040112C: CC                   int3
0x0040112D: CC                   int3
0x0040112E: CC                   int3
0x0040112F: CC                   int3
0x00401130: C7 41 14 00 00 00 00 mov dword ptr [ecx + 0x14], 0
0x00401137: C3                   ret
0x00401138: CC                   int3
0x00401139: CC                   int3
0x0040113A: CC                   int3
0x0040113B: CC                   int3
0x0040113C: CC                   int3
0x0040113D: CC                   int3
0x0040113E: CC                   int3
0x0040113F: CC                   int3
0x00401140: 55                   push ebp
0x00401141: 8B EC                mov ebp, esp
0x00401143: 51                   push ecx
0x00401144: 56                   push esi
0x00401145: 8D 45 FF             lea eax, [ebp - 1]
0x00401148: 50                   push eax
0x00401149: 8B F1                mov esi, ecx
0x0040114B: C6 45 FF 00          mov byte ptr [ebp - 1], 0
0x0040114F: E8 EC A1 07 00       call 0x47b340
0x00401154: 0F B6 4D FF          movzx ecx, byte ptr [ebp - 1]
0x00401158: 8B 55 08             mov edx, dword ptr [ebp + 8]
0x0040115B: 8B C6                mov eax, esi
0x0040115D: 89 0A                mov dword ptr [edx], ecx
0x0040115F: 5E                   pop esi
0x00401160: 8B E5                mov esp, ebp
0x00401162: 5D                   pop ebp
0x00401163: C2 04 00             ret 4
0x00401166: CC                   int3
0x00401167: CC                   int3
0x00401168: CC                   int3
0x00401169: CC                   int3
0x0040116A: CC                   int3
0x0040116B: CC                   int3
0x0040116C: CC                   int3
0x0040116D: CC                   int3
0x0040116E: CC                   int3
0x0040116F: CC                   int3
0x00401170: 55                   push ebp
0x00401171: 8B EC                mov ebp, esp
0x00401173: 51                   push ecx
0x00401174: 8D 45 FC             lea eax, [ebp - 4]
0x00401177: 50                   push eax
0x00401178: C7 45 FC 00 00 00 00 mov dword ptr [ebp - 4], 0
0x0040117F: E8 3C A2 07 00       call 0x47b3c0
0x00401184: 8B 45 FC             mov eax, dword ptr [ebp - 4]
0x00401187: 8B E5                mov esp, ebp
0x00401189: 5D                   pop ebp
0x0040118A: C3                   ret
0x0040118B: CC                   int3
0x0040118C: CC                   int3
0x0040118D: CC                   int3
0x0040118E: CC                   int3
0x0040118F: CC                   int3
0x00401190: 55                   push ebp
0x00401191: 8B EC                mov ebp, esp
0x00401193: 56                   push esi
0x00401194: 8B 75 08             mov esi, dword ptr [ebp + 8]
0x00401197: 57                   push edi
0x00401198: 8B 7D 0C             mov edi, dword ptr [ebp + 0xc]
0x0040119B: 57                   push edi
0x0040119C: 8B CE                mov ecx, esi
0x0040119E: E8 9D A2 07 00       call 0x47b440
0x004011A3: 8D 47 04             lea eax, [edi + 4]
0x004011A6: 50                   push eax
0x004011A7: 8B CE                mov ecx, esi
0x004011A9: E8 92 A2 07 00       call 0x47b440
0x004011AE: 83 C7 08             add edi, 8
0x004011B1: 57                   push edi
0x004011B2: 8B CE                mov ecx, esi
0x004011B4: E8 87 A2 07 00       call 0x47b440
0x004011B9: 5F                   pop edi
0x004011BA: 8B C6                mov eax, esi
0x004011BC: 5E                   pop esi
0x004011BD: 5D                   pop ebp
0x004011BE: C3                   ret
0x004011BF: CC                   int3
0x004011C0: E9 CB 25 0D 00       jmp 0x4d3790
0x004011C5: CC                   int3
0x004011C6: CC                   int3
0x004011C7: CC                   int3
0x004011C8: CC                   int3
0x004011C9: CC                   int3
0x004011CA: CC                   int3
0x004011CB: CC                   int3
0x004011CC: CC                   int3
0x004011CD: CC                   int3
0x004011CE: CC                   int3
0x004011CF: CC                   int3
0x004011D0: 55                   push ebp
0x004011D1: 8B EC                mov ebp, esp
0x004011D3: 57                   push edi
0x004011D4: 8B 7D 10             mov edi, dword ptr [ebp + 0x10]
0x004011D7: 83 EF 01             sub edi, 1
0x004011DA: 78 16                js 0x4011f2
0x004011DC: 53                   push ebx
0x004011DD: 8B 5D 14             mov ebx, dword ptr [ebp + 0x14]
0x004011E0: 56                   push esi
0x004011E1: 8B 75 08             mov esi, dword ptr [ebp + 8]
0x004011E4: 8B CE                mov ecx, esi
0x004011E6: FF D3                call ebx
0x004011E8: 03 75 0C             add esi, dword ptr [ebp + 0xc]
0x004011EB: 83 EF 01             sub edi, 1
0x004011EE: 79 F4                jns 0x4011e4
0x004011F0: 5E                   pop esi
0x004011F1: 5B                   pop ebx
0x004011F2: 5F                   pop edi
0x004011F3: 5D                   pop ebp
0x004011F4: C2 10 00             ret 0x10
0x004011F7: CC                   int3
0x004011F8: CC                   int3
0x004011F9: CC                   int3
0x004011FA: CC                   int3
0x004011FB: CC                   int3
0x004011FC: CC                   int3
0x004011FD: CC                   int3
0x004011FE: CC                   int3
0x004011FF: CC                   int3
0x00401200: 55                   push ebp
0x00401201: 8B EC                mov ebp, esp
0x00401203: 8B 4D 0C             mov ecx, dword ptr [ebp + 0xc]
0x00401206: 8B 09                mov ecx, dword ptr [ecx]
0x00401208: 8B 45 08             mov eax, dword ptr [ebp + 8]
0x0040120B: 8B 00                mov eax, dword ptr [eax]
0x0040120D: 68 FF FF FF 7F       push 0x7fffffff
0x00401212: 51                   push ecx
0x00401213: 50                   push eax
0x00401214: E8 67 D5 36 00       call 0x76e780
0x00401219: F7 D8                neg eax
0x0040121B: 5D                   pop ebp
0x0040121C: C3                   ret
0x0040121D: CC                   int3
0x0040121E: CC                   int3
0x0040121F: CC                   int3
0x00401220: 56                   push esi
0x00401221: 57                   push edi
0x00401222: 8B F9                mov edi, ecx
0x00401224: 33 F6                xor esi, esi
0x00401226: 39 77 20             cmp dword ptr [edi + 0x20], esi
0x00401229: 76 2D                jbe 0x401258
0x0040122B: EB 03                jmp 0x401230
0x0040122D: 8D 49 00             lea ecx, [ecx]
0x00401230: 8B 0C B7             mov ecx, dword ptr [edi + esi*4]
0x00401233: 8B 01                mov eax, dword ptr [ecx]
0x00401235: 8B 50 04             mov edx, dword ptr [eax + 4]
0x00401238: FF D2                call edx
0x0040123A: 8B 04 B7             mov eax, dword ptr [edi + esi*4]
0x0040123D: 85 C0                test eax, eax
0x0040123F: 74 0F                je 0x401250
0x00401241: 6A 00                push 0
0x00401243: 6A FF                push -1
0x00401245: 68 0C 0E 9E 00       push 0x9e0e0c
0x0040124A: 50                   push eax
0x0040124B: E8 50 D3 36 00       call 0x76e5a0
0x00401250: 83 C6 01             add esi, 1
0x00401253: 3B 77 20             cmp esi, dword ptr [edi + 0x20]
0x00401256: 72 D8                jb 0x401230
0x00401258: 5F                   pop edi
0x00401259: 5E                   pop esi
0x0040125A: C3                   ret
0x0040125B: CC                   int3
0x0040125C: CC                   int3
0x0040125D: CC                   int3
0x0040125E: CC                   int3
0x0040125F: CC                   int3
0x00401260: 55                   push ebp
0x00401261: 8B EC                mov ebp, esp
0x00401263: 8B 55 0C             mov edx, dword ptr [ebp + 0xc]
0x00401266: 8B 0D 88 DF C5 00    mov ecx, dword ptr [0xc5df88]
0x0040126C: 8B 01                mov eax, dword ptr [ecx]
0x0040126E: 8B 80 CC 00 00 00    mov eax, dword ptr [eax + 0xcc]
0x00401274: 52                   push edx
0x00401275: 8B 55 08             mov edx, dword ptr [ebp + 8]
0x00401278: 52                   push edx
0x00401279: FF D0                call eax
0x0040127B: 5D                   pop ebp
0x0040127C: C3                   ret
0x0040127D: CC                   int3
0x0040127E: CC                   int3
0x0040127F: CC                   int3
0x00401280: 55                   push ebp
0x00401281: 8B EC                mov ebp, esp
0x00401283: B8 04 10 00 00       mov eax, 0x1004
0x00401288: E8 C3 A8 00 00       call 0x40bb50
0x0040128D: 8B 4D 14             mov ecx, dword ptr [ebp + 0x14]
0x00401290: 56                   push esi
0x00401291: 8D B5 FC EF FF FF    lea esi, [ebp - 0x1004]
0x00401297: 68 00 10 00 00       push 0x1000
0x0040129C: 8B C6                mov eax, esi
0x0040129E: 50                   push eax
0x0040129F: C6 45 FF 01          mov byte ptr [ebp - 1], 1
0x004012A3: C6 45 FE 00          mov byte ptr [ebp - 2], 0
0x004012A7: E8 D4 A1 07 00       call 0x47b480
0x004012AC: 6A 0D                push 0xd
0x004012AE: 68 54 0E 9E 00       push 0x9e0e54
0x004012B3: 8B CE                mov ecx, esi
0x004012B5: 51                   push ecx
0x004012B6: E8 A5 D4 36 00       call 0x76e760
0x004012BB: 85 C0                test eax, eax
0x004012BD: 75 06                jne 0x4012c5
0x004012BF: 8D B5 09 F0 FF FF    lea esi, [ebp - 0xff7]
0x004012C5: 80 3E 7E             cmp byte ptr [esi], 0x7e
0x004012C8: 74 22                je 0x4012ec
0x004012CA: 6A 01                push 1
0x004012CC: 56                   push esi
0x004012CD: E8 BE 1F 11 00       call 0x513290
0x004012D2: 56                   push esi
0x004012D3: 6A 03                push 3
0x004012D5: 68 50 0E 9E 00       push 0x9e0e50
0x004012DA: E8 81 40 36 00       call 0x765360
0x004012DF: 83 C4 14             add esp, 0x14
0x004012E2: B8 01 00 00 00       mov eax, 1
0x004012E7: 5E                   pop esi
0x004012E8: 8B E5                mov esp, ebp
0x004012EA: 5D                   pop ebp
0x004012EB: C3                   ret
0x004012EC: 83 C6 01             add esi, 1
0x004012EF: 80 3E 3E             cmp byte ptr [esi], 0x3e
0x004012F2: 75 07                jne 0x4012fb
0x004012F4: C6 45 FF 00          mov byte ptr [ebp - 1], 0
0x004012F8: 83 C6 01             add esi, 1
0x004012FB: 80 3E 23             cmp byte ptr [esi], 0x23
0x004012FE: 75 0B                jne 0x40130b
0x00401300: C6 45 FF 00          mov byte ptr [ebp - 1], 0
0x00401304: C6 45 FE 01          mov byte ptr [ebp - 2], 1
0x00401308: 83 C6 01             add esi, 1
0x0040130B: 53                   push ebx
0x0040130C: 57                   push edi
0x0040130D: 33 FF                xor edi, edi
0x0040130F: 80 3E 5E             cmp byte ptr [esi], 0x5e
0x00401312: BB 03 00 00 00       mov ebx, 3
0x00401317: 75 0F                jne 0x401328
0x00401319: 0F BE 7E 01          movsx edi, byte ptr [esi + 1]
0x0040131D: 83 C6 01             add esi, 1
0x00401320: 83 EF 30             sub edi, 0x30
0x00401323: 8B DF                mov ebx, edi
0x00401325: 83 C6 01             add esi, 1
0x00401328: 80 7D FF 00          cmp byte ptr [ebp - 1], 0
0x0040132C: 74 12                je 0x401340
0x0040132E: 33 D2                xor edx, edx
0x00401330: 83 FB 03             cmp ebx, 3
0x00401333: 0F 94 C2             sete dl
0x00401336: 52                   push edx
0x00401337: 56                   push esi
0x00401338: E8 53 1F 11 00       call 0x513290
0x0040133D: 83 C4 08             add esp, 8
0x00401340: 56                   push esi
0x00401341: 53                   push ebx
0x00401342: 68 50 0E 9E 00       push 0x9e0e50
0x00401347: E8 14 40 36 00       call 0x765360
0x0040134C: 83 C4 0C             add esp, 0xc
0x0040134F: 80 7D FE 00          cmp byte ptr [ebp - 2], 0
0x00401353: 74 24                je 0x401379
0x00401355: 6A 00                push 0
0x00401357: 6A 00                push 0
0x00401359: 6A 00                push 0
0x0040135B: 6A 00                push 0
0x0040135D: 6A 00                push 0
0x0040135F: 6A 00                push 0
0x00401361: 6A 00                push 0
0x00401363: 6A 00                push 0
0x00401365: 6A 00                push 0
0x00401367: 6A 00                push 0
0x00401369: 6A 00                push 0
0x0040136B: 6A 00                push 0
0x0040136D: 6A 00                push 0
0x0040136F: 57                   push edi
0x00401370: 56                   push esi
0x00401371: E8 5A 8A 10 00       call 0x509dd0
0x00401376: 83 C4 3C             add esp, 0x3c
0x00401379: 5F                   pop edi
0x0040137A: 5B                   pop ebx
0x0040137B: B8 01 00 00 00       mov eax, 1
0x00401380: 5E                   pop esi
0x00401381: 8B E5                mov esp, ebp
0x00401383: 5D                   pop ebp
0x00401384: C3                   ret
0x00401385: CC                   int3
0x00401386: CC                   int3
0x00401387: CC                   int3
0x00401388: CC                   int3
0x00401389: CC                   int3
0x0040138A: CC                   int3
0x0040138B: CC                   int3
0x0040138C: CC                   int3
0x0040138D: CC                   int3
0x0040138E: CC                   int3
0x0040138F: CC                   int3
0x00401390: 55                   push ebp
0x00401391: 8B EC                mov ebp, esp
0x00401393: 81 EC 0C 01 00 00    sub esp, 0x10c
0x00401399: 56                   push esi
0x0040139A: 8B 75 14             mov esi, dword ptr [ebp + 0x14]
0x0040139D: 8D 45 F8             lea eax, [ebp - 8]
0x004013A0: 50                   push eax
0x004013A1: 8B CE                mov ecx, esi
0x004013A3: E8 18 A0 07 00       call 0x47b3c0
0x004013A8: 8D 4D F4             lea ecx, [ebp - 0xc]
0x004013AB: 51                   push ecx
0x004013AC: 8B CE                mov ecx, esi
0x004013AE: E8 0D A0 07 00       call 0x47b3c0
0x004013B3: 8D 55 FF             lea edx, [ebp - 1]
0x004013B6: 52                   push edx
0x004013B7: 8B CE                mov ecx, esi
0x004013B9: C6 45 FF 00          mov byte ptr [ebp - 1], 0
0x004013BD: E8 7E 9F 07 00       call 0x47b340
0x004013C2: 0F B6 75 FF          movzx esi, byte ptr [ebp - 1]
0x004013C6: E8 C5 23 0D 00       call 0x4d3790
0x004013CB: 8B C8                mov ecx, eax
0x004013CD: 0B CA                or ecx, edx
0x004013CF: 74 25                je 0x4013f6
0x004013D1: 68 BC 04 00 00       push 0x4bc
0x004013D6: 68 94 0E 9E 00       push 0x9e0e94
0x004013DB: 6A 10                push 0x10
0x004013DD: 52                   push edx
0x004013DE: 50                   push eax
0x004013DF: E8 CC 39 0D 00       call 0x4d4db0
0x004013E4: 83 C4 14             add esp, 0x14
0x004013E7: 85 C0                test eax, eax
0x004013E9: 74 0B                je 0x4013f6
0x004013EB: 8B 55 F8             mov edx, dword ptr [ebp - 8]
0x004013EE: 52                   push edx
0x004013EF: 8B C8                mov ecx, eax
0x004013F1: E8 7A E0 2C 00       call 0x6cf470
0x004013F6: 85 F6                test esi, esi
0x004013F8: 5E                   pop esi
0x004013F9: 74 70                je 0x40146b
0x004013FB: 68 84 0E 9E 00       push 0x9e0e84
0x00401400: E8 AB 3F 36 00       call 0x7653b0
0x00401405: 8B 45 F8             mov eax, dword ptr [ebp - 8]
0x00401408: 50                   push eax
0x00401409: 8D 8D F4 FE FF FF    lea ecx, [ebp - 0x10c]
0x0040140F: 68 00 01 00 00       push 0x100
0x00401414: 51                   push ecx
0x00401415: E8 F6 A5 0F 00       call 0x4fba10
0x0040141A: 8D 95 F4 FE FF FF    lea edx, [ebp - 0x10c]
0x00401420: 52                   push edx
0x00401421: 68 78 0E 9E 00       push 0x9e0e78
0x00401426: E8 85 3F 36 00       call 0x7653b0
0x0040142B: 8B 45 F4             mov eax, dword ptr [ebp - 0xc]
0x0040142E: 50                   push eax
0x0040142F: 8D 8D F4 FE FF FF    lea ecx, [ebp - 0x10c]
0x00401435: 68 00 01 00 00       push 0x100
0x0040143A: 51                   push ecx
0x0040143B: E8 D0 A5 0F 00       call 0x4fba10
0x00401440: 8D 95 F4 FE FF FF    lea edx, [ebp - 0x10c]
0x00401446: 52                   push edx
0x00401447: 68 6C 0E 9E 00       push 0x9e0e6c
0x0040144C: E8 5F 3F 36 00       call 0x7653b0
0x00401451: 8B 45 F4             mov eax, dword ptr [ebp - 0xc]
0x00401454: 8B 4D F8             mov ecx, dword ptr [ebp - 8]
0x00401457: 50                   push eax
0x00401458: 51                   push ecx
0x00401459: 68 64 0E 9E 00       push 0x9e0e64
0x0040145E: 68 F1 00 00 00       push 0xf1
0x00401463: E8 C8 A0 41 00       call 0x81b530
0x00401468: 83 C4 3C             add esp, 0x3c
0x0040146B: B8 01 00 00 00       mov eax, 1
0x00401470: 8B E5                mov esp, ebp
0x00401472: 5D                   pop ebp
0x00401473: C3                   ret
0x00401474: CC                   int3
0x00401475: CC                   int3
0x00401476: CC                   int3
0x00401477: CC                   int3
0x00401478: CC                   int3
0x00401479: CC                   int3
0x0040147A: CC                   int3
0x0040147B: CC                   int3
0x0040147C: CC                   int3
0x0040147D: CC                   int3
0x0040147E: CC                   int3
0x0040147F: CC                   int3
0x00401480: 55                   push ebp
0x00401481: 8B EC                mov ebp, esp
0x00401483: 51                   push ecx
0x00401484: 53                   push ebx
0x00401485: 56                   push esi
0x00401486: 8B 75 14             mov esi, dword ptr [ebp + 0x14]
0x00401489: 57                   push edi
0x0040148A: 8D 45 FC             lea eax, [ebp - 4]
0x0040148D: 33 FF                xor edi, edi
0x0040148F: 50                   push eax
0x00401490: 8B CE                mov ecx, esi
0x00401492: 89 7D FC             mov dword ptr [ebp - 4], edi
0x00401495: E8 26 9F 07 00       call 0x47b3c0
0x0040149A: 8B 16                mov edx, dword ptr [esi]
0x0040149C: 8B 42 14             mov eax, dword ptr [edx + 0x14]
0x0040149F: 8B CE                mov ecx, esi
0x004014A1: 83 CB FF             or ebx, 0xffffffff
0x004014A4: FF D0                call eax
0x004014A6: 85 C0                test eax, eax
0x004014A8: 75 24                jne 0x4014ce
0x004014AA: 8D 4D 14             lea ecx, [ebp + 0x14]
0x004014AD: 51                   push ecx
0x004014AE: 33 DB                xor ebx, ebx
0x004014B0: 8B CE                mov ecx, esi
0x004014B2: 89 5D 14             mov dword ptr [ebp + 0x14], ebx
0x004014B5: E8 06 9F 07 00       call 0x47b3c0
0x004014BA: 8B 7D 14             mov edi, dword ptr [ebp + 0x14]
0x004014BD: 8D 55 14             lea edx, [ebp + 0x14]
0x004014C0: 52                   push edx
0x004014C1: 8B CE                mov ecx, esi
0x004014C3: 89 5D 14             mov dword ptr [ebp + 0x14], ebx
0x004014C6: E8 F5 9E 07 00       call 0x47b3c0
0x004014CB: 8B 5D 14             mov ebx, dword ptr [ebp + 0x14]
0x004014CE: E8 ED 7F 11 00       call 0x5194c0
0x004014D3: 68 A4 0E 9E 00       push 0x9e0ea4
0x004014D8: E8 D3 3E 36 00       call 0x7653b0
0x004014DD: 83 C4 04             add esp, 4
0x004014E0: 85 FF                test edi, edi
0x004014E2: 74 1F                je 0x401503
0x004014E4: 83 FB FF             cmp ebx, -1
0x004014E7: 74 1A                je 0x401503
0x004014E9: 8B 45 FC             mov eax, dword ptr [ebp - 4]
0x004014EC: 50                   push eax
0x004014ED: 53                   push ebx
0x004014EE: 57                   push edi
0x004014EF: E8 5C 98 00 00       call 0x40ad50
0x004014F4: 83 C4 0C             add esp, 0xc
0x004014F7: 5F                   pop edi
0x004014F8: 5E                   pop esi
0x004014F9: B8 01 00 00 00       mov eax, 1
0x004014FE: 5B                   pop ebx
0x004014FF: 8B E5                mov esp, ebp
0x00401501: 5D                   pop ebp
0x00401502: C3                   ret
0x00401503: 8B 4D FC             mov ecx, dword ptr [ebp - 4]
0x00401506: 6A 01                push 1
0x00401508: 51                   push ecx
0x00401509: E8 62 96 00 00       call 0x40ab70
0x0040150E: 83 C4 08             add esp, 8
0x00401511: 5F                   pop edi
0x00401512: 5E                   pop esi
0x00401513: B8 01 00 00 00       mov eax, 1
0x00401518: 5B                   pop ebx
0x00401519: 8B E5                mov esp, ebp
0x0040151B: 5D                   pop ebp
0x0040151C: C3                   ret
0x0040151D: CC                   int3
0x0040151E: CC                   int3
0x0040151F: CC                   int3
0x00401520: 55                   push ebp
0x00401521: 8B EC                mov ebp, esp
0x00401523: 81 EC 04 01 00 00    sub esp, 0x104
0x00401529: 68 04 01 00 00       push 0x104
0x0040152E: 8D 85 FC FE FF FF    lea eax, [ebp - 0x104]
0x00401534: 50                   push eax
0x00401535: 6A 00                push 0
0x00401537: 68 FC 0E 9E 00       push 0x9e0efc
0x0040153C: 68 E0 0E 9E 00       push 0x9e0ee0
0x00401541: E8 DA F1 36 00       call 0x770720
0x00401546: 85 C0                test eax, eax
0x00401548: 74 09                je 0x401553
0x0040154A: 80 BD FC FE FF FF 00 cmp byte ptr [ebp - 0x104], 0
0x00401551: 75 2C                jne 0x40157f
0x00401553: 68 CC 0E 9E 00       push 0x9e0ecc
0x00401558: 6A 00                push 0
0x0040155A: 68 FC 0E 9E 00       push 0x9e0efc
0x0040155F: 68 E0 0E 9E 00       push 0x9e0ee0
0x00401564: E8 87 F3 36 00       call 0x7708f0
0x00401569: 68 04 01 00 00       push 0x104
0x0040156E: 68 CC 0E 9E 00       push 0x9e0ecc
0x00401573: 8D 8D FC FE FF FF    lea ecx, [ebp - 0x104]
0x00401579: 51                   push ecx
0x0040157A: E8 A1 D7 36 00       call 0x76ed20
0x0040157F: 56                   push esi
0x00401580: E8 3B E8 36 00       call 0x76fdc0
0x00401585: 8D 95 FC FE FF FF    lea edx, [ebp - 0x104]
0x0040158B: 6A 2E                push 0x2e
0x0040158D: 52                   push edx
0x0040158E: 8B F0                mov esi, eax
0x00401590: E8 8B D1 36 00       call 0x76e720
0x00401595: 8B C8                mov ecx, eax
0x00401597: 8D 95 FC FE FF FF    lea edx, [ebp - 0x104]
0x0040159D: 56                   push esi
0x0040159E: 2B CA                sub ecx, edx
0x004015A0: 68 C0 0E 9E 00       push 0x9e0ec0
0x004015A5: 81 C1 04 01 00 00    add ecx, 0x104
0x004015AB: 51                   push ecx
0x004015AC: 50                   push eax
0x004015AD: E8 BE DA 36 00       call 0x76f070
0x004015B2: 8D 85 FC FE FF FF    lea eax, [ebp - 0x104]
0x004015B8: 50                   push eax
0x004015B9: E8 02 AD 2E 00       call 0x6ec2c0
0x004015BE: D9 05 0C 04 A4 00    fld dword ptr [0xa4040c]
0x004015C4: 83 C4 18             add esp, 0x18
0x004015C7: D9 1C 24             fstp dword ptr [esp]
0x004015CA: 6A 00                push 0
0x004015CC: 68 90 14 6F 00       push 0x6f1490
0x004015D1: 6A 06                push 6
0x004015D3: E8 E8 BD 07 00       call 0x47d3c0
0x004015D8: 83 C4 10             add esp, 0x10
0x004015DB: 5E                   pop esi
0x004015DC: 8B E5                mov esp, ebp
0x004015DE: 5D                   pop ebp
0x004015DF: C3                   ret
0x004015E0: 55                   push ebp
0x004015E1: 8B EC                mov ebp, esp
0x004015E3: 8B 45 10             mov eax, dword ptr [ebp + 0x10]
0x004015E6: 50                   push eax
0x004015E7: E8 94 E5 36 00       call 0x76fb80
0x004015EC: 51                   push ecx
0x004015ED: D9 1C 24             fstp dword ptr [esp]
0x004015F0: E8 7B 8A 46 00       call 0x86a070
0x004015F5: 83 C4 04             add esp, 4
0x004015F8: B0 01                mov al, 1
0x004015FA: 5D                   pop ebp
0x004015FB: C3                   ret
0x004015FC: CC                   int3
0x004015FD: CC                   int3
0x004015FE: CC                   int3
0x004015FF: CC                   int3
0x00401600: 55                   push ebp
0x00401601: 8B EC                mov ebp, esp
0x00401603: 8B 45 10             mov eax, dword ptr [ebp + 0x10]
0x00401606: 56                   push esi
0x00401607: 50                   push eax
0x00401608: E8 C3 DA 36 00       call 0x76f0d0
0x0040160D: 8B F0                mov esi, eax
0x0040160F: 85 F6                test esi, esi
0x00401611: 74 0E                je 0x401621
0x00401613: E8 78 9D 00 00       call 0x40b390
0x00401618: 6A 00                push 0
0x0040161A: 68 20 0F 9E 00       push 0x9e0f20
0x0040161F: EB 0C                jmp 0x40162d
0x00401621: E8 9A 9D 00 00       call 0x40b3c0
0x00401626: 6A 00                push 0
0x00401628: 68 08 0F 9E 00       push 0x9e0f08
0x0040162D: E8 3E 3C 36 00       call 0x765270
0x00401632: 83 C4 08             add esp, 8
0x00401635: 56                   push esi
0x00401636: E8 15 38 0B 00       call 0x4b4e50
0x0040163B: 83 C4 04             add esp, 4
0x0040163E: B0 01                mov al, 1
0x00401640: 5E                   pop esi
0x00401641: 5D                   pop ebp
0x00401642: C3                   ret
0x00401643: CC                   int3
0x00401644: CC                   int3
0x00401645: CC                   int3
0x00401646: CC                   int3
0x00401647: CC                   int3
0x00401648: CC                   int3
0x00401649: CC                   int3
0x0040164A: CC                   int3
0x0040164B: CC                   int3
0x0040164C: CC                   int3
0x0040164D: CC                   int3
0x0040164E: CC                   int3
0x0040164F: CC                   int3
0x00401650: 55                   push ebp
0x00401651: 8B EC                mov ebp, esp
0x00401653: 8B 45 10             mov eax, dword ptr [ebp + 0x10]
0x00401656: 56                   push esi
0x00401657: 50                   push eax
0x00401658: E8 73 DA 36 00       call 0x76f0d0
0x0040165D: 8B F0                mov esi, eax
0x0040165F: 85 F6                test esi, esi
0x00401661: 74 0E                je 0x401671
0x00401663: E8 78 9D 00 00       call 0x40b3e0
0x00401668: 6A 00                push 0
0x0040166A: 68 50 0F 9E 00       push 0x9e0f50
0x0040166F: EB 0C                jmp 0x40167d
0x00401671: E8 8A 9D 00 00       call 0x40b400
0x00401676: 6A 00                push 0
0x00401678: 68 38 0F 9E 00       push 0x9e0f38
0x0040167D: E8 EE 3B 36 00       call 0x765270
0x00401682: 83 C4 08             add esp, 8
0x00401685: 56                   push esi
0x00401686: E8 C5 37 0B 00       call 0x4b4e50
0x0040168B: 83 C4 04             add esp, 4
0x0040168E: B0 01                mov al, 1
0x00401690: 5E                   pop esi
0x00401691: 5D                   pop ebp
0x00401692: C3                   ret
0x00401693: CC                   int3
0x00401694: CC                   int3
0x00401695: CC                   int3
0x00401696: CC                   int3
0x00401697: CC                   int3
0x00401698: CC                   int3
0x00401699: CC                   int3
0x0040169A: CC                   int3
0x0040169B: CC                   int3
0x0040169C: CC                   int3
0x0040169D: CC                   int3
0x0040169E: CC                   int3
0x0040169F: CC                   int3
0x004016A0: 55                   push ebp
0x004016A1: 8B EC                mov ebp, esp
0x004016A3: 83 EC 50             sub esp, 0x50
0x004016A6: 56                   push esi
0x004016A7: 57                   push edi
0x004016A8: E8 F3 37 0B 00       call 0x4b4ea0
0x004016AD: 8B F0                mov esi, eax
0x004016AF: E8 FC 37 0B 00       call 0x4b4eb0
0x004016B4: 85 F6                test esi, esi
0x004016B6: 8B F8                mov edi, eax
0x004016B8: 75 19                jne 0x4016d3
0x004016BA: 83 FF 03             cmp edi, 3
0x004016BD: 75 14                jne 0x4016d3
0x004016BF: 56                   push esi
0x004016C0: 68 F0 0F 9E 00       push 0x9e0ff0
0x004016C5: E8 A6 3B 36 00       call 0x765270
0x004016CA: 83 C4 08             add esp, 8
0x004016CD: 5F                   pop edi
0x004016CE: 5E                   pop esi
0x004016CF: 8B E5                mov esp, ebp
0x004016D1: 5D                   pop ebp
0x004016D2: C3                   ret
0x004016D3: 6A 50                push 0x50
0x004016D5: 68 E4 0F 9E 00       push 0x9e0fe4
0x004016DA: 8D 45 B0             lea eax, [ebp - 0x50]
0x004016DD: 50                   push eax
0x004016DE: E8 3D D6 36 00       call 0x76ed20
0x004016E3: 3B F7                cmp esi, edi
0x004016E5: 75 13                jne 0x4016fa
0x004016E7: 68 FF FF FF 7F       push 0x7fffffff
0x004016EC: 68 DC 0F 9E 00       push 0x9e0fdc
0x004016F1: 8D 4D B0             lea ecx, [ebp - 0x50]
0x004016F4: 51                   push ecx
0x004016F5: E8 76 D8 36 00       call 0x76ef70
0x004016FA: 83 FE 03             cmp esi, 3
0x004016FD: 77 46                ja 0x401745
0x004016FF: FF 24 B5 A4 17 40 00 jmp dword ptr [esi*4 + 0x4017a4]
0x00401706: 68 FF FF FF 7F       push 0x7fffffff
0x0040170B: 68 C4 0F 9E 00       push 0x9e0fc4
0x00401710: EB 2A                jmp 0x40173c
0x00401712: 68 FF FF FF 7F       push 0x7fffffff
0x00401717: 68 B8 0F 9E 00       push 0x9e0fb8
0x0040171C: 8D 45 B0             lea eax, [ebp - 0x50]
0x0040171F: 50                   push eax
0x00401720: EB 1E                jmp 0x401740
0x00401722: 68 FF FF FF 7F       push 0x7fffffff
0x00401727: 68 B0 0F 9E 00       push 0x9e0fb0
0x0040172C: 8D 4D B0             lea ecx, [ebp - 0x50]
0x0040172F: 51                   push ecx
0x00401730: EB 0E                jmp 0x401740
0x00401732: 68 FF FF FF 7F       push 0x7fffffff
0x00401737: 68 A0 0F 9E 00       push 0x9e0fa0
0x0040173C: 8D 55 B0             lea edx, [ebp - 0x50]
0x0040173F: 52                   push edx
0x00401740: E8 2B D8 36 00       call 0x76ef70
0x00401745: 3B F7                cmp esi, edi
0x00401747: 74 44                je 0x40178d
0x00401749: 8B C7                mov eax, edi
0x0040174B: 83 E8 01             sub eax, 1
0x0040174E: 74 2A                je 0x40177a
0x00401750: 83 E8 01             sub eax, 1
0x00401753: 74 15                je 0x40176a
0x00401755: 83 E8 01             sub eax, 1
0x00401758: 75 33                jne 0x40178d
0x0040175A: 68 FF FF FF 7F       push 0x7fffffff
0x0040175F: 68 88 0F 9E 00       push 0x9e0f88
0x00401764: 8D 45 B0             lea eax, [ebp - 0x50]
0x00401767: 50                   push eax
0x00401768: EB 1E                jmp 0x401788
0x0040176A: 68 FF FF FF 7F       push 0x7fffffff
0x0040176F: 68 78 0F 9E 00       push 0x9e0f78
0x00401774: 8D 4D B0             lea ecx, [ebp - 0x50]
0x00401777: 51                   push ecx
0x00401778: EB 0E                jmp 0x401788
0x0040177A: 68 FF FF FF 7F       push 0x7fffffff
0x0040177F: 68 64 0F 9E 00       push 0x9e0f64
0x00401784: 8D 55 B0             lea edx, [ebp - 0x50]
0x00401787: 52                   push edx
0x00401788: E8 E3 D7 36 00       call 0x76ef70
0x0040178D: 8D 45 B0             lea eax, [ebp - 0x50]
0x00401790: 6A 00                push 0
0x00401792: 50                   push eax
0x00401793: E8 D8 3A 36 00       call 0x765270
0x00401798: 83 C4 08             add esp, 8
0x0040179B: 5F                   pop edi
0x0040179C: 5E                   pop esi
0x0040179D: 8B E5                mov esp, ebp
0x0040179F: 5D                   pop ebp
0x004017A0: C3                   ret
0x004017A1: 8D 49 00             lea ecx, [ecx]
0x004017A4: 06                   push es
0x004017A5: 17                   pop ss
0x004017A6: 40                   inc eax
0x004017A7: 00 12                add byte ptr [edx], dl
0x004017A9: 17                   pop ss
0x004017AA: 40                   inc eax
0x004017AB: 00 22                add byte ptr [edx], ah
0x004017AD: 17                   pop ss
0x004017AE: 40                   inc eax
0x004017AF: 00 32                add byte ptr [edx], dh
0x004017B1: 17                   pop ss
0x004017B2: 40                   inc eax
0x004017B3: 00 CC                add ah, cl
0x004017B5: CC                   int3
0x004017B6: CC                   int3
0x004017B7: CC                   int3
0x004017B8: CC                   int3
0x004017B9: CC                   int3
0x004017BA: CC                   int3
0x004017BB: CC                   int3
0x004017BC: CC                   int3
0x004017BD: CC                   int3
0x004017BE: CC                   int3
0x004017BF: CC                   int3
0x004017C0: 55                   push ebp
0x004017C1: 8B EC                mov ebp, esp
0x004017C3: 8B 45 10             mov eax, dword ptr [ebp + 0x10]
0x004017C6: 50                   push eax
0x004017C7: E8 04 D9 36 00       call 0x76f0d0
0x004017CC: 83 F8 03             cmp eax, 3
0x004017CF: 77 12                ja 0x4017e3
0x004017D1: 50                   push eax
0x004017D2: E8 89 36 0B 00       call 0x4b4e60
0x004017D7: 83 C4 04             add esp, 4
0x004017DA: E8 C1 FE FF FF       call 0x4016a0
0x004017DF: B0 01                mov al, 1
0x004017E1: 5D                   pop ebp
0x004017E2: C3                   ret
0x004017E3: 6A 03                push 3
0x004017E5: 50                   push eax
0x004017E6: 6A 00                push 0
0x004017E8: 68 10 10 9E 00       push 0x9e1010
0x004017ED: E8 6E 3B 36 00       call 0x765360
0x004017F2: 83 C4 10             add esp, 0x10
0x004017F5: 32 C0                xor al, al
0x004017F7: 5D                   pop ebp
0x004017F8: C3                   ret
0x004017F9: CC                   int3
0x004017FA: CC                   int3
0x004017FB: CC                   int3
0x004017FC: CC                   int3
0x004017FD: CC                   int3
0x004017FE: CC                   int3
0x004017FF: CC                   int3
0x00401800: 55                   push ebp
0x00401801: 8B EC                mov ebp, esp
0x00401803: 8B 45 10             mov eax, dword ptr [ebp + 0x10]
0x00401806: 50                   push eax
0x00401807: E8 C4 D8 36 00       call 0x76f0d0
0x0040180C: 83 F8 03             cmp eax, 3
0x0040180F: 77 12                ja 0x401823
0x00401811: 50                   push eax
0x00401812: E8 69 36 0B 00       call 0x4b4e80
0x00401817: 83 C4 04             add esp, 4
0x0040181A: E8 81 FE FF FF       call 0x4016a0
0x0040181F: B0 01                mov al, 1
0x00401821: 5D                   pop ebp
0x00401822: C3                   ret
0x00401823: 6A 03                push 3
0x00401825: 50                   push eax
0x00401826: 6A 00                push 0
0x00401828: 68 10 10 9E 00       push 0x9e1010
0x0040182D: E8 2E 3B 36 00       call 0x765360
0x00401832: 83 C4 10             add esp, 0x10
0x00401835: 32 C0                xor al, al
0x00401837: 5D                   pop ebp
0x00401838: C3                   ret
0x00401839: CC                   int3
0x0040183A: CC                   int3
0x0040183B: CC                   int3
0x0040183C: CC                   int3
0x0040183D: CC                   int3
0x0040183E: CC                   int3
0x0040183F: CC                   int3
0x00401840: 55                   push ebp
0x00401841: 8B EC                mov ebp, esp
0x00401843: 83 EC 50             sub esp, 0x50
0x00401846: 57                   push edi
0x00401847: E8 84 36 0B 00       call 0x4b4ed0
0x0040184C: 8B F8                mov edi, eax
0x0040184E: 83 FF FF             cmp edi, -1
0x00401851: 75 14                jne 0x401867
0x00401853: 6A 00                push 0
0x00401855: 68 54 10 9E 00       push 0x9e1054
0x0040185A: E8 11 3A 36 00       call 0x765270
0x0040185F: 83 C4 08             add esp, 8
0x00401862: 5F                   pop edi
0x00401863: 8B E5                mov esp, ebp
0x00401865: 5D                   pop ebp
0x00401866: C3                   ret
0x00401867: 56                   push esi
0x00401868: 6A 4F                push 0x4f
0x0040186A: 8D 45 B1             lea eax, [ebp - 0x4f]
0x0040186D: 6A 00                push 0
0x0040186F: 50                   push eax
0x00401870: C6 45 B0 00          mov byte ptr [ebp - 0x50], 0
0x00401874: E8 07 A3 00 00       call 0x40bb80
0x00401879: 83 C4 0C             add esp, 0xc
0x0040187C: 33 F6                xor esi, esi
0x0040187E: 8B FF                mov edi, edi
0x00401880: BA 01 00 00 00       mov edx, 1
0x00401885: 8B CE                mov ecx, esi
0x00401887: D3 E2                shl edx, cl
0x00401889: 85 D7                test edi, edx
0x0040188B: 74 23                je 0x4018b0
0x0040188D: 8B 04 B5 04 60 AB 00 mov eax, dword ptr [esi*4 + 0xab6004]
0x00401894: 6A 50                push 0x50
0x00401896: 50                   push eax
0x00401897: 8D 4D B0             lea ecx, [ebp - 0x50]
0x0040189A: 51                   push ecx
0x0040189B: E8 D0 D6 36 00       call 0x76ef70
0x004018A0: 6A 50                push 0x50
0x004018A2: 68 50 10 9E 00       push 0x9e1050
0x004018A7: 8D 55 B0             lea edx, [ebp - 0x50]
0x004018AA: 52                   push edx
0x004018AB: E8 C0 D6 36 00       call 0x76ef70
0x004018B0: 83 C6 01             add esi, 1
0x004018B3: 83 FE 09             cmp esi, 9
0x004018B6: 72 C8                jb 0x401880
0x004018B8: 8D 45 B0             lea eax, [ebp - 0x50]
0x004018BB: 50                   push eax
0x004018BC: 68 3C 10 9E 00       push 0x9e103c
0x004018C1: E8 EA 3A 36 00       call 0x7653b0
0x004018C6: 83 C4 08             add esp, 8
0x004018C9: 5E                   pop esi
0x004018CA: 5F                   pop edi
0x004018CB: 8B E5                mov esp, ebp
0x004018CD: 5D                   pop ebp
0x004018CE: C3                   ret
0x004018CF: CC                   int3
0x004018D0: 55                   push ebp
0x004018D1: 8B EC                mov ebp, esp
0x004018D3: 83 EC 48             sub esp, 0x48
0x004018D6: A1 28 11 9E 00       mov eax, dword ptr [0x9e1128]
0x004018DB: 66 8B 0D 2C 11 9E 00 mov cx, word ptr [0x9e112c]
0x004018E2: 53                   push ebx
0x004018E3: 56                   push esi
0x004018E4: 57                   push edi
0x004018E5: 33 DB                xor ebx, ebx
0x004018E7: 53                   push ebx
0x004018E8: 8D 55 F8             lea edx, [ebp - 8]
0x004018EB: 52                   push edx
0x004018EC: 89 45 F8             mov dword ptr [ebp - 8], eax
0x004018EF: 6A 40                push 0x40
0x004018F1: 8D 45 B8             lea eax, [ebp - 0x48]
0x004018F4: 66 89 4D FC          mov word ptr [ebp - 4], cx
0x004018F8: 50                   push eax
0x004018F9: 8D 4D 08             lea ecx, [ebp + 8]
0x004018FC: 51                   push ecx
0x004018FD: 33 FF                xor edi, edi
0x004018FF: E8 DC D8 36 00       call 0x76f1e0
0x00401904: 38 5D B8             cmp byte ptr [ebp - 0x48], bl
0x00401907: 0F 84 A1 00 00 00    je 0x4019ae
0x0040190D: 8D 49 00             lea ecx, [ecx]
0x00401910: 33 F6                xor esi, esi
0x00401912: 8B 14 B5 04 60 AB 00 mov edx, dword ptr [esi*4 + 0xab6004]
0x00401919: 68 FF FF FF 7F       push 0x7fffffff
0x0040191E: 52                   push edx
0x0040191F: 8D 45 B8             lea eax, [ebp - 0x48]
0x00401922: 50                   push eax
0x00401923: E8 58 CE 36 00       call 0x76e780
0x00401928: 85 C0                test eax, eax
0x0040192A: 74 2C                je 0x401958
0x0040192C: 83 C6 01             add esi, 1
0x0040192F: 83 FE 09             cmp esi, 9
0x00401932: 72 DE                jb 0x401912
0x00401934: 68 FF FF FF 7F       push 0x7fffffff
0x00401939: 68 24 11 9E 00       push 0x9e1124
0x0040193E: 8D 4D B8             lea ecx, [ebp - 0x48]
0x00401941: 51                   push ecx
0x00401942: E8 39 CE 36 00       call 0x76e780
0x00401947: 85 C0                test eax, eax
0x00401949: 75 28                jne 0x401973
0x0040194B: 8B FB                mov edi, ebx
0x0040194D: F7 DF                neg edi
0x0040194F: 1B FF                sbb edi, edi
0x00401951: F7 DF                neg edi
0x00401953: 83 EF 01             sub edi, 1
0x00401956: EB 37                jmp 0x40198f
0x00401958: B8 01 00 00 00       mov eax, 1
0x0040195D: 8B CE                mov ecx, esi
0x0040195F: D3 E0                shl eax, cl
0x00401961: 85 DB                test ebx, ebx
0x00401963: 74 08                je 0x40196d
0x00401965: F7 D0                not eax
0x00401967: 23 C7                and eax, edi
0x00401969: 8B F8                mov edi, eax
0x0040196B: EB 22                jmp 0x40198f
0x0040196D: 0B C7                or eax, edi
0x0040196F: 8B F8                mov edi, eax
0x00401971: EB 1C                jmp 0x40198f
0x00401973: 68 FF FF FF 7F       push 0x7fffffff
0x00401978: 68 1C 11 9E 00       push 0x9e111c
0x0040197D: 8D 55 B8             lea edx, [ebp - 0x48]
0x00401980: 52                   push edx
0x00401981: E8 FA CD 36 00       call 0x76e780
0x00401986: 85 C0                test eax, eax
0x00401988: 74 39                je 0x4019c3
0x0040198A: BB 01 00 00 00       mov ebx, 1
0x0040198F: 6A 00                push 0
0x00401991: 8D 45 F8             lea eax, [ebp - 8]
0x00401994: 50                   push eax
0x00401995: 6A 40                push 0x40
0x00401997: 8D 4D B8             lea ecx, [ebp - 0x48]
0x0040199A: 51                   push ecx
0x0040199B: 8D 55 08             lea edx, [ebp + 8]
0x0040199E: 52                   push edx
0x0040199F: E8 3C D8 36 00       call 0x76f1e0
0x004019A4: 80 7D B8 00          cmp byte ptr [ebp - 0x48], 0
0x004019A8: 0F 85 62 FF FF FF    jne 0x401910
0x004019AE: 57                   push edi
0x004019AF: E8 0C 35 0B 00       call 0x4b4ec0
0x004019B4: 83 C4 04             add esp, 4
0x004019B7: 5F                   pop edi
0x004019B8: 5E                   pop esi
0x004019B9: B8 01 00 00 00       mov eax, 1
0x004019BE: 5B                   pop ebx
0x004019BF: 8B E5                mov esp, ebp
0x004019C1: 5D                   pop ebp
0x004019C2: C3                   ret
0x004019C3: 8D 45 B8             lea eax, [ebp - 0x48]
0x004019C6: 50                   push eax
0x004019C7: 68 08 11 9E 00       push 0x9e1108
0x004019CC: E8 DF 39 36 00       call 0x7653b0
0x004019D1: 6A 00                push 0
0x004019D3: 68 C0 10 9E 00       push 0x9e10c0
0x004019D8: E8 93 38 36 00       call 0x765270
0x004019DD: 6A 00                push 0
0x004019DF: 68 94 10 9E 00       push 0x9e1094
0x004019E4: E8 87 38 36 00       call 0x765270
0x004019E9: 6A 00                push 0
0x004019EB: 68 70 10 9E 00       push 0x9e1070
0x004019F0: E8 7B 38 36 00       call 0x765270
0x004019F5: 83 C4 20             add esp, 0x20
0x004019F8: 5F                   pop edi
0x004019F9: 5E                   pop esi
0x004019FA: 33 C0                xor eax, eax
0x004019FC: 5B                   pop ebx
0x004019FD: 8B E5                mov esp, ebp
0x004019FF: 5D                   pop ebp
0x00401A00: C3                   ret
0x00401A01: CC                   int3
0x00401A02: CC                   int3
0x00401A03: CC                   int3
0x00401A04: CC                   int3
0x00401A05: CC                   int3
0x00401A06: CC                   int3
0x00401A07: CC                   int3
0x00401A08: CC                   int3
0x00401A09: CC                   int3
0x00401A0A: CC                   int3
0x00401A0B: CC                   int3
0x00401A0C: CC                   int3
0x00401A0D: CC                   int3
0x00401A0E: CC                   int3
0x00401A0F: CC                   int3
0x00401A10: 55                   push ebp
0x00401A11: 8B EC                mov ebp, esp
0x00401A13: 8B 45 10             mov eax, dword ptr [ebp + 0x10]
0x00401A16: 50                   push eax
0x00401A17: E8 B4 FE FF FF       call 0x4018d0
0x00401A1C: 83 C4 04             add esp, 4
0x00401A1F: 85 C0                test eax, eax
0x00401A21: 75 04                jne 0x401a27
0x00401A23: 32 C0                xor al, al
0x00401A25: 5D                   pop ebp
0x00401A26: C3                   ret
0x00401A27: E8 14 FE FF FF       call 0x401840
0x00401A2C: B0 01                mov al, 1
0x00401A2E: 5D                   pop ebp
0x00401A2F: C3                   ret
0x00401A30: 55                   push ebp
0x00401A31: 8B EC                mov ebp, esp
0x00401A33: 8B 45 10             mov eax, dword ptr [ebp + 0x10]
0x00401A36: 50                   push eax
0x00401A37: E8 44 E1 36 00       call 0x76fb80
0x00401A3C: D9 05 34 11 9E 00    fld dword ptr [0x9e1134]
0x00401A42: D8 D9                fcomp st(1)
0x00401A44: DF E0                fnstsw ax
0x00401A46: F6 C4 41             test ah, 0x41
0x00401A49: 75 04                jne 0x401a4f
0x00401A4B: DD D8                fstp st(0)
0x00401A4D: D9 E8                fld1
0x00401A4F: A1 20 F0 B2 00       mov eax, dword ptr [0xb2f020]
0x00401A54: 85 C0                test eax, eax
0x00401A56: 74 1B                je 0x401a73
0x00401A58: 83 78 30 00          cmp dword ptr [eax + 0x30], 0
0x00401A5C: 75 15                jne 0x401a73
0x00401A5E: 8B 0D 88 DF C5 00    mov ecx, dword ptr [0xc5df88]
0x00401A64: 8B 11                mov edx, dword ptr [ecx]
0x00401A66: 8B 42 40             mov eax, dword ptr [edx + 0x40]
0x00401A69: 51                   push ecx
0x00401A6A: D9 1C 24             fstp dword ptr [esp]
0x00401A6D: FF D0                call eax
0x00401A6F: B0 01                mov al, 1
0x00401A71: 5D                   pop ebp
0x00401A72: C3                   ret
0x00401A73: DD D8                fstp st(0)
0x00401A75: B0 01                mov al, 1
0x00401A77: 5D                   pop ebp
0x00401A78: C3                   ret
0x00401A79: CC                   int3
0x00401A7A: CC                   int3
0x00401A7B: CC                   int3
0x00401A7C: CC                   int3
0x00401A7D: CC                   int3
0x00401A7E: CC                   int3
0x00401A7F: CC                   int3
0x00401A80: 55                   push ebp
0x00401A81: 8B EC                mov ebp, esp
0x00401A83: 8B 45 10             mov eax, dword ptr [ebp + 0x10]
0x00401A86: 81 EC 00 06 00 00    sub esp, 0x600
0x00401A8C: 50                   push eax
0x00401A8D: E8 3E D6 36 00       call 0x76f0d0
0x00401A92: 85 C0                test eax, eax
0x00401A94: 74 2C                je 0x401ac2
0x00401A96: 8D 8D 00 FA FF FF    lea ecx, [ebp - 0x600]
0x00401A9C: 51                   push ecx
0x00401A9D: 8B 0D 88 DF C5 00    mov ecx, dword ptr [0xc5df88]
0x00401AA3: E8 08 27 28 00       call 0x6841b0
0x00401AA8: 8B 0D 88 DF C5 00    mov ecx, dword ptr [0xc5df88]
0x00401AAE: 8B 11                mov edx, dword ptr [ecx]
0x00401AB0: 8B 52 3C             mov edx, dword ptr [edx + 0x3c]
0x00401AB3: 8D 85 00 FA FF FF    lea eax, [ebp - 0x600]
0x00401AB9: 50                   push eax
0x00401ABA: FF D2                call edx
0x00401ABC: B0 01                mov al, 1
0x00401ABE: 8B E5                mov esp, ebp
0x00401AC0: 5D                   pop ebp
0x00401AC1: C3                   ret
0x00401AC2: A1 24 F0 B2 00       mov eax, dword ptr [0xb2f024]
0x00401AC7: D9 E8                fld1
0x00401AC9: 85 C0                test eax, eax
0x00401ACB: 74 05                je 0x401ad2
0x00401ACD: D9 40 2C             fld dword ptr [eax + 0x2c]
0x00401AD0: EB 02                jmp 0x401ad4
0x00401AD2: D9 C0                fld st(0)
0x00401AD4: D9 05 34 11 9E 00    fld dword ptr [0x9e1134]
0x00401ADA: D8 D9                fcomp st(1)
0x00401ADC: DF E0                fnstsw ax
0x00401ADE: F6 C4 41             test ah, 0x41
0x00401AE1: 75 04                jne 0x401ae7
0x00401AE3: DD D8                fstp st(0)
0x00401AE5: EB 02                jmp 0x401ae9
0x00401AE7: DD D9                fstp st(1)
0x00401AE9: 8B 0D 88 DF C5 00    mov ecx, dword ptr [0xc5df88]
0x00401AEF: 8B 01                mov eax, dword ptr [ecx]
0x00401AF1: 8B 50 40             mov edx, dword ptr [eax + 0x40]
0x00401AF4: 51                   push ecx
0x00401AF5: D9 1C 24             fstp dword ptr [esp]
0x00401AF8: FF D2                call edx
0x00401AFA: B0 01                mov al, 1
0x00401AFC: 8B E5                mov esp, ebp
0x00401AFE: 5D                   pop ebp
0x00401AFF: C3                   ret
0x00401B00: C7 05 24 AA B6 00 01 00 00 00 mov dword ptr [0xb6aa24], 1
0x00401B0A: E8 51 BE 11 00       call 0x51d960
0x00401B0F: B8 01 00 00 00       mov eax, 1
0x00401B14: C3                   ret
0x00401B15: CC                   int3
0x00401B16: CC                   int3
0x00401B17: CC                   int3
0x00401B18: CC                   int3
0x00401B19: CC                   int3
0x00401B1A: CC                   int3
0x00401B1B: CC                   int3
0x00401B1C: CC                   int3
0x00401B1D: CC                   int3
0x00401B1E: CC                   int3
0x00401B1F: CC                   int3
0x00401B20: 55                   push ebp
0x00401B21: 8B EC                mov ebp, esp
0x00401B23: 8B 45 10             mov eax, dword ptr [ebp + 0x10]
0x00401B26: 50                   push eax
0x00401B27: E8 54 69 0A 00       call 0x4a8480
0x00401B2C: 83 C4 04             add esp, 4
0x00401B2F: B0 01                mov al, 1
0x00401B31: 5D                   pop ebp
0x00401B32: C3                   ret
0x00401B33: CC                   int3
0x00401B34: CC                   int3
0x00401B35: CC                   int3
0x00401B36: CC                   int3
0x00401B37: CC                   int3
0x00401B38: CC                   int3
0x00401B39: CC                   int3
0x00401B3A: CC                   int3
0x00401B3B: CC                   int3
0x00401B3C: CC                   int3
0x00401B3D: CC                   int3
0x00401B3E: CC                   int3
0x00401B3F: CC                   int3
0x00401B40: 55                   push ebp
0x00401B41: 8B EC                mov ebp, esp
0x00401B43: 8B 45 10             mov eax, dword ptr [ebp + 0x10]
0x00401B46: 50                   push eax
0x00401B47: E8 84 D5 36 00       call 0x76f0d0
0x00401B4C: 50                   push eax
0x00401B4D: E8 4E 69 0A 00       call 0x4a84a0
0x00401B52: 83 C4 04             add esp, 4
0x00401B55: B0 01                mov al, 1
0x00401B57: 5D                   pop ebp
0x00401B58: C3                   ret
0x00401B59: CC                   int3
0x00401B5A: CC                   int3
0x00401B5B: CC                   int3
0x00401B5C: CC                   int3
0x00401B5D: CC                   int3
0x00401B5E: CC                   int3
0x00401B5F: CC                   int3
0x00401B60: 55                   push ebp
0x00401B61: 8B EC                mov ebp, esp
0x00401B63: 83 EC 20             sub esp, 0x20
0x00401B66: 6A 00                push 0
0x00401B68: 6A 01                push 1
0x00401B6A: 68 00 1B 40 00       push 0x401b00
0x00401B6F: 68 08 15 9E 00       push 0x9e1508
0x00401B74: E8 87 75 36 00       call 0x769100
0x00401B79: 6A 00                push 0
0x00401B7B: 6A 00                push 0
0x00401B7D: 68 E0 8D 8C 00       push 0x8c8de0
0x00401B82: 68 00 15 9E 00       push 0x9e1500
0x00401B87: E8 74 75 36 00       call 0x769100
0x00401B8C: 6A 00                push 0
0x00401B8E: 6A 00                push 0
0x00401B90: 6A 00                push 0
0x00401B92: 6A 04                push 4
0x00401B94: 6A 00                push 0
0x00401B96: 68 FF 14 9E 00       push 0x9e14ff
0x00401B9B: 6A 40                push 0x40
0x00401B9D: 68 EC 14 9E 00       push 0x9e14ec
0x00401BA2: 68 E0 14 9E 00       push 0x9e14e0
0x00401BA7: E8 14 64 36 00       call 0x767fc0
0x00401BAC: 83 C4 44             add esp, 0x44
0x00401BAF: 6A 00                push 0
0x00401BB1: 6A 00                push 0
0x00401BB3: 6A 00                push 0
0x00401BB5: 6A 04                push 4
0x00401BB7: 6A 00                push 0
0x00401BB9: 68 FF 14 9E 00       push 0x9e14ff
0x00401BBE: 6A 00                push 0
0x00401BC0: 68 B0 14 9E 00       push 0x9e14b0
0x00401BC5: 68 A4 14 9E 00       push 0x9e14a4
0x00401BCA: A3 90 F9 B2 00       mov dword ptr [0xb2f990], eax
0x00401BCF: E8 EC 63 36 00       call 0x767fc0
0x00401BD4: 6A 00                push 0
0x00401BD6: 6A 00                push 0
0x00401BD8: 6A 00                push 0
0x00401BDA: 6A 04                push 4
0x00401BDC: 6A 00                push 0
0x00401BDE: 68 A0 14 9E 00       push 0x9e14a0
0x00401BE3: 6A 00                push 0
0x00401BE5: 68 7C 14 9E 00       push 0x9e147c
0x00401BEA: 68 68 14 9E 00       push 0x9e1468
0x00401BEF: A3 8C F9 B2 00       mov dword ptr [0xb2f98c], eax
0x00401BF4: E8 C7 63 36 00       call 0x767fc0
0x00401BF9: 83 C4 48             add esp, 0x48
0x00401BFC: 6A 00                push 0
0x00401BFE: 6A 00                push 0
0x00401C00: 6A 00                push 0
0x00401C02: 6A 04                push 4
0x00401C04: 6A 00                push 0
0x00401C06: 68 64 14 9E 00       push 0x9e1464
0x00401C0B: 6A 00                push 0
0x00401C0D: 68 4C 14 9E 00       push 0x9e144c
0x00401C12: 68 44 14 9E 00       push 0x9e1444
0x00401C17: A3 88 F9 B2 00       mov dword ptr [0xb2f988], eax
0x00401C1C: E8 9F 63 36 00       call 0x767fc0
0x00401C21: 6A 00                push 0
0x00401C23: 6A 00                push 0
0x00401C25: 6A 00                push 0
0x00401C27: 6A 04                push 4
0x00401C29: 6A 00                push 0
0x00401C2B: 68 64 14 9E 00       push 0x9e1464
0x00401C30: 6A 00                push 0
0x00401C32: 68 24 14 9E 00       push 0x9e1424
0x00401C37: 68 14 14 9E 00       push 0x9e1414
0x00401C3C: A3 84 F9 B2 00       mov dword ptr [0xb2f984], eax
0x00401C41: E8 7A 63 36 00       call 0x767fc0
0x00401C46: 83 C4 48             add esp, 0x48
0x00401C49: 6A 00                push 0
0x00401C4B: 6A 00                push 0
0x00401C4D: 6A 00                push 0
0x00401C4F: 6A 04                push 4
0x00401C51: 6A 00                push 0
0x00401C53: 68 A0 14 9E 00       push 0x9e14a0
0x00401C58: 6A 00                push 0
0x00401C5A: 68 FC 13 9E 00       push 0x9e13fc
0x00401C5F: 68 EC 13 9E 00       push 0x9e13ec
0x00401C64: A3 80 F9 B2 00       mov dword ptr [0xb2f980], eax
0x00401C69: E8 52 63 36 00       call 0x767fc0
0x00401C6E: A3 7C F9 B2 00       mov dword ptr [0xb2f97c], eax
0x00401C73: 6A 00                push 0
0x00401C75: 6A 00                push 0
0x00401C77: 6A 00                push 0
0x00401C79: 6A 04                push 4
0x00401C7B: 6A 00                push 0
0x00401C7D: 68 64 14 9E 00       push 0x9e1464
0x00401C82: 6A 00                push 0
0x00401C84: 68 C4 13 9E 00       push 0x9e13c4
0x00401C89: 68 B0 13 9E 00       push 0x9e13b0
0x00401C8E: E8 2D 63 36 00       call 0x767fc0
0x00401C93: 83 C4 48             add esp, 0x48
0x00401C96: A3 78 F9 B2 00       mov dword ptr [0xb2f978], eax
0x00401C9B: E8 90 79 46 00       call 0x869630
0x00401CA0: 83 EC 08             sub esp, 8
0x00401CA3: DD 1C 24             fstp qword ptr [esp]
0x00401CA6: 68 A8 13 9E 00       push 0x9e13a8
0x00401CAB: 8D 45 E0             lea eax, [ebp - 0x20]
0x00401CAE: 6A 20                push 0x20
0x00401CB0: 50                   push eax
0x00401CB1: E8 BA D3 36 00       call 0x76f070
0x00401CB6: 6A 00                push 0
0x00401CB8: 6A 00                push 0
0x00401CBA: 6A 00                push 0
0x00401CBC: 6A 04                push 4
0x00401CBE: 68 E0 15 40 00       push 0x4015e0
0x00401CC3: 8D 4D E0             lea ecx, [ebp - 0x20]
0x00401CC6: 51                   push ecx
0x00401CC7: 6A 00                push 0
0x00401CC9: 6A 00                push 0
0x00401CCB: 68 9C 13 9E 00       push 0x9e139c
0x00401CD0: E8 EB 62 36 00       call 0x767fc0
0x00401CD5: 6A 00                push 0
0x00401CD7: 6A 00                push 0
0x00401CD9: 6A 00                push 0
0x00401CDB: 6A 00                push 0
0x00401CDD: 68 00 16 40 00       push 0x401600
0x00401CE2: 68 A0 14 9E 00       push 0x9e14a0
0x00401CE7: 6A 00                push 0
0x00401CE9: 6A 00                push 0
0x00401CEB: 68 94 13 9E 00       push 0x9e1394
0x00401CF0: A3 3C F0 B2 00       mov dword ptr [0xb2f03c], eax
0x00401CF5: E8 C6 62 36 00       call 0x767fc0
0x00401CFA: 83 C4 5C             add esp, 0x5c
0x00401CFD: 6A 00                push 0
0x00401CFF: 6A 00                push 0
0x00401D01: 6A 00                push 0
0x00401D03: 6A 00                push 0
0x00401D05: 68 50 16 40 00       push 0x401650
0x00401D0A: 68 64 14 9E 00       push 0x9e1464
0x00401D0F: 6A 00                push 0
0x00401D11: 6A 00                push 0
0x00401D13: 68 88 13 9E 00       push 0x9e1388
0x00401D18: A3 38 F0 B2 00       mov dword ptr [0xb2f038], eax
0x00401D1D: E8 9E 62 36 00       call 0x767fc0
0x00401D22: 6A 00                push 0
0x00401D24: 6A 00                push 0
0x00401D26: 6A 00                push 0
0x00401D28: 6A 00                push 0
0x00401D2A: 68 C0 17 40 00       push 0x4017c0
0x00401D2F: 68 84 13 9E 00       push 0x9e1384
0x00401D34: 6A 00                push 0
0x00401D36: 6A 00                push 0
0x00401D38: 68 74 13 9E 00       push 0x9e1374
0x00401D3D: A3 34 F0 B2 00       mov dword ptr [0xb2f034], eax
0x00401D42: E8 79 62 36 00       call 0x767fc0
0x00401D47: 83 C4 48             add esp, 0x48
0x00401D4A: 6A 00                push 0
0x00401D4C: 6A 00                push 0
0x00401D4E: 6A 00                push 0
0x00401D50: 6A 00                push 0
0x00401D52: 68 00 18 40 00       push 0x401800
0x00401D57: 68 70 13 9E 00       push 0x9e1370
0x00401D5C: 6A 00                push 0
0x00401D5E: 6A 00                push 0
0x00401D60: 68 60 13 9E 00       push 0x9e1360
0x00401D65: A3 30 F0 B2 00       mov dword ptr [0xb2f030], eax
0x00401D6A: E8 51 62 36 00       call 0x767fc0
0x00401D6F: 6A 00                push 0
0x00401D71: 6A 00                push 0
0x00401D73: 6A 00                push 0
0x00401D75: A3 2C F0 B2 00       mov dword ptr [0xb2f02c], eax
0x00401D7A: 6A 00                push 0
0x00401D7C: 68 10 1A 40 00       push 0x401a10
0x00401D81: 68 24 11 9E 00       push 0x9e1124
0x00401D86: 6A 00                push 0
0x00401D88: 6A 00                push 0
0x00401D8A: 68 54 13 9E 00       push 0x9e1354
0x00401D8F: E8 2C 62 36 00       call 0x767fc0
0x00401D94: 83 C4 48             add esp, 0x48
0x00401D97: 6A 00                push 0
0x00401D99: 6A 00                push 0
0x00401D9B: 6A 00                push 0
0x00401D9D: 6A 01                push 1
0x00401D9F: 68 80 1A 40 00       push 0x401a80
0x00401DA4: 68 A0 14 9E 00       push 0x9e14a0
0x00401DA9: 6A 00                push 0
0x00401DAB: 6A 00                push 0
0x00401DAD: 68 44 13 9E 00       push 0x9e1344
0x00401DB2: A3 28 F0 B2 00       mov dword ptr [0xb2f028], eax
0x00401DB7: E8 04 62 36 00       call 0x767fc0
0x00401DBC: 6A 00                push 0
0x00401DBE: 6A 00                push 0
0x00401DC0: 6A 00                push 0
0x00401DC2: 6A 01                push 1
0x00401DC4: 68 30 1A 40 00       push 0x401a30
0x00401DC9: 68 40 13 9E 00       push 0x9e1340
0x00401DCE: 6A 00                push 0
0x00401DD0: 6A 00                push 0
0x00401DD2: 68 38 13 9E 00       push 0x9e1338
0x00401DD7: A3 20 F0 B2 00       mov dword ptr [0xb2f020], eax
0x00401DDC: E8 DF 61 36 00       call 0x767fc0
0x00401DE1: 83 C4 48             add esp, 0x48
0x00401DE4: 6A 00                push 0
0x00401DE6: 6A 00                push 0
0x00401DE8: 6A 00                push 0
0x00401DEA: 6A 04                push 4
0x00401DEC: 6A 00                push 0
0x00401DEE: 68 A0 14 9E 00       push 0x9e14a0
0x00401DF3: 6A 00                push 0
0x00401DF5: 68 20 13 9E 00       push 0x9e1320
0x00401DFA: 68 0C 13 9E 00       push 0x9e130c
0x00401DFF: A3 24 F0 B2 00       mov dword ptr [0xb2f024], eax
0x00401E04: E8 B7 61 36 00       call 0x767fc0
0x00401E09: 6A 00                push 0
0x00401E0B: 6A 00                push 0
0x00401E0D: 6A 00                push 0
0x00401E0F: 6A 04                push 4
0x00401E11: 6A 00                push 0
0x00401E13: 68 A0 14 9E 00       push 0x9e14a0
0x00401E18: 6A 00                push 0
0x00401E1A: 68 F8 12 9E 00       push 0x9e12f8
0x00401E1F: 68 F0 12 9E 00       push 0x9e12f0
0x00401E24: A3 74 F9 B2 00       mov dword ptr [0xb2f974], eax
0x00401E29: E8 92 61 36 00       call 0x767fc0
0x00401E2E: 83 C4 48             add esp, 0x48
0x00401E31: 6A 00                push 0
0x00401E33: 6A 00                push 0
0x00401E35: 6A 00                push 0
0x00401E37: 6A 04                push 4
0x00401E39: 6A 00                push 0
0x00401E3B: 68 A0 14 9E 00       push 0x9e14a0
0x00401E40: 6A 00                push 0
0x00401E42: 68 DC 12 9E 00       push 0x9e12dc
0x00401E47: 68 D0 12 9E 00       push 0x9e12d0
0x00401E4C: A3 70 F9 B2 00       mov dword ptr [0xb2f970], eax
0x00401E51: E8 6A 61 36 00       call 0x767fc0
0x00401E56: 6A 00                push 0
0x00401E58: 6A 00                push 0
0x00401E5A: 6A 00                push 0
0x00401E5C: 6A 04                push 4
0x00401E5E: 6A 00                push 0
0x00401E60: 68 A0 14 9E 00       push 0x9e14a0
0x00401E65: 6A 00                push 0
0x00401E67: 68 A0 12 9E 00       push 0x9e12a0
0x00401E6C: 68 80 12 9E 00       push 0x9e1280
0x00401E71: A3 6C F9 B2 00       mov dword ptr [0xb2f96c], eax
0x00401E76: E8 45 61 36 00       call 0x767fc0
0x00401E7B: 83 C4 48             add esp, 0x48
0x00401E7E: 6A 00                push 0
0x00401E80: 6A 00                push 0
0x00401E82: 6A 00                push 0
0x00401E84: A3 68 F9 B2 00       mov dword ptr [0xb2f968], eax
0x00401E89: 6A 04                push 4
0x00401E8B: 6A 00                push 0
0x00401E8D: 68 A0 14 9E 00       push 0x9e14a0
0x00401E92: 6A 00                push 0
0x00401E94: 68 60 12 9E 00       push 0x9e1260
0x00401E99: 68 50 12 9E 00       push 0x9e1250
0x00401E9E: E8 1D 61 36 00       call 0x767fc0
0x00401EA3: 6A 00                push 0
0x00401EA5: 6A 00                push 0
0x00401EA7: 6A 00                push 0
0x00401EA9: 6A 04                push 4
0x00401EAB: 6A 00                push 0
0x00401EAD: 68 A0 14 9E 00       push 0x9e14a0
0x00401EB2: 6A 00                push 0
0x00401EB4: 68 30 12 9E 00       push 0x9e1230
0x00401EB9: 68 24 12 9E 00       push 0x9e1224
0x00401EBE: A3 64 F9 B2 00       mov dword ptr [0xb2f964], eax
0x00401EC3: E8 F8 60 36 00       call 0x767fc0
0x00401EC8: 83 C4 48             add esp, 0x48
0x00401ECB: 6A 00                push 0
0x00401ECD: 6A 00                push 0
0x00401ECF: 6A 00                push 0
0x00401ED1: 6A 01                push 1
0x00401ED3: 68 20 1B 40 00       push 0x401b20
0x00401ED8: 68 1C 12 9E 00       push 0x9e121c
0x00401EDD: 6A 01                push 1
0x00401EDF: 68 FC 11 9E 00       push 0x9e11fc
0x00401EE4: 68 E8 11 9E 00       push 0x9e11e8
0x00401EE9: A3 60 F9 B2 00       mov dword ptr [0xb2f960], eax
0x00401EEE: E8 CD 60 36 00       call 0x767fc0
0x00401EF3: 6A 00                push 0
0x00401EF5: 6A 00                push 0
0x00401EF7: 6A 00                push 0
0x00401EF9: 6A 01                push 1
0x00401EFB: 68 40 1B 40 00       push 0x401b40
0x00401F00: 68 70 13 9E 00       push 0x9e1370
0x00401F05: 6A 01                push 1
0x00401F07: 68 C0 11 9E 00       push 0x9e11c0
0x00401F0C: 68 AC 11 9E 00       push 0x9e11ac
0x00401F11: A3 5C F8 B2 00       mov dword ptr [0xb2f85c], eax
0x00401F16: E8 A5 60 36 00       call 0x767fc0
0x00401F1B: 83 C4 48             add esp, 0x48
0x00401F1E: 6A 00                push 0
0x00401F20: 6A 00                push 0
0x00401F22: 6A 00                push 0
0x00401F24: 6A 04                push 4
0x00401F26: 6A 00                push 0
0x00401F28: 68 A8 11 9E 00       push 0x9e11a8
0x00401F2D: 6A 00                push 0
0x00401F2F: 68 7C 11 9E 00       push 0x9e117c
0x00401F34: 68 70 11 9E 00       push 0x9e1170
0x00401F39: A3 4C F0 B2 00       mov dword ptr [0xb2f04c], eax
0x00401F3E: E8 7D 60 36 00       call 0x767fc0
0x00401F43: 8B 48 30             mov ecx, dword ptr [eax + 0x30]
0x00401F46: 83 C4 24             add esp, 0x24
0x00401F49: 85 C9                test ecx, ecx
0x00401F4B: 7C 05                jl 0x401f52
0x00401F4D: 83 F9 01             cmp ecx, 1
0x00401F50: 7E 14                jle 0x401f66
0x00401F52: 6A 01                push 1
0x00401F54: 6A 00                push 0
0x00401F56: 6A 00                push 0
0x00401F58: 6A 01                push 1
0x00401F5A: 68 64 14 9E 00       push 0x9e1464
0x00401F5F: 8B C8                mov ecx, eax
0x00401F61: E8 5A 49 36 00       call 0x7668c0
0x00401F66: E8 D5 01 02 00       call 0x422140
0x00401F6B: 85 C0                test eax, eax
0x00401F6D: 74 30                je 0x401f9f
0x00401F6F: 6A 00                push 0
0x00401F71: 6A 00                push 0
0x00401F73: 6A 00                push 0
0x00401F75: 6A 04                push 4
0x00401F77: 6A 00                push 0
0x00401F79: 68 A0 14 9E 00       push 0x9e14a0
0x00401F7E: 6A 00                push 0
0x00401F80: 68 60 11 9E 00       push 0x9e1160
0x00401F85: 68 54 11 9E 00       push 0x9e1154
0x00401F8A: E8 31 60 36 00       call 0x767fc0
0x00401F8F: 83 78 30 00          cmp dword ptr [eax + 0x30], 0
0x00401F93: 0F 95 C2             setne dl
0x00401F96: 52                   push edx
0x00401F97: E8 14 EA 01 00       call 0x4209b0
0x00401F9C: 83 C4 28             add esp, 0x28
0x00401F9F: 6A 00                push 0
0x00401FA1: 6A 00                push 0
0x00401FA3: 6A 00                push 0
0x00401FA5: 6A 04                push 4
0x00401FA7: 6A 00                push 0
0x00401FA9: 68 FF 14 9E 00       push 0x9e14ff
0x00401FAE: 6A 00                push 0
0x00401FB0: 68 44 11 9E 00       push 0x9e1144
0x00401FB5: 68 38 11 9E 00       push 0x9e1138
0x00401FBA: E8 01 60 36 00       call 0x767fc0
0x00401FBF: 83 C4 24             add esp, 0x24
0x00401FC2: 8B E5                mov esp, ebp
0x00401FC4: 5D                   pop ebp
0x00401FC5: C3                   ret
0x00401FC6: CC                   int3
0x00401FC7: CC                   int3
0x00401FC8: CC                   int3
0x00401FC9: CC                   int3
0x00401FCA: CC                   int3
0x00401FCB: CC                   int3
0x00401FCC: CC                   int3
0x00401FCD: CC                   int3
0x00401FCE: CC                   int3
0x00401FCF: CC                   int3
0x00401FD0: 6A 00                push 0
0x00401FD2: 6A 00                push 0
0x00401FD4: E8 E7 2B 06 00       call 0x464bc0
0x00401FD9: 83 C4 08             add esp, 8
0x00401FDC: E8 EF 83 3D 00       call 0x7da3d0
0x00401FE1: B8 01 00 00 00       mov eax, 1
0x00401FE6: C3                   ret
0x00401FE7: CC                   int3
0x00401FE8: CC                   int3
0x00401FE9: CC                   int3
0x00401FEA: CC                   int3
0x00401FEB: CC                   int3
0x00401FEC: CC                   int3
0x00401FED: CC                   int3
0x00401FEE: CC                   int3
0x00401FEF: CC                   int3
0x00401FF0: 53                   push ebx
0x00401FF1: 56                   push esi
0x00401FF2: 57                   push edi
0x00401FF3: 6A 00                push 0
0x00401FF5: 6A 00                push 0
0x00401FF7: 6A 00                push 0
0x00401FF9: 6A 00                push 0
0x00401FFB: 68 20 14 8A 00       push 0x8a1420
0x00402000: 68 EC 15 9E 00       push 0x9e15ec
0x00402005: 6A 01                push 1
0x00402007: 68 B0 15 9E 00       push 0x9e15b0
0x0040200C: 68 98 15 9E 00       push 0x9e1598
0x00402011: E8 AA 5F 36 00       call 0x767fc0
0x00402016: 6A 00                push 0
0x00402018: 6A 00                push 0
0x0040201A: 6A 00                push 0
0x0040201C: 6A 00                push 0
0x0040201E: 68 20 14 8A 00       push 0x8a1420
0x00402023: 68 64 14 9E 00       push 0x9e1464
0x00402028: 6A 01                push 1
0x0040202A: 68 6C 15 9E 00       push 0x9e156c
0x0040202F: 68 5C 15 9E 00       push 0x9e155c
0x00402034: A3 EC F9 B2 00       mov dword ptr [0xb2f9ec], eax
0x00402039: E8 82 5F 36 00       call 0x767fc0
0x0040203E: 83 C4 48             add esp, 0x48
0x00402041: 6A 00                push 0
0x00402043: 6A 00                push 0
0x00402045: 6A 00                push 0
0x00402047: 6A 00                push 0
0x00402049: 68 20 14 8A 00       push 0x8a1420
0x0040204E: 68 64 14 9E 00       push 0x9e1464
0x00402053: 6A 01                push 1
0x00402055: 68 34 15 9E 00       push 0x9e1534
0x0040205A: 68 20 15 9E 00       push 0x9e1520
0x0040205F: A3 F0 F9 B2 00       mov dword ptr [0xb2f9f0], eax
0x00402064: E8 57 5F 36 00       call 0x767fc0
0x00402069: 8B 0D EC F9 B2 00    mov ecx, dword ptr [0xb2f9ec]
0x0040206F: 8B 15 F0 F9 B2 00    mov edx, dword ptr [0xb2f9f0]
0x00402075: 8B 71 30             mov esi, dword ptr [ecx + 0x30]
0x00402078: 8B 5A 30             mov ebx, dword ptr [edx + 0x30]
0x0040207B: 8B 78 30             mov edi, dword ptr [eax + 0x30]
0x0040207E: 83 C4 24             add esp, 0x24
0x00402081: A3 F4 F9 B2 00       mov dword ptr [0xb2f9f4], eax
0x00402086: E8 B5 91 46 00       call 0x86b240
0x0040208B: 83 F8 02             cmp eax, 2
0x0040208E: 73 04                jae 0x402094
0x00402090: 33 DB                xor ebx, ebx
0x00402092: EB 04                jmp 0x402098
0x00402094: 85 DB                test ebx, ebx
0x00402096: 75 27                jne 0x4020bf
0x00402098: 83 FE 08             cmp esi, 8
0x0040209B: 7E 05                jle 0x4020a2
0x0040209D: BE 08 00 00 00       mov esi, 8
0x004020A2: 33 FF                xor edi, edi
0x004020A4: 83 FE 07             cmp esi, 7
0x004020A7: 7D 05                jge 0x4020ae
0x004020A9: BE 07 00 00 00       mov esi, 7
0x004020AE: 57                   push edi
0x004020AF: 53                   push ebx
0x004020B0: 56                   push esi
0x004020B1: 6A 05                push 5
0x004020B3: E8 68 F9 0E 00       call 0x4f1a20
0x004020B8: 83 C4 10             add esp, 0x10
0x004020BB: 5F                   pop edi
0x004020BC: 5E                   pop esi
0x004020BD: 5B                   pop ebx
0x004020BE: C3                   ret
0x004020BF: 83 FE 09             cmp esi, 9
0x004020C2: 7E E0                jle 0x4020a4
0x004020C4: 57                   push edi
0x004020C5: 53                   push ebx
0x004020C6: BE 09 00 00 00       mov esi, 9
0x004020CB: 56                   push esi
0x004020CC: 6A 05                push 5
0x004020CE: E8 4D F9 0E 00       call 0x4f1a20
0x004020D3: 83 C4 10             add esp, 0x10
0x004020D6: 5F                   pop edi
0x004020D7: 5E                   pop esi
0x004020D8: 5B                   pop ebx
0x004020D9: C3                   ret
0x004020DA: CC                   int3
0x004020DB: CC                   int3
0x004020DC: CC                   int3
0x004020DD: CC                   int3
0x004020DE: CC                   int3
0x004020DF: CC                   int3
0x004020E0: 55                   push ebp
0x004020E1: 8B EC                mov ebp, esp
0x004020E3: 8B 45 08             mov eax, dword ptr [ebp + 8]
0x004020E6: 8B 48 04             mov ecx, dword ptr [eax + 4]
0x004020E9: D9 00                fld dword ptr [eax]
0x004020EB: 51                   push ecx
0x004020EC: 51                   push ecx
0x004020ED: D9 1C 24             fstp dword ptr [esp]
0x004020F0: E8 BB CB 37 00       call 0x77ecb0
0x004020F5: 83 C4 08             add esp, 8
0x004020F8: B8 01 00 00 00       mov eax, 1
0x004020FD: 5D                   pop ebp
0x004020FE: C3                   ret
0x004020FF: CC                   int3
0x00402100: 55                   push ebp
0x00402101: 8B EC                mov ebp, esp
0x00402103: 8B 45 08             mov eax, dword ptr [ebp + 8]
0x00402106: 56                   push esi
0x00402107: 33 F6                xor esi, esi
0x00402109: 83 F8 03             cmp eax, 3
0x0040210C: 0F 87 8D 00 00 00    ja 0x40219f
0x00402112: FF 24 85 A4 21 40 00 jmp dword ptr [eax*4 + 0x4021a4]
0x00402119: 8B 4D 0C             mov ecx, dword ptr [ebp + 0xc]
0x0040211C: 85 C9                test ecx, ecx
0x0040211E: 74 69                je 0x402189
0x00402120: B8 1F 85 EB 51       mov eax, 0x51eb851f
0x00402125: F7 E9                imul ecx
0x00402127: C1 FA 05             sar edx, 5
0x0040212A: 8B C2                mov eax, edx
0x0040212C: C1 E8 1F             shr eax, 0x1f
0x0040212F: 03 C2                add eax, edx
0x00402131: 99                   cdq
0x00402132: 57                   push edi
0x00402133: BF 0A 00 00 00       mov edi, 0xa
0x00402138: F7 FF                idiv edi
0x0040213A: B8 67 66 66 66       mov eax, 0x66666667
0x0040213F: 8B FA                mov edi, edx
0x00402141: F7 E9                imul ecx
0x00402143: C1 FA 02             sar edx, 2
0x00402146: 8B C2                mov eax, edx
0x00402148: C1 E8 1F             shr eax, 0x1f
0x0040214B: 03 C2                add eax, edx
0x0040214D: 8D 04 80             lea eax, [eax + eax*4]
0x00402150: 03 C0                add eax, eax
0x00402152: 2B C8                sub ecx, eax
0x00402154: 83 E9 01             sub ecx, 1
0x00402157: 74 18                je 0x402171
0x00402159: 83 E9 01             sub ecx, 1
0x0040215C: 74 0C                je 0x40216a
0x0040215E: 83 E9 01             sub ecx, 1
0x00402161: 75 13                jne 0x402176
0x00402163: BE 00 E0 00 00       mov esi, 0xe000
0x00402168: EB 0C                jmp 0x402176
0x0040216A: BE 00 60 00 00       mov esi, 0x6000
0x0040216F: EB 05                jmp 0x402176
0x00402171: BE 00 20 00 00       mov esi, 0x2000
0x00402176: 85 FF                test edi, edi
0x00402178: 5F                   pop edi
0x00402179: 74 24                je 0x40219f
0x0040217B: 6A 02                push 2
0x0040217D: E8 AE B0 07 00       call 0x47d230
0x00402182: 83 C4 04             add esp, 4
0x00402185: 85 C0                test eax, eax
0x00402187: 74 16                je 0x40219f
0x00402189: 33 F6                xor esi, esi
0x0040218B: 8B C6                mov eax, esi
0x0040218D: 5E                   pop esi
0x0040218E: 5D                   pop ebp
0x0040218F: C3                   ret
0x00402190: BE 00 E0 00 00       mov esi, 0xe000
0x00402195: 8B C6                mov eax, esi
0x00402197: 5E                   pop esi
0x00402198: 5D                   pop ebp
0x00402199: C3                   ret
0x0040219A: BE 00 20 00 00       mov esi, 0x2000
0x0040219F: 8B C6                mov eax, esi
0x004021A1: 5E                   pop esi
0x004021A2: 5D                   pop ebp
0x004021A3: C3                   ret
0x004021A4: 19 21                sbb dword ptr [ecx], esp
0x004021A6: 40                   inc eax
0x004021A7: 00 90 21 40 00 9A    add byte ptr [eax - 0x65ffbfdf], dl
0x004021AD: 21 40 00             and dword ptr [eax], eax
0x004021B0: 9A 21 40 00 CC CC CC lcall 0xcccc, 0xcc004021
0x004021B7: CC                   int3
0x004021B8: CC                   int3
0x004021B9: CC                   int3
0x004021BA: CC                   int3
0x004021BB: CC                   int3
0x004021BC: CC                   int3
0x004021BD: CC                   int3
0x004021BE: CC                   int3
0x004021BF: CC                   int3
0x004021C0: 55                   push ebp
0x004021C1: 8B EC                mov ebp, esp
0x004021C3: 8B 45 10             mov eax, dword ptr [ebp + 0x10]
0x004021C6: 50                   push eax
0x004021C7: E8 04 CF 36 00       call 0x76f0d0
0x004021CC: 8B 0D 18 F0 B2 00    mov ecx, dword ptr [0xb2f018]
0x004021D2: 85 C9                test ecx, ecx
0x004021D4: 74 17                je 0x4021ed
0x004021D6: 8B 49 30             mov ecx, dword ptr [ecx + 0x30]
0x004021D9: 51                   push ecx
0x004021DA: 50                   push eax
0x004021DB: E8 20 FF FF FF       call 0x402100
0x004021E0: 50                   push eax
0x004021E1: E8 7A 9E 41 00       call 0x81c060
0x004021E6: 83 C4 0C             add esp, 0xc
0x004021E9: B0 01                mov al, 1
0x004021EB: 5D                   pop ebp
0x004021EC: C3                   ret
0x004021ED: 33 C9                xor ecx, ecx
0x004021EF: 51                   push ecx
0x004021F0: 50                   push eax
0x004021F1: E8 0A FF FF FF       call 0x402100
0x004021F6: 50                   push eax
0x004021F7: E8 64 9E 41 00       call 0x81c060
0x004021FC: 83 C4 0C             add esp, 0xc
0x004021FF: B0 01                mov al, 1
0x00402201: 5D                   pop ebp
0x00402202: C3                   ret
0x00402203: CC                   int3
0x00402204: CC                   int3
0x00402205: CC                   int3
0x00402206: CC                   int3
0x00402207: CC                   int3
0x00402208: CC                   int3
0x00402209: CC                   int3
0x0040220A: CC                   int3
0x0040220B: CC                   int3
0x0040220C: CC                   int3
0x0040220D: CC                   int3
0x0040220E: CC                   int3
0x0040220F: CC                   int3
0x00402210: 55                   push ebp
0x00402211: 8B EC                mov ebp, esp
0x00402213: A1 1C F0 B2 00       mov eax, dword ptr [0xb2f01c]
0x00402218: 85 C0                test eax, eax
0x0040221A: 56                   push esi
0x0040221B: 74 05                je 0x402222
0x0040221D: 8B 70 30             mov esi, dword ptr [eax + 0x30]
0x00402220: EB 02                jmp 0x402224
0x00402222: 33 F6                xor esi, esi
0x00402224: 8B 45 10             mov eax, dword ptr [ebp + 0x10]
0x00402227: 50                   push eax
0x00402228: E8 A3 CE 36 00       call 0x76f0d0
0x0040222D: 50                   push eax
0x0040222E: 56                   push esi
0x0040222F: E8 CC FE FF FF       call 0x402100
0x00402234: 50                   push eax
0x00402235: E8 26 9E 41 00       call 0x81c060
0x0040223A: 83 C4 0C             add esp, 0xc
0x0040223D: B0 01                mov al, 1
0x0040223F: 5E                   pop esi
0x00402240: 5D                   pop ebp
0x00402241: C3                   ret
0x00402242: CC                   int3
0x00402243: CC                   int3
0x00402244: CC                   int3
0x00402245: CC                   int3
0x00402246: CC                   int3
0x00402247: CC                   int3
0x00402248: CC                   int3
0x00402249: CC                   int3
0x0040224A: CC                   int3
0x0040224B: CC                   int3
0x0040224C: CC                   int3
0x0040224D: CC                   int3
0x0040224E: CC                   int3
0x0040224F: CC                   int3
0x00402250: 55                   push ebp
0x00402251: 8B EC                mov ebp, esp
0x00402253: 8B 45 10             mov eax, dword ptr [ebp + 0x10]
0x00402256: 53                   push ebx
0x00402257: 50                   push eax
0x00402258: E8 73 CE 36 00       call 0x76f0d0
0x0040225D: 8B D8                mov ebx, eax
0x0040225F: 83 FB 03             cmp ebx, 3
0x00402262: 77 6E                ja 0x4022d2
0x00402264: F6 C3 01             test bl, 1
0x00402267: 74 4B                je 0x4022b4
0x00402269: 56                   push esi
0x0040226A: E8 91 7A 36 00       call 0x769d00
0x0040226F: 8B F0                mov esi, eax
0x00402271: 85 F6                test esi, esi
0x00402273: 74 3E                je 0x4022b3
0x00402275: 83 7E 28 00          cmp dword ptr [esi + 0x28], 0
0x00402279: 75 19                jne 0x402294
0x0040227B: 66 81 3E 86 80       cmp word ptr [esi], 0x8086
0x00402280: 75 12                jne 0x402294
0x00402282: 6A 00                push 0
0x00402284: 68 F0 15 9E 00       push 0x9e15f0
0x00402289: 83 E3 FE             and ebx, 0xfffffffe
0x0040228C: E8 DF 2F 36 00       call 0x765270
0x00402291: 83 C4 08             add esp, 8
0x00402294: 8B 76 28             mov esi, dword ptr [esi + 0x28]
0x00402297: 85 F6                test esi, esi
0x00402299: 74 18                je 0x4022b3
0x0040229B: 83 7E 58 00          cmp dword ptr [esi + 0x58], 0
0x0040229F: 74 12                je 0x4022b3
0x004022A1: 6A 00                push 0
0x004022A3: 68 F0 15 9E 00       push 0x9e15f0
0x004022A8: 83 E3 FE             and ebx, 0xfffffffe
0x004022AB: E8 C0 2F 36 00       call 0x765270
0x004022B0: 83 C4 08             add esp, 8
0x004022B3: 5E                   pop esi
0x004022B4: 8B CB                mov ecx, ebx
0x004022B6: 83 E1 01             and ecx, 1
0x004022B9: 51                   push ecx
0x004022BA: E8 D1 30 0B 00       call 0x4b5390
0x004022BF: D1 EB                shr ebx, 1
0x004022C1: 83 C4 04             add esp, 4
0x004022C4: 83 E3 01             and ebx, 1
0x004022C7: 89 1D 48 79 B4 00    mov dword ptr [0xb47948], ebx
0x004022CD: B0 01                mov al, 1
0x004022CF: 5B                   pop ebx
0x004022D0: 5D                   pop ebp
0x004022D1: C3                   ret
0x004022D2: 32 C0                xor al, al
0x004022D4: 5B                   pop ebx
0x004022D5: 5D                   pop ebp
0x004022D6: C3                   ret
0x004022D7: CC                   int3
0x004022D8: CC                   int3
0x004022D9: CC                   int3
0x004022DA: CC                   int3
0x004022DB: CC                   int3
0x004022DC: CC                   int3
0x004022DD: CC                   int3
0x004022DE: CC                   int3
0x004022DF: CC                   int3
0x004022E0: 55                   push ebp
0x004022E1: 8B EC                mov ebp, esp
0x004022E3: 56                   push esi
0x004022E4: E8 57 8F 46 00       call 0x86b240
0x004022E9: B9 20 00 00 00       mov ecx, 0x20
0x004022EE: 2B C8                sub ecx, eax
0x004022F0: 8B 45 10             mov eax, dword ptr [ebp + 0x10]
0x004022F3: 83 CE FF             or esi, 0xffffffff
0x004022F6: 50                   push eax
0x004022F7: D3 EE                shr esi, cl
0x004022F9: E8 0D 99 00 00       call 0x40bc0b
0x004022FE: 83 C4 04             add esp, 4
0x00402301: 3B C6                cmp eax, esi
0x00402303: 76 14                jbe 0x402319
0x00402305: 56                   push esi
0x00402306: 50                   push eax
0x00402307: 68 08 16 9E 00       push 0x9e1608
0x0040230C: E8 9F 30 36 00       call 0x7653b0
0x00402311: 83 C4 0C             add esp, 0xc
0x00402314: 32 C0                xor al, al
0x00402316: 5E                   pop esi
0x00402317: 5D                   pop ebp
0x00402318: C3                   ret
0x00402319: B0 01                mov al, 1
0x0040231B: 5E                   pop esi
0x0040231C: 5D                   pop ebp
0x0040231D: C3                   ret
0x0040231E: CC                   int3
0x0040231F: CC                   int3
0x00402320: 55                   push ebp
0x00402321: 8B EC                mov ebp, esp
0x00402323: 8B 45 10             mov eax, dword ptr [ebp + 0x10]
0x00402326: 81 EC 00 01 00 00    sub esp, 0x100
0x0040232C: 56                   push esi
0x0040232D: 50                   push eax
0x0040232E: E8 9D CD 36 00       call 0x76f0d0
0x00402333: 8B F0                mov esi, eax
0x00402335: C1 E6 14             shl esi, 0x14
0x00402338: E8 43 3E 0B 00       call 0x4b6180
0x0040233D: 85 F6                test esi, esi
0x0040233F: 7C 3E                jl 0x40237f
0x00402341: 3B F0                cmp esi, eax
0x00402343: 7F 3A                jg 0x40237f
0x00402345: 8B CE                mov ecx, esi
0x00402347: C1 F9 14             sar ecx, 0x14
0x0040234A: 51                   push ecx
0x0040234B: 68 A4 16 9E 00       push 0x9e16a4
0x00402350: 8D 95 00 FF FF FF    lea edx, [ebp - 0x100]
0x00402356: 68 00 01 00 00       push 0x100
0x0040235B: 52                   push edx
0x0040235C: E8 0F CD 36 00       call 0x76f070
0x00402361: 8D 85 00 FF FF FF    lea eax, [ebp - 0x100]
0x00402367: 6A 00                push 0
0x00402369: 50                   push eax
0x0040236A: E8 01 2F 36 00       call 0x765270
0x0040236F: 56                   push esi
0x00402370: E8 0B 42 0B 00       call 0x4b6580
0x00402375: 83 C4 1C             add esp, 0x1c
0x00402378: B0 01                mov al, 1
0x0040237A: 5E                   pop esi
0x0040237B: 8B E5                mov esp, ebp
0x0040237D: 5D                   pop ebp
0x0040237E: C3                   ret
0x0040237F: C1 F8 14             sar eax, 0x14
0x00402382: 50                   push eax
0x00402383: C1 FE 14             sar esi, 0x14
0x00402386: 56                   push esi
0x00402387: 68 50 16 9E 00       push 0x9e1650
0x0040238C: 8D 8D 00 FF FF FF    lea ecx, [ebp - 0x100]
0x00402392: 68 00 01 00 00       push 0x100
0x00402397: 51                   push ecx
0x00402398: E8 D3 CC 36 00       call 0x76f070
0x0040239D: 8D 95 00 FF FF FF    lea edx, [ebp - 0x100]
0x004023A3: 6A 00                push 0
0x004023A5: 52                   push edx
0x004023A6: E8 C5 2E 36 00       call 0x765270
0x004023AB: 83 C4 1C             add esp, 0x1c
0x004023AE: 32 C0                xor al, al
0x004023B0: 5E                   pop esi
0x004023B1: 8B E5                mov esp, ebp
0x004023B3: 5D                   pop ebp
0x004023B4: C3                   ret
0x004023B5: CC                   int3
0x004023B6: CC                   int3
0x004023B7: CC                   int3
0x004023B8: CC                   int3
0x004023B9: CC                   int3
0x004023BA: CC                   int3
0x004023BB: CC                   int3
0x004023BC: CC                   int3
0x004023BD: CC                   int3
0x004023BE: CC                   int3
0x004023BF: CC                   int3
0x004023C0: 55                   push ebp
0x004023C1: 8B EC                mov ebp, esp
0x004023C3: 8B 45 10             mov eax, dword ptr [ebp + 0x10]
0x004023C6: 81 EC 00 01 00 00    sub esp, 0x100
0x004023CC: 50                   push eax
0x004023CD: E8 FE CC 36 00       call 0x76f0d0
0x004023D2: 85 C0                test eax, eax
0x004023D4: 7C 0B                jl 0x4023e1
0x004023D6: 83 F8 06             cmp eax, 6
0x004023D9: 73 06                jae 0x4023e1
0x004023DB: B0 01                mov al, 1
0x004023DD: 8B E5                mov esp, ebp
0x004023DF: 5D                   pop ebp
0x004023E0: C3                   ret
0x004023E1: 6A 06                push 6
0x004023E3: 68 C8 16 9E 00       push 0x9e16c8
0x004023E8: 8D 8D 00 FF FF FF    lea ecx, [ebp - 0x100]
0x004023EE: 68 00 01 00 00       push 0x100
0x004023F3: 51                   push ecx
0x004023F4: E8 77 CC 36 00       call 0x76f070
0x004023F9: 8D 95 00 FF FF FF    lea edx, [ebp - 0x100]
0x004023FF: 6A 00                push 0
0x00402401: 52                   push edx
0x00402402: E8 69 2E 36 00       call 0x765270
0x00402407: 83 C4 18             add esp, 0x18
0x0040240A: 32 C0                xor al, al
0x0040240C: 8B E5                mov esp, ebp
0x0040240E: 5D                   pop ebp
0x0040240F: C3                   ret
0x00402410: 55                   push ebp
0x00402411: 8B EC                mov ebp, esp
0x00402413: 8B 45 10             mov eax, dword ptr [ebp + 0x10]
0x00402416: 56                   push esi
0x00402417: 50                   push eax
0x00402418: E8 B3 CC 36 00       call 0x76f0d0
0x0040241D: 8B F0                mov esi, eax
0x0040241F: E8 8C 9C 41 00       call 0x81c0b0
0x00402424: 85 F6                test esi, esi
0x00402426: 5E                   pop esi
0x00402427: 74 1C                je 0x402445
0x00402429: 83 C8 20             or eax, 0x20
0x0040242C: 50                   push eax
0x0040242D: E8 8E 9C 41 00       call 0x81c0c0
0x00402432: 6A 00                push 0
0x00402434: 68 18 17 9E 00       push 0x9e1718
0x00402439: E8 32 2E 36 00       call 0x765270
0x0040243E: B0 01                mov al, 1
0x00402440: 83 C4 0C             add esp, 0xc
0x00402443: 5D                   pop ebp
0x00402444: C3                   ret
0x00402445: 83 E0 DF             and eax, 0xffffffdf
0x00402448: 50                   push eax
0x00402449: E8 72 9C 41 00       call 0x81c0c0
0x0040244E: 6A 00                push 0
0x00402450: 68 FC 16 9E 00       push 0x9e16fc
0x00402455: E8 16 2E 36 00       call 0x765270
0x0040245A: B0 01                mov al, 1
0x0040245C: 83 C4 0C             add esp, 0xc
0x0040245F: 5D                   pop ebp
0x00402460: C3                   ret
0x00402461: CC                   int3
0x00402462: CC                   int3
0x00402463: CC                   int3
0x00402464: CC                   int3
0x00402465: CC                   int3
0x00402466: CC                   int3
0x00402467: CC                   int3
0x00402468: CC                   int3
0x00402469: CC                   int3
0x0040246A: CC                   int3
0x0040246B: CC                   int3
0x0040246C: CC                   int3
0x0040246D: CC                   int3
0x0040246E: CC                   int3
0x0040246F: CC                   int3
0x00402470: 55                   push ebp
0x00402471: 8B EC                mov ebp, esp
0x00402473: 8B 45 10             mov eax, dword ptr [ebp + 0x10]
0x00402476: 56                   push esi
0x00402477: 50                   push eax
0x00402478: E8 53 CC 36 00       call 0x76f0d0
0x0040247D: 8B F0                mov esi, eax
0x0040247F: E8 2C 9C 41 00       call 0x81c0b0
0x00402484: 85 F6                test esi, esi
0x00402486: 5E                   pop esi
0x00402487: 74 1E                je 0x4024a7
0x00402489: 0D 80 00 00 00       or eax, 0x80
0x0040248E: 50                   push eax
0x0040248F: E8 2C 9C 41 00       call 0x81c0c0
0x00402494: 6A 00                push 0
0x00402496: 68 50 17 9E 00       push 0x9e1750
0x0040249B: E8 D0 2D 36 00       call 0x765270
0x004024A0: B0 01                mov al, 1
0x004024A2: 83 C4 0C             add esp, 0xc
0x004024A5: 5D                   pop ebp
0x004024A6: C3                   ret
0x004024A7: 25 7F FF FF FF       and eax, 0xffffff7f
0x004024AC: 50                   push eax
0x004024AD: E8 0E 9C 41 00       call 0x81c0c0
0x004024B2: 6A 00                push 0
0x004024B4: 68 34 17 9E 00       push 0x9e1734
0x004024B9: E8 B2 2D 36 00       call 0x765270
0x004024BE: B0 01                mov al, 1
0x004024C0: 83 C4 0C             add esp, 0xc
0x004024C3: 5D                   pop ebp
0x004024C4: C3                   ret
0x004024C5: CC                   int3
0x004024C6: CC                   int3
0x004024C7: CC                   int3
0x004024C8: CC                   int3
0x004024C9: CC                   int3
0x004024CA: CC                   int3
0x004024CB: CC                   int3
0x004024CC: CC                   int3
0x004024CD: CC                   int3
0x004024CE: CC                   int3
0x004024CF: CC                   int3
0x004024D0: 55                   push ebp
0x004024D1: 8B EC                mov ebp, esp
0x004024D3: 8B 45 10             mov eax, dword ptr [ebp + 0x10]
0x004024D6: 56                   push esi
0x004024D7: 50                   push eax
0x004024D8: E8 F3 CB 36 00       call 0x76f0d0
0x004024DD: 8B F0                mov esi, eax
0x004024DF: E8 CC 9B 41 00       call 0x81c0b0
0x004024E4: 85 F6                test esi, esi
0x004024E6: 5E                   pop esi
0x004024E7: 74 1E                je 0x402507
0x004024E9: 0D 00 01 00 00       or eax, 0x100
0x004024EE: 50                   push eax
0x004024EF: E8 CC 9B 41 00       call 0x81c0c0
0x004024F4: 6A 00                push 0
0x004024F6: 68 88 17 9E 00       push 0x9e1788
0x004024FB: E8 70 2D 36 00       call 0x765270
0x00402500: B0 01                mov al, 1
0x00402502: 83 C4 0C             add esp, 0xc
0x00402505: 5D                   pop ebp
0x00402506: C3                   ret
0x00402507: 25 FF FE FF FF       and eax, 0xfffffeff
0x0040250C: 50                   push eax
0x0040250D: E8 AE 9B 41 00       call 0x81c0c0
0x00402512: 6A 00                push 0
0x00402514: 68 6C 17 9E 00       push 0x9e176c
0x00402519: E8 52 2D 36 00       call 0x765270
0x0040251E: B0 01                mov al, 1
0x00402520: 83 C4 0C             add esp, 0xc
0x00402523: 5D                   pop ebp
0x00402524: C3                   ret
0x00402525: CC                   int3
0x00402526: CC                   int3
0x00402527: CC                   int3
0x00402528: CC                   int3
0x00402529: CC                   int3
0x0040252A: CC                   int3
0x0040252B: CC                   int3
0x0040252C: CC                   int3
0x0040252D: CC                   int3
0x0040252E: CC                   int3
0x0040252F: CC                   int3
0x00402530: 55                   push ebp
0x00402531: 8B EC                mov ebp, esp
0x00402533: E8 F8 77 36 00       call 0x769d30
0x00402538: 8B 4D 08             mov ecx, dword ptr [ebp + 8]
0x0040253B: 85 C9                test ecx, ecx
0x0040253D: 75 78                jne 0x4025b7
0x0040253F: 8B 0D 20 F0 B2 00    mov ecx, dword ptr [0xb2f020]
0x00402545: 85 C9                test ecx, ecx
0x00402547: 74 1D                je 0x402566
0x00402549: 6A 01                push 1
0x0040254B: 6A 00                push 0
0x0040254D: 6A 00                push 0
0x0040254F: 6A 01                push 1
0x00402551: 68 A0 14 9E 00       push 0x9e14a0
0x00402556: E8 65 43 36 00       call 0x7668c0
0x0040255B: 8B 0D 20 F0 B2 00    mov ecx, dword ptr [0xb2f020]
0x00402561: E8 4A 45 36 00       call 0x766ab0
0x00402566: 8B 0D 24 F0 B2 00    mov ecx, dword ptr [0xb2f024]
0x0040256C: 85 C9                test ecx, ecx
0x0040256E: 74 1D                je 0x40258d
0x00402570: 6A 01                push 1
0x00402572: 6A 00                push 0
0x00402574: 6A 00                push 0
0x00402576: 6A 01                push 1
0x00402578: 68 40 13 9E 00       push 0x9e1340
0x0040257D: E8 3E 43 36 00       call 0x7668c0
0x00402582: 8B 0D 24 F0 B2 00    mov ecx, dword ptr [0xb2f024]
0x00402588: E8 23 45 36 00       call 0x766ab0
0x0040258D: 68 F4 17 9E 00       push 0x9e17f4
0x00402592: E8 A9 4E 36 00       call 0x767440
0x00402597: 83 C4 04             add esp, 4
0x0040259A: 85 C0                test eax, eax
0x0040259C: 0F 84 BF 00 00 00    je 0x402661
0x004025A2: 8B 48 40             mov ecx, dword ptr [eax + 0x40]
0x004025A5: 6A 01                push 1
0x004025A7: 6A 00                push 0
0x004025A9: 6A 00                push 0
0x004025AB: 6A 01                push 1
0x004025AD: 51                   push ecx
0x004025AE: 8B C8                mov ecx, eax
0x004025B0: E8 0B 43 36 00       call 0x7668c0
0x004025B5: 5D                   pop ebp
0x004025B6: C3                   ret
0x004025B7: 83 F9 01             cmp ecx, 1
0x004025BA: 75 34                jne 0x4025f0
0x004025BC: 8B 0D 00 FA B2 00    mov ecx, dword ptr [0xb2fa00]
0x004025C2: 85 C9                test ecx, ecx
0x004025C4: 0F 84 97 00 00 00    je 0x402661
0x004025CA: 80 78 11 00          cmp byte ptr [eax + 0x11], 0
0x004025CE: 6A 01                push 1
0x004025D0: 6A 00                push 0
0x004025D2: 6A 00                push 0
0x004025D4: 6A 01                push 1
0x004025D6: 74 0C                je 0x4025e4
0x004025D8: 68 64 14 9E 00       push 0x9e1464
0x004025DD: E8 DE 42 36 00       call 0x7668c0
0x004025E2: 5D                   pop ebp
0x004025E3: C3                   ret
0x004025E4: 68 A0 14 9E 00       push 0x9e14a0
0x004025E9: E8 D2 42 36 00       call 0x7668c0
0x004025EE: 5D                   pop ebp
0x004025EF: C3                   ret
0x004025F0: 83 F9 02             cmp ecx, 2
0x004025F3: 75 6C                jne 0x402661
0x004025F5: 68 E4 17 9E 00       push 0x9e17e4
0x004025FA: E8 41 4E 36 00       call 0x767440
0x004025FF: 83 C4 04             add esp, 4
0x00402602: 85 C0                test eax, eax
0x00402604: 74 13                je 0x402619
0x00402606: 8B 50 40             mov edx, dword ptr [eax + 0x40]
0x00402609: 6A 01                push 1
0x0040260B: 6A 00                push 0
0x0040260D: 6A 00                push 0
0x0040260F: 6A 01                push 1
0x00402611: 52                   push edx
0x00402612: 8B C8                mov ecx, eax
0x00402614: E8 A7 42 36 00       call 0x7668c0
0x00402619: 68 D0 17 9E 00       push 0x9e17d0
0x0040261E: E8 1D 4E 36 00       call 0x767440
0x00402623: 83 C4 04             add esp, 4
0x00402626: 85 C0                test eax, eax
0x00402628: 74 13                je 0x40263d
0x0040262A: 8B 48 40             mov ecx, dword ptr [eax + 0x40]
0x0040262D: 6A 01                push 1
0x0040262F: 6A 00                push 0
0x00402631: 6A 00                push 0
0x00402633: 6A 01                push 1
0x00402635: 51                   push ecx
0x00402636: 8B C8                mov ecx, eax
0x00402638: E8 83 42 36 00       call 0x7668c0
0x0040263D: 68 BC 17 9E 00       push 0x9e17bc
0x00402642: E8 F9 4D 36 00       call 0x767440
0x00402647: 83 C4 04             add esp, 4
0x0040264A: 85 C0                test eax, eax
0x0040264C: 74 13                je 0x402661
0x0040264E: 8B 50 40             mov edx, dword ptr [eax + 0x40]
0x00402651: 6A 01                push 1
0x00402653: 6A 00                push 0
0x00402655: 6A 00                push 0
0x00402657: 6A 01                push 1
0x00402659: 52                   push edx
0x0040265A: 8B C8                mov ecx, eax
0x0040265C: E8 5F 42 36 00       call 0x7668c0
0x00402661: 5D                   pop ebp
0x00402662: C3                   ret
0x00402663: CC                   int3
0x00402664: CC                   int3
0x00402665: CC                   int3
0x00402666: CC                   int3
0x00402667: CC                   int3
0x00402668: CC                   int3
0x00402669: CC                   int3
0x0040266A: CC                   int3
0x0040266B: CC                   int3
0x0040266C: CC                   int3
0x0040266D: CC                   int3
0x0040266E: CC                   int3
0x0040266F: CC                   int3
0x00402670: 55                   push ebp
0x00402671: 8B EC                mov ebp, esp
0x00402673: 8B 45 10             mov eax, dword ptr [ebp + 0x10]
0x00402676: 50                   push eax
0x00402677: E8 54 CA 36 00       call 0x76f0d0
0x0040267C: 83 F8 64             cmp eax, 0x64
0x0040267F: 0F 96 C0             setbe al
0x00402682: 5D                   pop ebp
0x00402683: C3                   ret
0x00402684: CC                   int3
0x00402685: CC                   int3
0x00402686: CC                   int3
0x00402687: CC                   int3
0x00402688: CC                   int3
0x00402689: CC                   int3
0x0040268A: CC                   int3
0x0040268B: CC                   int3
0x0040268C: CC                   int3
0x0040268D: CC                   int3
0x0040268E: CC                   int3
0x0040268F: CC                   int3
0x00402690: 55                   push ebp
0x00402691: 8B EC                mov ebp, esp
0x00402693: 8B 45 10             mov eax, dword ptr [ebp + 0x10]
0x00402696: 50                   push eax
0x00402697: E8 34 CA 36 00       call 0x76f0d0
0x0040269C: 83 C0 EC             add eax, -0x14
0x0040269F: 3D E6 00 00 00       cmp eax, 0xe6
0x004026A4: 0F 96 C0             setbe al
0x004026A7: 5D                   pop ebp
0x004026A8: C3                   ret
0x004026A9: CC                   int3
0x004026AA: CC                   int3
0x004026AB: CC                   int3
0x004026AC: CC                   int3
0x004026AD: CC                   int3
0x004026AE: CC                   int3
0x004026AF: CC                   int3
0x004026B0: 6A 00                push 0
0x004026B2: 6A 00                push 0
0x004026B4: 6A 00                push 0
0x004026B6: 6A 00                push 0
0x004026B8: 68 70 26 40 00       push 0x402670
0x004026BD: 68 A0 14 9E 00       push 0x9e14a0
0x004026C2: 6A 01                push 1
0x004026C4: 68 64 18 9E 00       push 0x9e1864
0x004026C9: 68 50 18 9E 00       push 0x9e1850
0x004026CE: E8 ED 58 36 00       call 0x767fc0
0x004026D3: 6A 00                push 0
0x004026D5: 6A 00                push 0
0x004026D7: 6A 00                push 0
0x004026D9: 6A 00                push 0
0x004026DB: 68 90 26 40 00       push 0x402690
0x004026E0: 68 4C 18 9E 00       push 0x9e184c
0x004026E5: 6A 01                push 1
0x004026E7: 68 1C 18 9E 00       push 0x9e181c
0x004026EC: 68 08 18 9E 00       push 0x9e1808
0x004026F1: A3 04 FA B2 00       mov dword ptr [0xb2fa04], eax
0x004026F6: E8 C5 58 36 00       call 0x767fc0
0x004026FB: 8B 0D 04 FA B2 00    mov ecx, dword ptr [0xb2fa04]
0x00402701: A3 08 FA B2 00       mov dword ptr [0xb2fa08], eax
0x00402706: 8B 40 30             mov eax, dword ptr [eax + 0x30]
0x00402709: 8B 51 30             mov edx, dword ptr [ecx + 0x30]
0x0040270C: 83 C4 48             add esp, 0x48
0x0040270F: 50                   push eax
0x00402710: 52                   push edx
0x00402711: E8 2A 83 0B 00       call 0x4baa40
0x00402716: 83 C4 08             add esp, 8
0x00402719: C3                   ret
0x0040271A: CC                   int3
0x0040271B: CC                   int3
0x0040271C: CC                   int3
0x0040271D: CC                   int3
0x0040271E: CC                   int3
0x0040271F: CC                   int3
0x00402720: 55                   push ebp
0x00402721: 8B EC                mov ebp, esp
0x00402723: 8B 45 08             mov eax, dword ptr [ebp + 8]
0x00402726: 6A 00                push 0
0x00402728: 68 EF 0B 00 00       push 0xbef
0x0040272D: 68 94 0E 9E 00       push 0x9e0e94
0x00402732: 50                   push eax
0x00402733: E8 08 BE 36 00       call 0x76e540
0x00402738: 5D                   pop ebp
0x00402739: C3                   ret
0x0040273A: CC                   int3
0x0040273B: CC                   int3
0x0040273C: CC                   int3
0x0040273D: CC                   int3
0x0040273E: CC                   int3
0x0040273F: CC                   int3
0x00402740: 55                   push ebp
0x00402741: 8B EC                mov ebp, esp
0x00402743: 8B 45 08             mov eax, dword ptr [ebp + 8]
0x00402746: 6A 00                push 0
0x00402748: 68 F3 0B 00 00       push 0xbf3
0x0040274D: 68 94 0E 9E 00       push 0x9e0e94
0x00402752: 50                   push eax
0x00402753: E8 48 BE 36 00       call 0x76e5a0
0x00402758: 5D                   pop ebp
0x00402759: C3                   ret
0x0040275A: CC                   int3
0x0040275B: CC                   int3
0x0040275C: CC                   int3
0x0040275D: CC                   int3
0x0040275E: CC                   int3
0x0040275F: CC                   int3
0x00402760: 6A 00                push 0
0x00402762: 6A 00                push 0
0x00402764: 6A 00                push 0
0x00402766: 6A 01                push 1
0x00402768: 6A 00                push 0
0x0040276A: 68 64 14 9E 00       push 0x9e1464
0x0040276F: 6A 00                push 0
0x00402771: 68 5C 1A 9E 00       push 0x9e1a5c
0x00402776: 68 50 1A 9E 00       push 0x9e1a50
0x0040277B: E8 40 58 36 00       call 0x767fc0
0x00402780: 6A 00                push 0
0x00402782: 6A 00                push 0
0x00402784: 6A 00                push 0
0x00402786: 6A 01                push 1
0x00402788: 6A 00                push 0
0x0040278A: 68 64 14 9E 00       push 0x9e1464
0x0040278F: 6A 00                push 0
0x00402791: 68 20 1A 9E 00       push 0x9e1a20
0x00402796: 68 10 1A 9E 00       push 0x9e1a10
0x0040279B: A3 14 F0 B2 00       mov dword ptr [0xb2f014], eax
0x004027A0: E8 1B 58 36 00       call 0x767fc0
0x004027A5: 83 C4 48             add esp, 0x48
0x004027A8: 6A 00                push 0
0x004027AA: 6A 00                push 0
0x004027AC: 6A 00                push 0
0x004027AE: 6A 01                push 1
0x004027B0: 6A 00                push 0
0x004027B2: 68 64 14 9E 00       push 0x9e1464
0x004027B7: 6A 00                push 0
0x004027B9: 68 F0 19 9E 00       push 0x9e19f0
0x004027BE: 68 E0 19 9E 00       push 0x9e19e0
0x004027C3: A3 10 F0 B2 00       mov dword ptr [0xb2f010], eax
0x004027C8: E8 F3 57 36 00       call 0x767fc0
0x004027CD: 6A 00                push 0
0x004027CF: 6A 00                push 0
0x004027D1: 6A 00                push 0
0x004027D3: 6A 01                push 1
0x004027D5: 68 10 24 40 00       push 0x402410
0x004027DA: 68 64 14 9E 00       push 0x9e1464
0x004027DF: 6A 00                push 0
0x004027E1: 68 B8 19 9E 00       push 0x9e19b8
0x004027E6: 68 A8 19 9E 00       push 0x9e19a8
0x004027EB: A3 0C F0 B2 00       mov dword ptr [0xb2f00c], eax
0x004027F0: E8 CB 57 36 00       call 0x767fc0
0x004027F5: 83 C4 48             add esp, 0x48
0x004027F8: 6A 00                push 0
0x004027FA: 6A 00                push 0
0x004027FC: 6A 00                push 0
0x004027FE: 6A 01                push 1
0x00402800: 68 70 24 40 00       push 0x402470
0x00402805: 68 64 14 9E 00       push 0x9e1464
0x0040280A: 6A 00                push 0
0x0040280C: 68 78 19 9E 00       push 0x9e1978
0x00402811: 68 64 19 9E 00       push 0x9e1964
0x00402816: A3 08 F0 B2 00       mov dword ptr [0xb2f008], eax
0x0040281B: E8 A0 57 36 00       call 0x767fc0
0x00402820: 6A 00                push 0
0x00402822: 6A 00                push 0
0x00402824: 6A 00                push 0
0x00402826: 6A 01                push 1
0x00402828: 68 D0 24 40 00       push 0x4024d0
0x0040282D: 68 A0 14 9E 00       push 0x9e14a0
0x00402832: 6A 00                push 0
0x00402834: 68 28 19 9E 00       push 0x9e1928
0x00402839: 68 0C 19 9E 00       push 0x9e190c
0x0040283E: A3 04 F0 B2 00       mov dword ptr [0xb2f004], eax
0x00402843: E8 78 57 36 00       call 0x767fc0
0x00402848: 83 C4 48             add esp, 0x48
0x0040284B: 6A 00                push 0
0x0040284D: 6A 00                push 0
0x0040284F: 6A 00                push 0
0x00402851: 6A 01                push 1
0x00402853: 68 C0 21 40 00       push 0x4021c0
0x00402858: 68 64 14 9E 00       push 0x9e1464
0x0040285D: 6A 00                push 0
0x0040285F: 68 D8 18 9E 00       push 0x9e18d8
0x00402864: 68 CC 18 9E 00       push 0x9e18cc
0x00402869: A3 00 F0 B2 00       mov dword ptr [0xb2f000], eax
0x0040286E: E8 4D 57 36 00       call 0x767fc0
0x00402873: A3 1C F0 B2 00       mov dword ptr [0xb2f01c], eax
0x00402878: 6A 00                push 0
0x0040287A: 6A 00                push 0
0x0040287C: 6A 00                push 0
0x0040287E: 6A 01                push 1
0x00402880: 68 10 22 40 00       push 0x402210
0x00402885: 68 A0 14 9E 00       push 0x9e14a0
0x0040288A: 6A 00                push 0
0x0040288C: 68 9C 18 9E 00       push 0x9e189c
0x00402891: 68 8C 18 9E 00       push 0x9e188c
0x00402896: E8 25 57 36 00       call 0x767fc0
0x0040289B: 8B 0D 14 F0 B2 00    mov ecx, dword ptr [0xb2f014]
0x004028A1: A3 18 F0 B2 00       mov dword ptr [0xb2f018], eax
0x004028A6: 33 C0                xor eax, eax
0x004028A8: 83 C4 48             add esp, 0x48
0x004028AB: 39 41 30             cmp dword ptr [ecx + 0x30], eax
0x004028AE: 74 05                je 0x4028b5
0x004028B0: B8 01 00 00 00       mov eax, 1
0x004028B5: 8B 15 10 F0 B2 00    mov edx, dword ptr [0xb2f010]
0x004028BB: 83 7A 30 00          cmp dword ptr [edx + 0x30], 0
0x004028BF: 74 03                je 0x4028c4
0x004028C1: 83 C8 02             or eax, 2
0x004028C4: 8B 0D 0C F0 B2 00    mov ecx, dword ptr [0xb2f00c]
0x004028CA: 83 79 30 00          cmp dword ptr [ecx + 0x30], 0
0x004028CE: 74 03                je 0x4028d3
0x004028D0: 83 C8 04             or eax, 4
0x004028D3: 8B 15 08 F0 B2 00    mov edx, dword ptr [0xb2f008]
0x004028D9: 83 7A 30 00          cmp dword ptr [edx + 0x30], 0
0x004028DD: 74 03                je 0x4028e2
0x004028DF: 83 C8 20             or eax, 0x20
0x004028E2: 8B 0D 04 F0 B2 00    mov ecx, dword ptr [0xb2f004]
0x004028E8: 83 79 30 00          cmp dword ptr [ecx + 0x30], 0
0x004028EC: 74 05                je 0x4028f3
0x004028EE: 0D 80 00 00 00       or eax, 0x80
0x004028F3: 8B 15 00 F0 B2 00    mov edx, dword ptr [0xb2f000]
0x004028F9: 83 7A 30 00          cmp dword ptr [edx + 0x30], 0
0x004028FD: 74 05                je 0x402904
0x004028FF: 0D 00 01 00 00       or eax, 0x100
0x00402904: 83 C8 08             or eax, 8
0x00402907: C3                   ret
0x00402908: CC                   int3
0x00402909: CC                   int3
0x0040290A: CC                   int3
0x0040290B: CC                   int3
0x0040290C: CC                   int3
0x0040290D: CC                   int3
0x0040290E: CC                   int3
0x0040290F: CC                   int3
0x00402910: E8 9B F8 3D 00       call 0x7e21b0
0x00402915: E8 96 D8 3D 00       call 0x7e01b0
0x0040291A: E8 A1 A2 3F 00       call 0x7fcbc0
0x0040291F: E8 0C AB 1F 00       call 0x5fd430
0x00402924: E8 97 92 0D 00       call 0x4dbbc0
0x00402929: E8 82 4F 1F 00       call 0x5f78b0
0x0040292E: E8 7D 15 1F 00       call 0x5f3eb0
0x00402933: E8 A8 2C 23 00       call 0x6355e0
0x00402938: E8 03 2C 23 00       call 0x635540
0x0040293D: E8 2E C2 1E 00       call 0x5eeb70
0x00402942: E8 79 7A 2F 00       call 0x6fa3c0
0x00402947: E8 D4 F9 0E 00       call 0x4f2320
0x0040294C: E8 3F 02 41 00       call 0x812b90
0x00402951: E8 4A 02 41 00       call 0x812ba0
0x00402956: E8 A5 CF 3D 00       call 0x7df900
0x0040295B: E8 E0 01 2F 00       call 0x6f2b40
0x00402960: 6A 00                push 0
0x00402962: E8 C9 38 0C 00       call 0x4c6230
0x00402967: 83 C4 04             add esp, 4
0x0040296A: E8 31 80 41 00       call 0x81a9a0
0x0040296F: B9 E4 D5 B1 00       mov ecx, 0xb1d5e4
0x00402974: E8 97 4D 47 00       call 0x877710
0x00402979: E8 A2 6C 00 00       call 0x409620
0x0040297E: E8 9D 89 00 00       call 0x40b320
0x00402983: 68 08 15 9E 00       push 0x9e1508
0x00402988: E8 53 60 36 00       call 0x7689e0
0x0040298D: 68 00 15 9E 00       push 0x9e1500
0x00402992: E8 49 60 36 00       call 0x7689e0
0x00402997: 68 14 15 9E 00       push 0x9e1514
0x0040299C: E8 3F 60 36 00       call 0x7689e0
0x004029A1: 83 C4 0C             add esp, 0xc
0x004029A4: E8 B7 22 23 00       call 0x634c60
0x004029A9: E9 E2 26 0B 00       jmp 0x4b5090
0x004029AE: CC                   int3
0x004029AF: CC                   int3
0x004029B0: 55                   push ebp
0x004029B1: 8B EC                mov ebp, esp
0x004029B3: 51                   push ecx
0x004029B4: 53                   push ebx
0x004029B5: 8D 45 FC             lea eax, [ebp - 4]
0x004029B8: 57                   push edi
0x004029B9: 50                   push eax
0x004029BA: 32 DB                xor bl, bl
0x004029BC: C7 45 FC 00 00 00 00 mov dword ptr [ebp - 4], 0
0x004029C3: E8 F8 6A 02 00       call 0x4294c0
0x004029C8: 8B F8                mov edi, eax
0x004029CA: 83 C4 04             add esp, 4
0x004029CD: 85 FF                test edi, edi
0x004029CF: 74 64                je 0x402a35
0x004029D1: 8B 4D FC             mov ecx, dword ptr [ebp - 4]
0x004029D4: 56                   push esi
0x004029D5: 51                   push ecx
0x004029D6: 57                   push edi
0x004029D7: E8 B4 23 41 00       call 0x814d90
0x004029DC: 8B F0                mov esi, eax
0x004029DE: 83 C4 08             add esp, 8
0x004029E1: 85 F6                test esi, esi
0x004029E3: 74 40                je 0x402a25
0x004029E5: 56                   push esi
0x004029E6: E8 85 BD 4B 00       call 0x8be770
0x004029EB: 8B 48 08             mov ecx, dword ptr [eax + 8]
0x004029EE: 83 C4 04             add esp, 4
0x004029F1: 85 C9                test ecx, ecx
0x004029F3: 74 27                je 0x402a1c
0x004029F5: 68 80 1A 9E 00       push 0x9e1a80
0x004029FA: E8 F1 1C 41 00       call 0x8146f0
0x004029FF: 85 C0                test eax, eax
0x00402A01: 74 19                je 0x402a1c
0x00402A03: 8B 40 18             mov eax, dword ptr [eax + 0x18]
0x00402A06: 68 FF FF FF 7F       push 0x7fffffff
0x00402A0B: 68 78 1A 9E 00       push 0x9e1a78
0x00402A10: 50                   push eax
0x00402A11: E8 4A BD 36 00       call 0x76e760
0x00402A16: 85 C0                test eax, eax
0x00402A18: 75 02                jne 0x402a1c
0x00402A1A: B3 01                mov bl, 1
0x00402A1C: 56                   push esi
0x00402A1D: E8 3E 23 41 00       call 0x814d60
0x00402A22: 83 C4 04             add esp, 4
0x00402A25: 6A 00                push 0
0x00402A27: 6A FF                push -1
0x00402A29: 68 18 0E 9E 00       push 0x9e0e18
0x00402A2E: 57                   push edi
0x00402A2F: E8 6C BB 36 00       call 0x76e5a0
0x00402A34: 5E                   pop esi
0x00402A35: 5F                   pop edi
0x00402A36: 8A C3                mov al, bl
0x00402A38: 5B                   pop ebx
0x00402A39: 8B E5                mov esp, ebp
0x00402A3B: 5D                   pop ebp
0x00402A3C: C3                   ret
0x00402A3D: CC                   int3
0x00402A3E: CC                   int3
0x00402A3F: CC                   int3
0x00402A40: A0 E1 F9 B2 00       mov al, byte ptr [0xb2f9e1]
0x00402A45: C3                   ret
0x00402A46: CC                   int3
0x00402A47: CC                   int3
0x00402A48: CC                   int3
0x00402A49: CC                   int3
0x00402A4A: CC                   int3
0x00402A4B: CC                   int3
0x00402A4C: CC                   int3
0x00402A4D: CC                   int3
0x00402A4E: CC                   int3
0x00402A4F: CC                   int3
0x00402A50: E8 EB F6 01 00       call 0x422140
0x00402A55: 85 C0                test eax, eax
0x00402A57: 75 01                jne 0x402a5a
0x00402A59: C3                   ret
0x00402A5A: 80 3D 48 FA B2 00 00 cmp byte ptr [0xb2fa48], 0
0x00402A61: 75 34                jne 0x402a97
0x00402A63: E8 48 FF FF FF       call 0x4029b0
0x00402A68: 84 C0                test al, al
0x00402A6A: 68 00 04 00 00       push 0x400
0x00402A6F: 68 48 FA B2 00       push 0xb2fa48
0x00402A74: 6A 01                push 1
0x00402A76: 68 B4 1A 9E 00       push 0x9e1ab4
0x00402A7B: 74 10                je 0x402a8d
0x00402A7D: 68 9C 1A 9E 00       push 0x9e1a9c
0x00402A82: E8 99 DC 36 00       call 0x770720
0x00402A87: B8 48 FA B2 00       mov eax, 0xb2fa48
0x00402A8C: C3                   ret
0x00402A8D: 68 88 1A 9E 00       push 0x9e1a88
0x00402A92: E8 89 DC 36 00       call 0x770720
0x00402A97: B8 48 FA B2 00       mov eax, 0xb2fa48
0x00402A9C: C3                   ret
0x00402A9D: CC                   int3
0x00402A9E: CC                   int3
0x00402A9F: CC                   int3
0x00402AA0: 55                   push ebp
0x00402AA1: 8B EC                mov ebp, esp
0x00402AA3: 83 F8 02             cmp eax, 2
0x00402AA6: 75 2B                jne 0x402ad3
0x00402AA8: E8 A3 FF FF FF       call 0x402a50
0x00402AAD: 85 C0                test eax, eax
0x00402AAF: 75 04                jne 0x402ab5
0x00402AB1: 32 C0                xor al, al
0x00402AB3: 5D                   pop ebp
0x00402AB4: C3                   ret
0x00402AB5: A1 60 61 AB 00       mov eax, dword ptr [0xab6160]
0x00402ABA: 57                   push edi
0x00402ABB: 50                   push eax
0x00402ABC: E8 8F FF FF FF       call 0x402a50
0x00402AC1: 50                   push eax
0x00402AC2: 68 D8 1A 9E 00       push 0x9e1ad8
0x00402AC7: 53                   push ebx
0x00402AC8: 56                   push esi
0x00402AC9: E8 A2 C5 36 00       call 0x76f070
0x00402ACE: 83 C4 18             add esp, 0x18
0x00402AD1: EB 18                jmp 0x402aeb
0x00402AD3: 8B 0C 85 58 61 AB 00 mov ecx, dword ptr [eax*4 + 0xab6158]
0x00402ADA: 57                   push edi
0x00402ADB: 51                   push ecx
0x00402ADC: 68 D0 1A 9E 00       push 0x9e1ad0
0x00402AE1: 53                   push ebx
0x00402AE2: 56                   push esi
0x00402AE3: E8 88 C5 36 00       call 0x76f070
0x00402AE8: 83 C4 14             add esp, 0x14
0x00402AEB: 68 C8 1A 9E 00       push 0x9e1ac8
0x00402AF0: 56                   push esi
0x00402AF1: E8 0A CC 36 00       call 0x76f700
0x00402AF6: 83 C4 08             add esp, 8
0x00402AF9: 85 C0                test eax, eax
0x00402AFB: 74 1C                je 0x402b19
0x00402AFD: 8D 49 00             lea ecx, [ecx]
0x00402B00: 8B 55 08             mov edx, dword ptr [ebp + 8]
0x00402B03: 8B 0A                mov ecx, dword ptr [edx]
0x00402B05: 68 C8 1A 9E 00       push 0x9e1ac8
0x00402B0A: 56                   push esi
0x00402B0B: 89 08                mov dword ptr [eax], ecx
0x00402B0D: E8 EE CB 36 00       call 0x76f700
0x00402B12: 83 C4 08             add esp, 8
0x00402B15: 85 C0                test eax, eax
0x00402B17: 75 E7                jne 0x402b00
0x00402B19: B0 01                mov al, 1
0x00402B1B: 5D                   pop ebp
0x00402B1C: C3                   ret
0x00402B1D: CC                   int3
0x00402B1E: CC                   int3
0x00402B1F: CC                   int3
0x00402B20: 55                   push ebp
0x00402B21: 8B EC                mov ebp, esp
0x00402B23: 81 EC 04 01 00 00    sub esp, 0x104
0x00402B29: 56                   push esi
0x00402B2A: E8 21 EC 01 00       call 0x421750
0x00402B2F: 6A 00                push 0
0x00402B31: E8 2A EC 01 00       call 0x421760
0x00402B36: 6A 02                push 2
0x00402B38: E8 C3 8B 07 00       call 0x47b700
0x00402B3D: 8B F0                mov esi, eax
0x00402B3F: 83 C4 04             add esp, 4
0x00402B42: 80 3E 00             cmp byte ptr [esi], 0
0x00402B45: 75 1A                jne 0x402b61
0x00402B47: 8D 85 FC FE FF FF    lea eax, [ebp - 0x104]
0x00402B4D: 68 04 01 00 00       push 0x104
0x00402B52: 50                   push eax
0x00402B53: E8 48 93 46 00       call 0x86bea0
0x00402B58: 83 C4 08             add esp, 8
0x00402B5B: 8D B5 FC FE FF FF    lea esi, [ebp - 0x104]
0x00402B61: 56                   push esi
0x00402B62: E8 49 F2 05 00       call 0x461db0
0x00402B67: 83 C4 04             add esp, 4
0x00402B6A: 56                   push esi
0x00402B6B: E8 10 EF 01 00       call 0x421a80
0x00402B70: 8B 0D 58 61 AB 00    mov ecx, dword ptr [0xab6158]
0x00402B76: 51                   push ecx
0x00402B77: C7 05 10 FA B2 00 00 00 00 00 mov dword ptr [0xb2fa10], 0
0x00402B81: E8 6A EF 01 00       call 0x421af0
0x00402B86: 5E                   pop esi
0x00402B87: 8B E5                mov esp, ebp
0x00402B89: 5D                   pop ebp
0x00402B8A: C3                   ret
0x00402B8B: CC                   int3
0x00402B8C: CC                   int3
0x00402B8D: CC                   int3
0x00402B8E: CC                   int3
0x00402B8F: CC                   int3
0x00402B90: 55                   push ebp
0x00402B91: 8B EC                mov ebp, esp
0x00402B93: 81 EC 00 0C 00 00    sub esp, 0xc00
0x00402B99: 68 FF 03 00 00       push 0x3ff
0x00402B9E: 8D 85 01 FC FF FF    lea eax, [ebp - 0x3ff]
0x00402BA4: 6A 00                push 0
0x00402BA6: 50                   push eax
0x00402BA7: C6 85 00 FC FF FF 00 mov byte ptr [ebp - 0x400], 0
0x00402BAE: E8 CD 8F 00 00       call 0x40bb80
0x00402BB3: 8B 0D 78 62 AB 00    mov ecx, dword ptr [0xab6278]
0x00402BB9: 8B 15 58 61 AB 00    mov edx, dword ptr [0xab6158]
0x00402BBF: 51                   push ecx
0x00402BC0: 52                   push edx
0x00402BC1: 68 D0 1A 9E 00       push 0x9e1ad0
0x00402BC6: 8D 85 00 F8 FF FF    lea eax, [ebp - 0x800]
0x00402BCC: 68 00 04 00 00       push 0x400
0x00402BD1: 50                   push eax
0x00402BD2: E8 99 C4 36 00       call 0x76f070
0x00402BD7: 8D 8D 00 F8 FF FF    lea ecx, [ebp - 0x800]
0x00402BDD: 68 C8 1A 9E 00       push 0x9e1ac8
0x00402BE2: 51                   push ecx
0x00402BE3: E8 18 CB 36 00       call 0x76f700
0x00402BE8: 83 C4 28             add esp, 0x28
0x00402BEB: 85 C0                test eax, eax
0x00402BED: 74 1F                je 0x402c0e
0x00402BEF: 90                   nop
0x00402BF0: 8D 95 00 F8 FF FF    lea edx, [ebp - 0x800]
0x00402BF6: 68 C8 1A 9E 00       push 0x9e1ac8
0x00402BFB: 52                   push edx
0x00402BFC: C7 00 2D 2D 2D 2D    mov dword ptr [eax], 0x2d2d2d2d
0x00402C02: E8 F9 CA 36 00       call 0x76f700
0x00402C07: 83 C4 08             add esp, 8
0x00402C0A: 85 C0                test eax, eax
0x00402C0C: 75 E2                jne 0x402bf0
0x00402C0E: A1 78 62 AB 00       mov eax, dword ptr [0xab6278]
0x00402C13: 8B 0D 5C 61 AB 00    mov ecx, dword ptr [0xab615c]
0x00402C19: 50                   push eax
0x00402C1A: 51                   push ecx
0x00402C1B: 68 D0 1A 9E 00       push 0x9e1ad0
0x00402C20: 8D 95 00 F4 FF FF    lea edx, [ebp - 0xc00]
0x00402C26: 68 00 04 00 00       push 0x400
0x00402C2B: 52                   push edx
0x00402C2C: E8 3F C4 36 00       call 0x76f070
0x00402C31: 8D 85 00 F4 FF FF    lea eax, [ebp - 0xc00]
0x00402C37: 68 C8 1A 9E 00       push 0x9e1ac8
0x00402C3C: 50                   push eax
0x00402C3D: E8 BE CA 36 00       call 0x76f700
0x00402C42: 83 C4 1C             add esp, 0x1c
0x00402C45: 85 C0                test eax, eax
0x00402C47: 74 25                je 0x402c6e
0x00402C49: 8D A4 24 00 00 00 00 lea esp, [esp]
0x00402C50: 8D 8D 00 F4 FF FF    lea ecx, [ebp - 0xc00]
0x00402C56: 68 C8 1A 9E 00       push 0x9e1ac8
0x00402C5B: 51                   push ecx
0x00402C5C: C7 00 2D 2D 2D 2D    mov dword ptr [eax], 0x2d2d2d2d
0x00402C62: E8 99 CA 36 00       call 0x76f700
0x00402C67: 83 C4 08             add esp, 8
0x00402C6A: 85 C0                test eax, eax
0x00402C6C: 75 E2                jne 0x402c50
0x00402C6E: 56                   push esi
0x00402C6F: 8B 35 78 62 AB 00    mov esi, dword ptr [0xab6278]
0x00402C75: E8 D6 FD FF FF       call 0x402a50
0x00402C7A: 85 C0                test eax, eax
0x00402C7C: 0F 84 8B 00 00 00    je 0x402d0d
0x00402C82: 8B 15 60 61 AB 00    mov edx, dword ptr [0xab6160]
0x00402C88: 56                   push esi
0x00402C89: 52                   push edx
0x00402C8A: E8 C1 FD FF FF       call 0x402a50
0x00402C8F: 50                   push eax
0x00402C90: 68 D8 1A 9E 00       push 0x9e1ad8
0x00402C95: 8D 85 00 FC FF FF    lea eax, [ebp - 0x400]
0x00402C9B: 68 00 04 00 00       push 0x400
0x00402CA0: 50                   push eax
0x00402CA1: E8 CA C3 36 00       call 0x76f070
0x00402CA6: 8D 8D 00 FC FF FF    lea ecx, [ebp - 0x400]
0x00402CAC: 68 C8 1A 9E 00       push 0x9e1ac8
0x00402CB1: 51                   push ecx
0x00402CB2: E8 49 CA 36 00       call 0x76f700
0x00402CB7: 83 C4 20             add esp, 0x20
0x00402CBA: 85 C0                test eax, eax
0x00402CBC: 74 20                je 0x402cde
0x00402CBE: 8B FF                mov edi, edi
0x00402CC0: 8D 95 00 FC FF FF    lea edx, [ebp - 0x400]
0x00402CC6: 68 C8 1A 9E 00       push 0x9e1ac8
0x00402CCB: 52                   push edx
0x00402CCC: C7 00 2D 2D 2D 2D    mov dword ptr [eax], 0x2d2d2d2d
0x00402CD2: E8 29 CA 36 00       call 0x76f700
0x00402CD7: 83 C4 08             add esp, 8
0x00402CDA: 85 C0                test eax, eax
0x00402CDC: 75 E2                jne 0x402cc0
0x00402CDE: 8D 85 00 F8 FF FF    lea eax, [ebp - 0x800]
0x00402CE4: 50                   push eax
0x00402CE5: E8 26 EE 05 00       call 0x461b10
0x00402CEA: 83 C4 04             add esp, 4
0x00402CED: 85 C0                test eax, eax
0x00402CEF: 75 47                jne 0x402d38
0x00402CF1: 8D 8D 00 F4 FF FF    lea ecx, [ebp - 0xc00]
0x00402CF7: 51                   push ecx
0x00402CF8: E8 13 EE 05 00       call 0x461b10
0x00402CFD: 83 C4 04             add esp, 4
0x00402D00: 85 C0                test eax, eax
0x00402D02: 75 34                jne 0x402d38
0x00402D04: 8D 95 00 FC FF FF    lea edx, [ebp - 0x400]
0x00402D0A: 52                   push edx
0x00402D0B: EB 1A                jmp 0x402d27
0x00402D0D: 8D 85 00 F8 FF FF    lea eax, [ebp - 0x800]
0x00402D13: 50                   push eax
0x00402D14: E8 F7 ED 05 00       call 0x461b10
0x00402D19: 83 C4 04             add esp, 4
0x00402D1C: 85 C0                test eax, eax
0x00402D1E: 75 18                jne 0x402d38
0x00402D20: 8D 8D 00 F4 FF FF    lea ecx, [ebp - 0xc00]
0x00402D26: 51                   push ecx
0x00402D27: E8 E4 ED 05 00       call 0x461b10
0x00402D2C: 83 C4 04             add esp, 4
0x00402D2F: 85 C0                test eax, eax
0x00402D31: 75 05                jne 0x402d38
0x00402D33: 5E                   pop esi
0x00402D34: 8B E5                mov esp, ebp
0x00402D36: 5D                   pop ebp
0x00402D37: C3                   ret
0x00402D38: B8 01 00 00 00       mov eax, 1
0x00402D3D: 5E                   pop esi
0x00402D3E: 8B E5                mov esp, ebp
0x00402D40: 5D                   pop ebp
0x00402D41: C3                   ret
0x00402D42: CC                   int3
0x00402D43: CC                   int3
0x00402D44: CC                   int3
0x00402D45: CC                   int3
0x00402D46: CC                   int3
0x00402D47: CC                   int3
0x00402D48: CC                   int3
0x00402D49: CC                   int3
0x00402D4A: CC                   int3
0x00402D4B: CC                   int3
0x00402D4C: CC                   int3
0x00402D4D: CC                   int3
0x00402D4E: CC                   int3
0x00402D4F: CC                   int3
0x00402D50: 55                   push ebp
0x00402D51: 8B EC                mov ebp, esp
0x00402D53: 81 EC 04 04 00 00    sub esp, 0x404
0x00402D59: E8 32 FE FF FF       call 0x402b90
0x00402D5E: 84 C0                test al, al
0x00402D60: 0F 84 F5 01 00 00    je 0x402f5b
0x00402D66: 56                   push esi
0x00402D67: 57                   push edi
0x00402D68: 33 F6                xor esi, esi
0x00402D6A: 89 75 FC             mov dword ptr [ebp - 4], esi
0x00402D6D: 53                   push ebx
0x00402D6E: 8B FF                mov edi, edi
0x00402D70: A1 98 62 AB 00       mov eax, dword ptr [0xab6298]
0x00402D75: 8B 0D 58 61 AB 00    mov ecx, dword ptr [0xab6158]
0x00402D7B: 8B 3C B5 28 30 AD 00 mov edi, dword ptr [esi*4 + 0xad3028]
0x00402D82: 50                   push eax
0x00402D83: 51                   push ecx
0x00402D84: 68 D0 1A 9E 00       push 0x9e1ad0
0x00402D89: 8D 95 FC FB FF FF    lea edx, [ebp - 0x404]
0x00402D8F: 68 00 04 00 00       push 0x400
0x00402D94: 52                   push edx
0x00402D95: C6 86 90 DE C5 00 00 mov byte ptr [esi + 0xc5de90], 0
0x00402D9C: E8 CF C2 36 00       call 0x76f070
0x00402DA1: 8D 85 FC FB FF FF    lea eax, [ebp - 0x404]
0x00402DA7: 68 C8 1A 9E 00       push 0x9e1ac8
0x00402DAC: 50                   push eax
0x00402DAD: E8 4E C9 36 00       call 0x76f700
0x00402DB2: 83 C4 1C             add esp, 0x1c
0x00402DB5: 85 C0                test eax, eax
0x00402DB7: 74 23                je 0x402ddc
0x00402DB9: 8D A4 24 00 00 00 00 lea esp, [esp]
0x00402DC0: 8B 0F                mov ecx, dword ptr [edi]
0x00402DC2: 8D 95 FC FB FF FF    lea edx, [ebp - 0x404]
0x00402DC8: 68 C8 1A 9E 00       push 0x9e1ac8
0x00402DCD: 52                   push edx
0x00402DCE: 89 08                mov dword ptr [eax], ecx
0x00402DD0: E8 2B C9 36 00       call 0x76f700
0x00402DD5: 83 C4 08             add esp, 8
0x00402DD8: 85 C0                test eax, eax
0x00402DDA: 75 E4                jne 0x402dc0
0x00402DDC: 8D 85 FC FB FF FF    lea eax, [ebp - 0x404]
0x00402DE2: 50                   push eax
0x00402DE3: E8 28 ED 05 00       call 0x461b10
0x00402DE8: 83 C4 04             add esp, 4
0x00402DEB: 85 C0                test eax, eax
0x00402DED: 74 0C                je 0x402dfb
0x00402DEF: C6 86 90 DE C5 00 01 mov byte ptr [esi + 0xc5de90], 1
0x00402DF6: E9 C3 00 00 00       jmp 0x402ebe
0x00402DFB: 8B 0D 98 62 AB 00    mov ecx, dword ptr [0xab6298]
0x00402E01: 8B 15 5C 61 AB 00    mov edx, dword ptr [0xab615c]
0x00402E07: 8B 3C B5 28 30 AD 00 mov edi, dword ptr [esi*4 + 0xad3028]
0x00402E0E: 51                   push ecx
0x00402E0F: 52                   push edx
0x00402E10: 68 D0 1A 9E 00       push 0x9e1ad0
0x00402E15: 8D 85 FC FB FF FF    lea eax, [ebp - 0x404]
0x00402E1B: 68 00 04 00 00       push 0x400
0x00402E20: 50                   push eax
0x00402E21: E8 4A C2 36 00       call 0x76f070
0x00402E26: 8D 8D FC FB FF FF    lea ecx, [ebp - 0x404]
0x00402E2C: 68 C8 1A 9E 00       push 0x9e1ac8
0x00402E31: 51                   push ecx
0x00402E32: E8 C9 C8 36 00       call 0x76f700
0x00402E37: 83 C4 1C             add esp, 0x1c
0x00402E3A: 85 C0                test eax, eax
0x00402E3C: 74 1E                je 0x402e5c
0x00402E3E: 8B FF                mov edi, edi
0x00402E40: 8B 17                mov edx, dword ptr [edi]
0x00402E42: 89 10                mov dword ptr [eax], edx
0x00402E44: 8D 85 FC FB FF FF    lea eax, [ebp - 0x404]
0x00402E4A: 68 C8 1A 9E 00       push 0x9e1ac8
0x00402E4F: 50                   push eax
0x00402E50: E8 AB C8 36 00       call 0x76f700
0x00402E55: 83 C4 08             add esp, 8
0x00402E58: 85 C0                test eax, eax
0x00402E5A: 75 E4                jne 0x402e40
0x00402E5C: 8D 8D FC FB FF FF    lea ecx, [ebp - 0x404]
0x00402E62: 51                   push ecx
0x00402E63: E8 A8 EC 05 00       call 0x461b10
0x00402E68: 83 C4 04             add esp, 4
0x00402E6B: 85 C0                test eax, eax
0x00402E6D: 74 09                je 0x402e78
0x00402E6F: C6 86 90 DE C5 00 01 mov byte ptr [esi + 0xc5de90], 1
0x00402E76: EB 46                jmp 0x402ebe
0x00402E78: 8B 14 B5 28 30 AD 00 mov edx, dword ptr [esi*4 + 0xad3028]
0x00402E7F: 8B 3D 98 62 AB 00    mov edi, dword ptr [0xab6298]
0x00402E85: 52                   push edx
0x00402E86: B8 02 00 00 00       mov eax, 2
0x00402E8B: BB 00 04 00 00       mov ebx, 0x400
0x00402E90: 8D B5 FC FB FF FF    lea esi, [ebp - 0x404]
0x00402E96: E8 05 FC FF FF       call 0x402aa0
0x00402E9B: 83 C4 04             add esp, 4
0x00402E9E: 84 C0                test al, al
0x00402EA0: 74 19                je 0x402ebb
0x00402EA2: 8B C6                mov eax, esi
0x00402EA4: 50                   push eax
0x00402EA5: E8 66 EC 05 00       call 0x461b10
0x00402EAA: 83 C4 04             add esp, 4
0x00402EAD: 85 C0                test eax, eax
0x00402EAF: 74 0A                je 0x402ebb
0x00402EB1: 8B 4D FC             mov ecx, dword ptr [ebp - 4]
0x00402EB4: C6 81 90 DE C5 00 01 mov byte ptr [ecx + 0xc5de90], 1
0x00402EBB: 8B 75 FC             mov esi, dword ptr [ebp - 4]
0x00402EBE: 83 C6 01             add esi, 1
0x00402EC1: 83 FE 0C             cmp esi, 0xc
0x00402EC4: 89 75 FC             mov dword ptr [ebp - 4], esi
0x00402EC7: 0F 8C A3 FE FF FF    jl 0x402d70
0x00402ECD: 8B 75 08             mov esi, dword ptr [ebp + 8]
0x00402ED0: 56                   push esi
0x00402ED1: E8 BA 2E 23 00       call 0x635d90
0x00402ED6: 83 C4 04             add esp, 4
0x00402ED9: 8B D0                mov edx, eax
0x00402EDB: 33 C9                xor ecx, ecx
0x00402EDD: 5B                   pop ebx
0x00402EDE: 8B FF                mov edi, edi
0x00402EE0: 80 BA 90 DE C5 00 00 cmp byte ptr [edx + 0xc5de90], 0
0x00402EE7: 75 5D                jne 0x402f46
0x00402EE9: 8D 42 01             lea eax, [edx + 1]
0x00402EEC: 99                   cdq
0x00402EED: BF 0C 00 00 00       mov edi, 0xc
0x00402EF2: F7 FF                idiv edi
0x00402EF4: 80 BA 90 DE C5 00 00 cmp byte ptr [edx + 0xc5de90], 0
0x00402EFB: 75 49                jne 0x402f46
0x00402EFD: 8D 42 01             lea eax, [edx + 1]
0x00402F00: 99                   cdq
0x00402F01: F7 FF                idiv edi
0x00402F03: 80 BA 90 DE C5 00 00 cmp byte ptr [edx + 0xc5de90], 0
0x00402F0A: 75 3A                jne 0x402f46
0x00402F0C: 8D 42 01             lea eax, [edx + 1]
0x00402F0F: 99                   cdq
0x00402F10: F7 FF                idiv edi
0x00402F12: 80 BA 90 DE C5 00 00 cmp byte ptr [edx + 0xc5de90], 0
0x00402F19: 75 2B                jne 0x402f46
0x00402F1B: 8D 42 01             lea eax, [edx + 1]
0x00402F1E: 99                   cdq
0x00402F1F: F7 FF                idiv edi
0x00402F21: 80 BA 90 DE C5 00 00 cmp byte ptr [edx + 0xc5de90], 0
0x00402F28: 75 1C                jne 0x402f46
0x00402F2A: 8D 42 01             lea eax, [edx + 1]
0x00402F2D: 99                   cdq
0x00402F2E: F7 FF                idiv edi
0x00402F30: 80 BA 90 DE C5 00 00 cmp byte ptr [edx + 0xc5de90], 0
0x00402F37: 75 0D                jne 0x402f46
0x00402F39: 8D 42 01             lea eax, [edx + 1]
0x00402F3C: 99                   cdq
0x00402F3D: 83 C1 06             add ecx, 6
0x00402F40: F7 FF                idiv edi
0x00402F42: 3B CF                cmp ecx, edi
0x00402F44: 7C 9A                jl 0x402ee0
0x00402F46: 8B 14 95 28 30 AD 00 mov edx, dword ptr [edx*4 + 0xad3028]
0x00402F4D: 68 FF FF FF 7F       push 0x7fffffff
0x00402F52: 52                   push edx
0x00402F53: 56                   push esi
0x00402F54: E8 C7 BD 36 00       call 0x76ed20
0x00402F59: 5F                   pop edi
0x00402F5A: 5E                   pop esi
0x00402F5B: 8B E5                mov esp, ebp
0x00402F5D: 5D                   pop ebp
0x00402F5E: C3                   ret
0x00402F5F: CC                   int3
0x00402F60: 55                   push ebp
0x00402F61: 8B EC                mov ebp, esp
0x00402F63: 83 EC 24             sub esp, 0x24
0x00402F66: E8 F5 F1 01 00       call 0x422160
0x00402F6B: 6A 00                push 0
0x00402F6D: 6A 00                push 0
0x00402F6F: 8D 45 F8             lea eax, [ebp - 8]
0x00402F72: 50                   push eax
0x00402F73: 8D 4D FC             lea ecx, [ebp - 4]
0x00402F76: 51                   push ecx
0x00402F77: 68 D0 1B 9E 00       push 0x9e1bd0
0x00402F7C: E8 CF 1F 02 00       call 0x424f50
0x00402F81: 85 C0                test eax, eax
0x00402F83: 75 23                jne 0x402fa8
0x00402F85: 68 60 0F 00 00       push 0xf60
0x00402F8A: 68 94 0E 9E 00       push 0x9e0e94
0x00402F8F: E8 6C E8 36 00       call 0x771800
0x00402F94: 68 D0 1B 9E 00       push 0x9e1bd0
0x00402F99: 68 C4 1B 9E 00       push 0x9e1bc4
0x00402F9E: 6A 02                push 2
0x00402FA0: E8 DB FA 36 00       call 0x772a80
0x00402FA5: 83 C4 0C             add esp, 0xc
0x00402FA8: 6A 01                push 1
0x00402FAA: E8 71 F4 01 00       call 0x422420
0x00402FAF: 8B 55 F8             mov edx, dword ptr [ebp - 8]
0x00402FB2: 8B 45 FC             mov eax, dword ptr [ebp - 4]
0x00402FB5: 6A 04                push 4
0x00402FB7: 68 A4 0D 9E 00       push 0x9e0da4
0x00402FBC: 68 00 01 00 00       push 0x100
0x00402FC1: 68 28 60 AB 00       push 0xab6028
0x00402FC6: 52                   push edx
0x00402FC7: 50                   push eax
0x00402FC8: E8 63 DF 36 00       call 0x770f30
0x00402FCD: 83 C4 18             add esp, 0x18
0x00402FD0: 85 C0                test eax, eax
0x00402FD2: 75 26                jne 0x402ffa
0x00402FD4: 68 74 0F 00 00       push 0xf74
0x00402FD9: 68 94 0E 9E 00       push 0x9e0e94
0x00402FDE: E8 1D E8 36 00       call 0x771800
0x00402FE3: 68 D0 1B 9E 00       push 0x9e1bd0
0x00402FE8: 68 A0 1B 9E 00       push 0x9e1ba0
0x00402FED: 68 DC 04 00 00       push 0x4dc
0x00402FF2: E8 89 FA 36 00       call 0x772a80
0x00402FF7: 83 C4 0C             add esp, 0xc
0x00402FFA: 8B 45 FC             mov eax, dword ptr [ebp - 4]
0x00402FFD: 53                   push ebx
0x00402FFE: 56                   push esi
0x00402FFF: 57                   push edi
0x00403000: 68 F0 15 9F 00       push 0x9f15f0
0x00403005: 50                   push eax
0x00403006: 8B F8                mov edi, eax
0x00403008: E8 F3 C6 36 00       call 0x76f700
0x0040300D: 83 C4 08             add esp, 8
0x00403010: 8B F0                mov esi, eax
0x00403012: 57                   push edi
0x00403013: C6 06 00             mov byte ptr [esi], 0
0x00403016: E8 B5 C0 36 00       call 0x76f0d0
0x0040301B: 83 C6 02             add esi, 2
0x0040301E: 68 F0 15 9F 00       push 0x9f15f0
0x00403023: 56                   push esi
0x00403024: 89 45 F4             mov dword ptr [ebp - 0xc], eax
0x00403027: E8 D4 C6 36 00       call 0x76f700
0x0040302C: 8B D8                mov ebx, eax
0x0040302E: 56                   push esi
0x0040302F: C6 03 00             mov byte ptr [ebx], 0
0x00403032: E8 D4 8B 00 00       call 0x40bc0b
0x00403037: 8B F8                mov edi, eax
0x00403039: 83 C4 0C             add esp, 0xc
0x0040303C: 83 FF 02             cmp edi, 2
0x0040303F: 74 28                je 0x403069
0x00403041: 68 98 0F 00 00       push 0xf98
0x00403046: 68 94 0E 9E 00       push 0x9e0e94
0x0040304B: E8 B0 E7 36 00       call 0x771800
0x00403050: 57                   push edi
0x00403051: 68 D0 1B 9E 00       push 0x9e1bd0
0x00403056: 56                   push esi
0x00403057: 68 50 1B 9E 00       push 0x9e1b50
0x0040305C: 68 83 00 10 85       push 0x85100083
0x00403061: E8 1A FA 36 00       call 0x772a80
0x00403066: 83 C4 14             add esp, 0x14
0x00403069: 83 C3 02             add ebx, 2
0x0040306C: 68 F0 15 9F 00       push 0x9f15f0
0x00403071: 53                   push ebx
0x00403072: E8 89 C6 36 00       call 0x76f700
0x00403077: 83 C4 08             add esp, 8
0x0040307A: 6A 07                push 7
0x0040307C: 68 48 1B 9E 00       push 0x9e1b48
0x00403081: 8B F0                mov esi, eax
0x00403083: 53                   push ebx
0x00403084: C6 06 00             mov byte ptr [esi], 0
0x00403087: E8 D4 B6 36 00       call 0x76e760
0x0040308C: 85 C0                test eax, eax
0x0040308E: 74 27                je 0x4030b7
0x00403090: 68 B6 0F 00 00       push 0xfb6
0x00403095: 68 94 0E 9E 00       push 0x9e0e94
0x0040309A: E8 61 E7 36 00       call 0x771800
0x0040309F: 68 D0 1B 9E 00       push 0x9e1bd0
0x004030A4: 53                   push ebx
0x004030A5: 68 14 1B 9E 00       push 0x9e1b14
0x004030AA: 68 83 00 10 85       push 0x85100083
0x004030AF: E8 CC F9 36 00       call 0x772a80
0x004030B4: 83 C4 10             add esp, 0x10
0x004030B7: 83 C6 02             add esi, 2
0x004030BA: 83 7D F4 02          cmp dword ptr [ebp - 0xc], 2
0x004030BE: 0F 85 C1 00 00 00    jne 0x403185
0x004030C4: 80 3D E1 F9 B2 00 01 cmp byte ptr [0xb2f9e1], 1
0x004030CB: 8B 4D 08             mov ecx, dword ptr [ebp + 8]
0x004030CE: 8B 11                mov edx, dword ptr [ecx]
0x004030D0: 8B 4D FC             mov ecx, dword ptr [ebp - 4]
0x004030D3: 1B C0                sbb eax, eax
0x004030D5: 83 C0 01             add eax, 1
0x004030D8: 89 45 F0             mov dword ptr [ebp - 0x10], eax
0x004030DB: 8B 45 F8             mov eax, dword ptr [ebp - 8]
0x004030DE: 03 C8                add ecx, eax
0x004030E0: 3B F1                cmp esi, ecx
0x004030E2: 89 55 F4             mov dword ptr [ebp - 0xc], edx
0x004030E5: 0F 83 C0 00 00 00    jae 0x4031ab
0x004030EB: EB 03                jmp 0x4030f0
0x004030ED: 8D 49 00             lea ecx, [ecx]
0x004030F0: 6A 04                push 4
0x004030F2: 68 0C 1B 9E 00       push 0x9e1b0c
0x004030F7: 56                   push esi
0x004030F8: E8 63 B6 36 00       call 0x76e760
0x004030FD: 85 C0                test eax, eax
0x004030FF: 0F 84 A6 00 00 00    je 0x4031ab
0x00403105: 8D 7E 07             lea edi, [esi + 7]
0x00403108: 8D 47 21             lea eax, [edi + 0x21]
0x0040310B: C6 46 04 00          mov byte ptr [esi + 4], 0
0x0040310F: 68 F0 15 9F 00       push 0x9f15f0
0x00403114: C6 46 06 00          mov byte ptr [esi + 6], 0
0x00403118: 50                   push eax
0x00403119: C6 47 20 00          mov byte ptr [edi + 0x20], 0
0x0040311D: 89 45 EC             mov dword ptr [ebp - 0x14], eax
0x00403120: E8 DB C5 36 00       call 0x76f700
0x00403125: 8B D8                mov ebx, eax
0x00403127: C6 03 00             mov byte ptr [ebx], 0
0x0040312A: 8B 06                mov eax, dword ptr [esi]
0x0040312C: 83 C4 08             add esp, 8
0x0040312F: 3D 62 61 73 65       cmp eax, 0x65736162
0x00403134: 74 05                je 0x40313b
0x00403136: 3B 45 F4             cmp eax, dword ptr [ebp - 0xc]
0x00403139: 75 27                jne 0x403162
0x0040313B: 8A 46 05             mov al, byte ptr [esi + 5]
0x0040313E: 3C 63                cmp al, 0x63
0x00403140: 74 0A                je 0x40314c
0x00403142: 3C 65                cmp al, 0x65
0x00403144: 75 1C                jne 0x403162
0x00403146: 83 7D F0 00          cmp dword ptr [ebp - 0x10], 0
0x0040314A: 74 16                je 0x403162
0x0040314C: 57                   push edi
0x0040314D: 8D 4D DC             lea ecx, [ebp - 0x24]
0x00403150: E8 1B DB 36 00       call 0x770c70
0x00403155: 8B 45 EC             mov eax, dword ptr [ebp - 0x14]
0x00403158: 8D 55 DC             lea edx, [ebp - 0x24]
0x0040315B: 52                   push edx
0x0040315C: 50                   push eax
0x0040315D: E8 0E F0 01 00       call 0x422170
0x00403162: 8B 4D F8             mov ecx, dword ptr [ebp - 8]
0x00403165: 8B 55 FC             mov edx, dword ptr [ebp - 4]
0x00403168: 8D 73 02             lea esi, [ebx + 2]
0x0040316B: 03 D1                add edx, ecx
0x0040316D: 3B F2                cmp esi, edx
0x0040316F: 0F 82 7B FF FF FF    jb 0x4030f0
0x00403175: 8B 45 FC             mov eax, dword ptr [ebp - 4]
0x00403178: 50                   push eax
0x00403179: E8 22 EB 01 00       call 0x421ca0
0x0040317E: 5F                   pop edi
0x0040317F: 5E                   pop esi
0x00403180: 5B                   pop ebx
0x00403181: 8B E5                mov esp, ebp
0x00403183: 5D                   pop ebp
0x00403184: C3                   ret
0x00403185: 68 F1 0F 00 00       push 0xff1
0x0040318A: 68 94 0E 9E 00       push 0x9e0e94
0x0040318F: E8 6C E6 36 00       call 0x771800
0x00403194: 68 D0 1B 9E 00       push 0x9e1bd0
0x00403199: 68 E0 1A 9E 00       push 0x9e1ae0
0x0040319E: 68 83 00 10 85       push 0x85100083
0x004031A3: E8 D8 F8 36 00       call 0x772a80
0x004031A8: 83 C4 0C             add esp, 0xc
0x004031AB: 8B 45 FC             mov eax, dword ptr [ebp - 4]
0x004031AE: 50                   push eax
0x004031AF: E8 EC EA 01 00       call 0x421ca0
0x004031B4: 5F                   pop edi
0x004031B5: 5E                   pop esi
0x004031B6: 5B                   pop ebx
0x004031B7: 8B E5                mov esp, ebp
0x004031B9: 5D                   pop ebp
0x004031BA: C3                   ret
0x004031BB: CC                   int3
0x004031BC: CC                   int3
0x004031BD: CC                   int3
0x004031BE: CC                   int3
0x004031BF: CC                   int3
0x004031C0: 55                   push ebp
0x004031C1: 8B EC                mov ebp, esp
0x004031C3: 56                   push esi
0x004031C4: 8B 75 0C             mov esi, dword ptr [ebp + 0xc]
0x004031C7: 8B 46 04             mov eax, dword ptr [esi + 4]
0x004031CA: 8B 0E                mov ecx, dword ptr [esi]
0x004031CC: 57                   push edi
0x004031CD: 8B 7D 08             mov edi, dword ptr [ebp + 8]
0x004031D0: 50                   push eax
0x004031D1: 51                   push ecx
0x004031D2: 57                   push edi
0x004031D3: E8 A8 B5 36 00       call 0x76e780
0x004031D8: 85 C0                test eax, eax
0x004031DA: 75 11                jne 0x4031ed
0x004031DC: 8B 56 0C             mov edx, dword ptr [esi + 0xc]
0x004031DF: 8B 46 08             mov eax, dword ptr [esi + 8]
0x004031E2: 52                   push edx
0x004031E3: 57                   push edi
0x004031E4: FF D0                call eax
0x004031E6: 83 C4 08             add esp, 8
0x004031E9: 5F                   pop edi
0x004031EA: 5E                   pop esi
0x004031EB: 5D                   pop ebp
0x004031EC: C3                   ret
0x004031ED: 5F                   pop edi
0x004031EE: B8 01 00 00 00       mov eax, 1
0x004031F3: 5E                   pop esi
0x004031F4: 5D                   pop ebp
0x004031F5: C3                   ret
0x004031F6: CC                   int3
0x004031F7: CC                   int3
0x004031F8: CC                   int3
0x004031F9: CC                   int3
0x004031FA: CC                   int3
0x004031FB: CC                   int3
0x004031FC: CC                   int3
0x004031FD: CC                   int3
0x004031FE: CC                   int3
0x004031FF: CC                   int3
0x00403200: 55                   push ebp
0x00403201: 8B EC                mov ebp, esp
0x00403203: 56                   push esi
0x00403204: 57                   push edi
0x00403205: 8B 7D 10             mov edi, dword ptr [ebp + 0x10]
0x00403208: 57                   push edi
0x00403209: E8 FD 89 00 00       call 0x40bc0b
0x0040320E: 8B F0                mov esi, eax
0x00403210: 83 C4 04             add esp, 4
0x00403213: 83 FE 02             cmp esi, 2
0x00403216: 77 49                ja 0x403261
0x00403218: 8B 45 0C             mov eax, dword ptr [ebp + 0xc]
0x0040321B: 85 C0                test eax, eax
0x0040321D: 74 3C                je 0x40325b
0x0040321F: 50                   push eax
0x00403220: E8 E6 89 00 00       call 0x40bc0b
0x00403225: 83 C4 04             add esp, 4
0x00403228: 3B F0                cmp esi, eax
0x0040322A: 74 2F                je 0x40325b
0x0040322C: 8B 75 14             mov esi, dword ptr [ebp + 0x14]
0x0040322F: 83 7E 30 00          cmp dword ptr [esi + 0x30], 0
0x00403233: 74 26                je 0x40325b
0x00403235: 6A 00                push 0
0x00403237: 8B CE                mov ecx, esi
0x00403239: E8 C2 34 36 00       call 0x766700
0x0040323E: 6A 01                push 1
0x00403240: 6A 00                push 0
0x00403242: 6A 00                push 0
0x00403244: 6A 01                push 1
0x00403246: 68 A0 14 9E 00       push 0x9e14a0
0x0040324B: 8B CE                mov ecx, esi
0x0040324D: E8 6E 36 36 00       call 0x7668c0
0x00403252: 6A 01                push 1
0x00403254: 8B CE                mov ecx, esi
0x00403256: E8 A5 34 36 00       call 0x766700
0x0040325B: 5F                   pop edi
0x0040325C: B0 01                mov al, 1
0x0040325E: 5E                   pop esi
0x0040325F: 5D                   pop ebp
0x00403260: C3                   ret
0x00403261: 57                   push edi
0x00403262: 68 A0 1D 9E 00       push 0x9e1da0
0x00403267: E8 44 21 36 00       call 0x7653b0
0x0040326C: 83 C4 08             add esp, 8
0x0040326F: 33 F6                xor esi, esi
0x00403271: 56                   push esi
0x00403272: E8 F9 7A 46 00       call 0x86ad70
0x00403277: 50                   push eax
0x00403278: 56                   push esi
0x00403279: 68 94 1D 9E 00       push 0x9e1d94
0x0040327E: E8 2D 21 36 00       call 0x7653b0
0x00403283: 83 C6 01             add esi, 1
0x00403286: 83 C4 10             add esp, 0x10
0x00403289: 83 FE 02             cmp esi, 2
0x0040328C: 7E E3                jle 0x403271
0x0040328E: 5F                   pop edi
0x0040328F: 32 C0                xor al, al
0x00403291: 5E                   pop esi
0x00403292: 5D                   pop ebp
0x00403293: C3                   ret
0x00403294: CC                   int3
0x00403295: CC                   int3
0x00403296: CC                   int3
0x00403297: CC                   int3
0x00403298: CC                   int3
0x00403299: CC                   int3
0x0040329A: CC                   int3
0x0040329B: CC                   int3
0x0040329C: CC                   int3
0x0040329D: CC                   int3
0x0040329E: CC                   int3
0x0040329F: CC                   int3
0x004032A0: 53                   push ebx
0x004032A1: 56                   push esi
0x004032A2: 57                   push edi
0x004032A3: 68 40 1E 9E 00       push 0x9e1e40
0x004032A8: E8 B3 41 36 00       call 0x767460
0x004032AD: 8B 70 30             mov esi, dword ptr [eax + 0x30]
0x004032B0: E8 AB 7A 46 00       call 0x86ad60
0x004032B5: 68 30 1E 9E 00       push 0x9e1e30
0x004032BA: 8B F8                mov edi, eax
0x004032BC: E8 9F 41 36 00       call 0x767460
0x004032C1: 8B 58 30             mov ebx, dword ptr [eax + 0x30]
0x004032C4: 56                   push esi
0x004032C5: E8 A6 7A 46 00       call 0x86ad70
0x004032CA: 50                   push eax
0x004032CB: 56                   push esi
0x004032CC: 68 10 1E 9E 00       push 0x9e1e10
0x004032D1: E8 DA 20 36 00       call 0x7653b0
0x004032D6: 57                   push edi
0x004032D7: E8 94 7A 46 00       call 0x86ad70
0x004032DC: 50                   push eax
0x004032DD: 57                   push edi
0x004032DE: 68 F0 1D 9E 00       push 0x9e1df0
0x004032E3: E8 C8 20 36 00       call 0x7653b0
0x004032E8: 53                   push ebx
0x004032E9: 68 D8 1D 9E 00       push 0x9e1dd8
0x004032EE: E8 BD 20 36 00       call 0x7653b0
0x004032F3: 83 C4 30             add esp, 0x30
0x004032F6: 5F                   pop edi
0x004032F7: 5E                   pop esi
0x004032F8: B8 01 00 00 00       mov eax, 1
0x004032FD: 5B                   pop ebx
0x004032FE: C3                   ret
0x004032FF: CC                   int3
0x00403300: 55                   push ebp
0x00403301: 8B EC                mov ebp, esp
0x00403303: 8B 4D 0C             mov ecx, dword ptr [ebp + 0xc]
0x00403306: 8B 09                mov ecx, dword ptr [ecx]
0x00403308: 8B 45 08             mov eax, dword ptr [ebp + 8]
0x0040330B: 8B 00                mov eax, dword ptr [eax]
0x0040330D: 68 FF FF FF 7F       push 0x7fffffff
0x00403312: 51                   push ecx
0x00403313: 50                   push eax
0x00403314: E8 67 B9 36 00       call 0x76ec80
0x00403319: 5D                   pop ebp
0x0040331A: C3                   ret
0x0040331B: CC                   int3
0x0040331C: CC                   int3
0x0040331D: CC                   int3
0x0040331E: CC                   int3
0x0040331F: CC                   int3
0x00403320: 55                   push ebp
0x00403321: 8B EC                mov ebp, esp
0x00403323: 8B 45 10             mov eax, dword ptr [ebp + 0x10]
0x00403326: 6A 05                push 5
0x00403328: 50                   push eax
0x00403329: 68 88 DE C5 00       push 0xc5de88
0x0040332E: E8 ED B9 36 00       call 0x76ed20
0x00403333: B0 01                mov al, 1
0x00403335: 5D                   pop ebp
0x00403336: C3                   ret
0x00403337: CC                   int3
0x00403338: CC                   int3
0x00403339: CC                   int3
0x0040333A: CC                   int3
0x0040333B: CC                   int3
0x0040333C: CC                   int3
0x0040333D: CC                   int3
0x0040333E: CC                   int3
0x0040333F: CC                   int3
0x00403340: 55                   push ebp
0x00403341: 8B EC                mov ebp, esp
0x00403343: 56                   push esi
0x00403344: 8B 75 08             mov esi, dword ptr [ebp + 8]
0x00403347: 6A 00                push 0
0x00403349: 56                   push esi
0x0040334A: E8 A1 F4 3D 00       call 0x7e27f0
0x0040334F: 6A 00                push 0
0x00403351: 56                   push esi
0x00403352: E8 59 48 2D 00       call 0x6d7bb0
0x00403357: 83 C4 10             add esp, 0x10
0x0040335A: B8 01 00 00 00       mov eax, 1
0x0040335F: 5E                   pop esi
0x00403360: 5D                   pop ebp
0x00403361: C3                   ret
0x00403362: CC                   int3
0x00403363: CC                   int3
0x00403364: CC                   int3
0x00403365: CC                   int3
0x00403366: CC                   int3
0x00403367: CC                   int3
0x00403368: CC                   int3
0x00403369: CC                   int3
0x0040336A: CC                   int3
0x0040336B: CC                   int3
0x0040336C: CC                   int3
0x0040336D: CC                   int3
0x0040336E: CC                   int3
0x0040336F: CC                   int3
0x00403370: 55                   push ebp
0x00403371: 8B EC                mov ebp, esp
0x00403373: 5D                   pop ebp
0x00403374: E9 B7 A1 07 00       jmp 0x47d530
0x00403379: CC                   int3
0x0040337A: CC                   int3
0x0040337B: CC                   int3
0x0040337C: CC                   int3
0x0040337D: CC                   int3
0x0040337E: CC                   int3
0x0040337F: CC                   int3
0x00403380: 55                   push ebp
0x00403381: 8B EC                mov ebp, esp
0x00403383: 8B 45 18             mov eax, dword ptr [ebp + 0x18]
0x00403386: 8B 4D 14             mov ecx, dword ptr [ebp + 0x14]
0x00403389: 8B 55 10             mov edx, dword ptr [ebp + 0x10]
0x0040338C: 50                   push eax
0x0040338D: 8B 45 0C             mov eax, dword ptr [ebp + 0xc]
0x00403390: 51                   push ecx
0x00403391: 8B 4D 08             mov ecx, dword ptr [ebp + 8]
0x00403394: 52                   push edx
0x00403395: 50                   push eax
0x00403396: 51                   push ecx
0x00403397: E8 04 A2 07 00       call 0x47d5a0
0x0040339C: 83 C4 14             add esp, 0x14
0x0040339F: 5D                   pop ebp
0x004033A0: C3                   ret
0x004033A1: CC                   int3
0x004033A2: CC                   int3
0x004033A3: CC                   int3
0x004033A4: CC                   int3
0x004033A5: CC                   int3
0x004033A6: CC                   int3
0x004033A7: CC                   int3
0x004033A8: CC                   int3
0x004033A9: CC                   int3
0x004033AA: CC                   int3
0x004033AB: CC                   int3
0x004033AC: CC                   int3
0x004033AD: CC                   int3
0x004033AE: CC                   int3
0x004033AF: CC                   int3
0x004033B0: 55                   push ebp
0x004033B1: 8B EC                mov ebp, esp
0x004033B3: 5D                   pop ebp
0x004033B4: E9 67 A2 07 00       jmp 0x47d620
0x004033B9: CC                   int3
0x004033BA: CC                   int3
0x004033BB: CC                   int3
0x004033BC: CC                   int3
0x004033BD: CC                   int3
0x004033BE: CC                   int3
0x004033BF: CC                   int3
0x004033C0: 55                   push ebp
0x004033C1: 8B EC                mov ebp, esp
0x004033C3: 8B 45 08             mov eax, dword ptr [ebp + 8]
0x004033C6: A3 A4 F9 B2 00       mov dword ptr [0xb2f9a4], eax
0x004033CB: 5D                   pop ebp
0x004033CC: E9 8F A3 07 00       jmp 0x47d760
0x004033D1: CC                   int3
0x004033D2: CC                   int3
0x004033D3: CC                   int3
0x004033D4: CC                   int3
0x004033D5: CC                   int3
0x004033D6: CC                   int3
0x004033D7: CC                   int3
0x004033D8: CC                   int3
0x004033D9: CC                   int3
0x004033DA: CC                   int3
0x004033DB: CC                   int3
0x004033DC: CC                   int3
0x004033DD: CC                   int3
0x004033DE: CC                   int3
0x004033DF: CC                   int3
0x004033E0: 55                   push ebp
0x004033E1: 8B EC                mov ebp, esp
0x004033E3: 51                   push ecx
0x004033E4: 53                   push ebx
0x004033E5: E8 E6 DA 2A 00       call 0x6b0ed0
0x004033EA: 85 C0                test eax, eax
0x004033EC: 74 4E                je 0x40343c
0x004033EE: 80 78 06 00          cmp byte ptr [eax + 6], 0
0x004033F2: 8D 48 06             lea ecx, [eax + 6]
0x004033F5: 89 4D FC             mov dword ptr [ebp - 4], ecx
0x004033F8: 74 42                je 0x40343c
0x004033FA: 80 B8 06 01 00 00 00 cmp byte ptr [eax + 0x106], 0
0x00403401: 8D 98 06 01 00 00    lea ebx, [eax + 0x106]
0x00403407: 74 33                je 0x40343c
0x00403409: 56                   push esi
0x0040340A: 68 64 1E 9E 00       push 0x9e1e64
0x0040340F: 57                   push edi
0x00403410: E8 5B BB 36 00       call 0x76ef70
0x00403415: 8B 45 FC             mov eax, dword ptr [ebp - 4]
0x00403418: 56                   push esi
0x00403419: 50                   push eax
0x0040341A: 57                   push edi
0x0040341B: E8 50 BB 36 00       call 0x76ef70
0x00403420: 56                   push esi
0x00403421: 68 60 1E 9E 00       push 0x9e1e60
0x00403426: 57                   push edi
0x00403427: E8 44 BB 36 00       call 0x76ef70
0x0040342C: 56                   push esi
0x0040342D: 53                   push ebx
0x0040342E: 57                   push edi
0x0040342F: E8 3C BB 36 00       call 0x76ef70
0x00403434: 56                   push esi
0x00403435: 68 5C 1E 9E 00       push 0x9e1e5c
0x0040343A: EB 06                jmp 0x403442
0x0040343C: 56                   push esi
0x0040343D: 68 50 1E 9E 00       push 0x9e1e50
0x00403442: 57                   push edi
0x00403443: E8 28 BB 36 00       call 0x76ef70
0x00403448: 56                   push esi
0x00403449: 68 F0 15 9F 00       push 0x9f15f0
0x0040344E: 57                   push edi
0x0040344F: E8 1C BB 36 00       call 0x76ef70
0x00403454: 5B                   pop ebx
0x00403455: 8B E5                mov esp, ebp
0x00403457: 5D                   pop ebp
0x00403458: C3                   ret
0x00403459: CC                   int3
0x0040345A: CC                   int3
0x0040345B: CC                   int3
0x0040345C: CC                   int3
0x0040345D: CC                   int3
0x0040345E: CC                   int3
0x0040345F: CC                   int3
0x00403460: 55                   push ebp
0x00403461: 8B EC                mov ebp, esp
0x00403463: 81 EC 10 01 00 00    sub esp, 0x110
0x00403469: 6A 00                push 0
0x0040346B: 68 D0 00 00 00       push 0xd0
0x00403470: 56                   push esi
0x00403471: E8 5A B1 36 00       call 0x76e5d0
0x00403476: 85 C0                test eax, eax
0x00403478: 74 6C                je 0x4034e6
0x0040347A: 8B 06                mov eax, dword ptr [esi]
0x0040347C: 8B 50 2C             mov edx, dword ptr [eax + 0x2c]
0x0040347F: 8D 4D F4             lea ecx, [ebp - 0xc]
0x00403482: 51                   push ecx
0x00403483: 8B CE                mov ecx, esi
0x00403485: FF D2                call edx
0x00403487: D9 45 FC             fld dword ptr [ebp - 4]
0x0040348A: 8B 46 08             mov eax, dword ptr [esi + 8]
0x0040348D: 8B 08                mov ecx, dword ptr [eax]
0x0040348F: 8B 40 04             mov eax, dword ptr [eax + 4]
0x00403492: 83 EC 18             sub esp, 0x18
0x00403495: DD 5C 24 10          fstp qword ptr [esp + 0x10]
0x00403499: D9 45 F8             fld dword ptr [ebp - 8]
0x0040349C: DD 5C 24 08          fstp qword ptr [esp + 8]
0x004034A0: D9 45 F4             fld dword ptr [ebp - 0xc]
0x004034A3: DD 1C 24             fstp qword ptr [esp]
0x004034A6: 50                   push eax
0x004034A7: 8B 06                mov eax, dword ptr [esi]
0x004034A9: 8B 90 D8 00 00 00    mov edx, dword ptr [eax + 0xd8]
0x004034AF: 51                   push ecx
0x004034B0: 8B CE                mov ecx, esi
0x004034B2: FF D2                call edx
0x004034B4: 50                   push eax
0x004034B5: 8B 45 08             mov eax, dword ptr [ebp + 8]
0x004034B8: 50                   push eax
0x004034B9: 68 6C 1E 9E 00       push 0x9e1e6c
0x004034BE: 8D 8D F0 FE FF FF    lea ecx, [ebp - 0x110]
0x004034C4: 68 04 01 00 00       push 0x104
0x004034C9: 51                   push ecx
0x004034CA: E8 A1 BB 36 00       call 0x76f070
0x004034CF: 8B 55 10             mov edx, dword ptr [ebp + 0x10]
0x004034D2: 8B 4D 0C             mov ecx, dword ptr [ebp + 0xc]
0x004034D5: 83 C4 34             add esp, 0x34
0x004034D8: 52                   push edx
0x004034D9: 8D 85 F0 FE FF FF    lea eax, [ebp - 0x110]
0x004034DF: 50                   push eax
0x004034E0: 51                   push ecx
0x004034E1: E8 8A BA 36 00       call 0x76ef70
0x004034E6: 8B E5                mov esp, ebp
0x004034E8: 5D                   pop ebp
0x004034E9: C3                   ret
0x004034EA: CC                   int3
0x004034EB: CC                   int3
0x004034EC: CC                   int3
0x004034ED: CC                   int3
0x004034EE: CC                   int3
0x004034EF: CC                   int3
0x004034F0: 55                   push ebp
0x004034F1: 8B EC                mov ebp, esp
0x004034F3: 81 EC 0C 03 00 00    sub esp, 0x30c
0x004034F9: 68 04 01 00 00       push 0x104
0x004034FE: 8D 85 FC FE FF FF    lea eax, [ebp - 0x104]
0x00403504: 50                   push eax
0x00403505: E8 56 E4 36 00       call 0x771960
0x0040350A: 85 C0                test eax, eax
0x0040350C: 74 3A                je 0x403548
0x0040350E: 8D 8D FC FE FF FF    lea ecx, [ebp - 0x104]
0x00403514: 51                   push ecx
0x00403515: 68 94 1E 9E 00       push 0x9e1e94
0x0040351A: 68 8C 1E 9E 00       push 0x9e1e8c
0x0040351F: 8D 95 F4 FC FF FF    lea edx, [ebp - 0x30c]
0x00403525: 68 08 02 00 00       push 0x208
0x0040352A: 52                   push edx
0x0040352B: E8 40 BB 36 00       call 0x76f070
0x00403530: 83 C4 14             add esp, 0x14
0x00403533: 6A 00                push 0
0x00403535: 6A 00                push 0
0x00403537: 8D 85 F4 FC FF FF    lea eax, [ebp - 0x30c]
0x0040353D: 50                   push eax
0x0040353E: 68 94 1E 9E 00       push 0x9e1e94
0x00403543: E8 48 CD 36 00       call 0x770290
0x00403548: B8 01 00 00 00       mov eax, 1
0x0040354D: 8B E5                mov esp, ebp
0x0040354F: 5D                   pop ebp
0x00403550: C2 14 00             ret 0x14
0x00403553: CC                   int3
0x00403554: CC                   int3
0x00403555: CC                   int3
0x00403556: CC                   int3
0x00403557: CC                   int3
0x00403558: CC                   int3
0x00403559: CC                   int3
0x0040355A: CC                   int3
0x0040355B: CC                   int3
0x0040355C: CC                   int3
0x0040355D: CC                   int3
0x0040355E: CC                   int3
0x0040355F: CC                   int3
0x00403560: 55                   push ebp
0x00403561: 8B EC                mov ebp, esp
0x00403563: 81 EC 18 06 00 00    sub esp, 0x618
0x00403569: 56                   push esi
0x0040356A: BE 88 1A 9E 00       mov esi, 0x9e1a88
0x0040356F: E8 3C F4 FF FF       call 0x4029b0
0x00403574: 84 C0                test al, al
0x00403576: 74 05                je 0x40357d
0x00403578: BE 9C 1A 9E 00       mov esi, 0x9e1a9c
0x0040357D: E8 BE EB 01 00       call 0x422140
0x00403582: 85 C0                test eax, eax
0x00403584: 74 05                je 0x40358b
0x00403586: BE B0 1E 9E 00       mov esi, 0x9e1eb0
0x0040358B: 8D 85 E8 F9 FF FF    lea eax, [ebp - 0x618]
0x00403591: 68 18 06 00 00       push 0x618
0x00403596: 50                   push eax
0x00403597: E8 04 87 46 00       call 0x86bca0
0x0040359C: 83 C4 08             add esp, 8
0x0040359F: 80 BD E8 F9 FF FF 00 cmp byte ptr [ebp - 0x618], 0
0x004035A6: 74 4F                je 0x4035f7
0x004035A8: 8D 8D E8 F9 FF FF    lea ecx, [ebp - 0x618]
0x004035AE: 6A 5C                push 0x5c
0x004035B0: 51                   push ecx
0x004035B1: E8 6A B1 36 00       call 0x76e720
0x004035B6: 83 C4 08             add esp, 8
0x004035B9: 85 C0                test eax, eax
0x004035BB: 74 3A                je 0x4035f7
0x004035BD: C6 40 01 00          mov byte ptr [eax + 1], 0
0x004035C1: E8 7A EB 01 00       call 0x422140
0x004035C6: 85 C0                test eax, eax
0x004035C8: 74 19                je 0x4035e3
0x004035CA: 8D 95 E8 F9 FF FF    lea edx, [ebp - 0x618]
0x004035D0: 52                   push edx
0x004035D1: 6A 01                push 1
0x004035D3: 68 A4 1E 9E 00       push 0x9e1ea4
0x004035D8: 56                   push esi
0x004035D9: E8 12 D3 36 00       call 0x7708f0
0x004035DE: 5E                   pop esi
0x004035DF: 8B E5                mov esp, ebp
0x004035E1: 5D                   pop ebp
0x004035E2: C3                   ret
0x004035E3: 8D 85 E8 F9 FF FF    lea eax, [ebp - 0x618]
0x004035E9: 50                   push eax
0x004035EA: 6A 04                push 4
0x004035EC: 68 A4 1E 9E 00       push 0x9e1ea4
0x004035F1: 56                   push esi
0x004035F2: E8 F9 D2 36 00       call 0x7708f0
0x004035F7: 5E                   pop esi
0x004035F8: 8B E5                mov esp, ebp
0x004035FA: 5D                   pop ebp
0x004035FB: C3                   ret
0x004035FC: CC                   int3
0x004035FD: CC                   int3
0x004035FE: CC                   int3
0x004035FF: CC                   int3
0x00403600: 56                   push esi
0x00403601: 6A 01                push 1
0x00403603: 8B F0                mov esi, eax
0x00403605: E8 F6 43 03 00       call 0x437a00
0x0040360A: 56                   push esi
0x0040360B: E8 00 E5 05 00       call 0x461b10
0x00403610: 83 C4 08             add esp, 8
0x00403613: 85 C0                test eax, eax
0x00403615: 74 42                je 0x403659
0x00403617: 85 F6                test esi, esi
0x00403619: 74 3E                je 0x403659
0x0040361B: 83 0D 50 F0 B2 00 01 or dword ptr [0xb2f050], 1
0x00403622: 56                   push esi
0x00403623: E8 D8 EA 01 00       call 0x422100
0x00403628: 68 F4 1E 9E 00       push 0x9e1ef4
0x0040362D: 8B F0                mov esi, eax
0x0040362F: E8 AC E6 05 00       call 0x461ce0
0x00403634: 83 C4 04             add esp, 4
0x00403637: 85 F6                test esi, esi
0x00403639: 74 09                je 0x403644
0x0040363B: 83 0D 50 F0 B2 00 02 or dword ptr [0xb2f050], 2
0x00403642: EB 15                jmp 0x403659
0x00403644: 68 00 08 00 00       push 0x800
0x00403649: E8 02 EB 01 00       call 0x422150
0x0040364E: 50                   push eax
0x0040364F: 68 59 F0 B2 00       push 0xb2f059
0x00403654: E8 C7 B6 36 00       call 0x76ed20
0x00403659: E8 E2 EA 01 00       call 0x422140
0x0040365E: 85 C0                test eax, eax
0x00403660: 5E                   pop esi
0x00403661: 74 05                je 0x403668
0x00403663: E8 08 AB 01 00       call 0x41e170
0x00403668: A1 50 F0 B2 00       mov eax, dword ptr [0xb2f050]
0x0040366D: 8B C8                mov ecx, eax
0x0040366F: C1 E9 03             shr ecx, 3
0x00403672: 81 E1 01 FF FF FF    and ecx, 0xffffff01
0x00403678: 68 34 30 00 00       push 0x3034
0x0040367D: 51                   push ecx
0x0040367E: 8B D0                mov edx, eax
0x00403680: 8B C8                mov ecx, eax
0x00403682: C1 EA 02             shr edx, 2
0x00403685: 81 E2 01 FF FF FF    and edx, 0xffffff01
0x0040368B: D1 E9                shr ecx, 1
0x0040368D: 52                   push edx
0x0040368E: 81 E1 01 FF FF FF    and ecx, 0xffffff01
0x00403694: 51                   push ecx
0x00403695: 25 01 FF FF FF       and eax, 0xffffff01
0x0040369A: 50                   push eax
0x0040369B: E8 10 EA 01 00       call 0x4220b0
0x004036A0: 83 C4 14             add esp, 0x14
0x004036A3: C3                   ret
0x004036A4: CC                   int3
0x004036A5: CC                   int3
0x004036A6: CC                   int3
0x004036A7: CC                   int3
0x004036A8: CC                   int3
0x004036A9: CC                   int3
0x004036AA: CC                   int3
0x004036AB: CC                   int3
0x004036AC: CC                   int3
0x004036AD: CC                   int3
0x004036AE: CC                   int3
0x004036AF: CC                   int3
0x004036B0: 55                   push ebp
0x004036B1: 8B EC                mov ebp, esp
0x004036B3: 51                   push ecx
0x004036B4: 8D 45 FC             lea eax, [ebp - 4]
0x004036B7: 50                   push eax
0x004036B8: 6A 01                push 1
0x004036BA: 68 08 1F 9E 00       push 0x9e1f08
0x004036BF: 68 B0 1E 9E 00       push 0x9e1eb0
0x004036C4: E8 77 D1 36 00       call 0x770840
0x004036C9: 85 C0                test eax, eax
0x004036CB: 75 03                jne 0x4036d0
0x004036CD: 89 45 FC             mov dword ptr [ebp - 4], eax
0x004036D0: 8B 4D FC             mov ecx, dword ptr [ebp - 4]
0x004036D3: 51                   push ecx
0x004036D4: E8 37 FE 04 00       call 0x453510
0x004036D9: 8B 55 FC             mov edx, dword ptr [ebp - 4]
0x004036DC: 52                   push edx
0x004036DD: E8 6E EC 05 00       call 0x462350
0x004036E2: 68 00 1F 9E 00       push 0x9e1f00
0x004036E7: E8 54 3D 36 00       call 0x767440
0x004036EC: 8B 40 28             mov eax, dword ptr [eax + 0x28]
0x004036EF: 50                   push eax
0x004036F0: E8 1B EC 05 00       call 0x462310
0x004036F5: 68 34 30 00 00       push 0x3034
0x004036FA: E8 41 EC 05 00       call 0x462340
0x004036FF: 8B 4D 08             mov ecx, dword ptr [ebp + 8]
0x00403702: 51                   push ecx
0x00403703: 6A 01                push 1
0x00403705: E8 E6 F7 05 00       call 0x462ef0
0x0040370A: 68 60 23 46 00       push 0x462360
0x0040370F: E8 DC C1 37 00       call 0x77f8f0
0x00403714: 83 C4 20             add esp, 0x20
0x00403717: 8B E5                mov esp, ebp
0x00403719: 5D                   pop ebp
0x0040371A: C3                   ret
0x0040371B: CC                   int3
0x0040371C: CC                   int3
0x0040371D: CC                   int3
0x0040371E: CC                   int3
0x0040371F: CC                   int3
0x00403720: 55                   push ebp
0x00403721: 8B EC                mov ebp, esp
0x00403723: 53                   push ebx
0x00403724: 8B 5D 0C             mov ebx, dword ptr [ebp + 0xc]
0x00403727: 56                   push esi
0x00403728: 8B 75 08             mov esi, dword ptr [ebp + 8]
0x0040372B: 57                   push edi
0x0040372C: 8B 7D 10             mov edi, dword ptr [ebp + 0x10]
0x0040372F: 8B C3                mov eax, ebx
0x00403731: 0F AF C7             imul eax, edi
0x00403734: 03 F0                add esi, eax
0x00403736: 83 EF 01             sub edi, 1
0x00403739: 78 11                js 0x40374c
0x0040373B: EB 03                jmp 0x403740
0x0040373D: 8D 49 00             lea ecx, [ecx]
0x00403740: 2B F3                sub esi, ebx
0x00403742: 8B CE                mov ecx, esi
0x00403744: FF 55 14             call dword ptr [ebp + 0x14]
0x00403747: 83 EF 01             sub edi, 1
0x0040374A: 79 F4                jns 0x403740
0x0040374C: 5F                   pop edi
0x0040374D: 5E                   pop esi
0x0040374E: 5B                   pop ebx
0x0040374F: 5D                   pop ebp
0x00403750: C2 10 00             ret 0x10
0x00403753: CC                   int3
0x00403754: CC                   int3
0x00403755: CC                   int3
0x00403756: CC                   int3
0x00403757: CC                   int3
0x00403758: CC                   int3
0x00403759: CC                   int3
0x0040375A: CC                   int3
0x0040375B: CC                   int3
0x0040375C: CC                   int3
0x0040375D: CC                   int3
0x0040375E: CC                   int3
0x0040375F: CC                   int3
0x00403760: 55                   push ebp
0x00403761: 8B EC                mov ebp, esp
0x00403763: 8B 45 08             mov eax, dword ptr [ebp + 8]
0x00403766: 53                   push ebx
0x00403767: 56                   push esi
0x00403768: 57                   push edi
0x00403769: 6A 10                push 0x10
0x0040376B: 6A FE                push -2
0x0040376D: 8B F1                mov esi, ecx
0x0040376F: 8B 5E 08             mov ebx, dword ptr [esi + 8]
0x00403772: 68 7C 63 AB 00       push 0xab637c
0x00403777: 8D 3C 85 00 00 00 00 lea edi, [eax*4]
0x0040377E: 57                   push edi
0x0040377F: 53                   push ebx
0x00403780: 89 06                mov dword ptr [esi], eax
0x00403782: E8 59 AE 36 00       call 0x76e5e0
0x00403787: 85 C0                test eax, eax
0x00403789: 89 46 08             mov dword ptr [esi + 8], eax
0x0040378C: 75 5B                jne 0x4037e9
0x0040378E: 50                   push eax
0x0040378F: 6A FE                push -2
0x00403791: 68 7C 63 AB 00       push 0xab637c
0x00403796: 57                   push edi
0x00403797: E8 A4 AD 36 00       call 0x76e540
0x0040379C: 85 DB                test ebx, ebx
0x0040379E: 89 46 08             mov dword ptr [esi + 8], eax
0x004037A1: 74 46                je 0x4037e9
0x004037A3: 8B 46 04             mov eax, dword ptr [esi + 4]
0x004037A6: 8B 7D 08             mov edi, dword ptr [ebp + 8]
0x004037A9: 3B F8                cmp edi, eax
0x004037AB: 72 02                jb 0x4037af
0x004037AD: 8B F8                mov edi, eax
0x004037AF: 33 D2                xor edx, edx
0x004037B1: 85 FF                test edi, edi
0x004037B3: 76 25                jbe 0x4037da
0x004037B5: EB 09                jmp 0x4037c0
0x004037B7: 8D A4 24 00 00 00 00 lea esp, [esp]
0x004037BE: 8B FF                mov edi, edi
0x004037C0: 8B 46 08             mov eax, dword ptr [esi + 8]
0x004037C3: 8D 0C 95 00 00 00 00 lea ecx, [edx*4]
0x004037CA: 03 C1                add eax, ecx
0x004037CC: 74 05                je 0x4037d3
0x004037CE: 8B 0C 19             mov ecx, dword ptr [ecx + ebx]
0x004037D1: 89 08                mov dword ptr [eax], ecx
0x004037D3: 83 C2 01             add edx, 1
0x004037D6: 3B D7                cmp edx, edi
0x004037D8: 72 E6                jb 0x4037c0
0x004037DA: 6A 00                push 0
0x004037DC: 6A FE                push -2
0x004037DE: 68 7C 63 AB 00       push 0xab637c
0x004037E3: 53                   push ebx
0x004037E4: E8 B7 AD 36 00       call 0x76e5a0
0x004037E9: 5F                   pop edi
0x004037EA: 5E                   pop esi
0x004037EB: 5B                   pop ebx
0x004037EC: 5D                   pop ebp
0x004037ED: C2 04 00             ret 4
0x004037F0: 55                   push ebp
0x004037F1: 8B EC                mov ebp, esp
0x004037F3: 8B 45 08             mov eax, dword ptr [ebp + 8]
0x004037F6: 53                   push ebx
0x004037F7: 56                   push esi
0x004037F8: 57                   push edi
0x004037F9: 6A 10                push 0x10
0x004037FB: 6A FE                push -2
0x004037FD: 8B F1                mov esi, ecx
0x004037FF: 8B 5E 08             mov ebx, dword ptr [esi + 8]
0x00403802: 68 8C 63 AB 00       push 0xab638c
0x00403807: 8D 3C 85 00 00 00 00 lea edi, [eax*4]
0x0040380E: 57                   push edi
0x0040380F: 53                   push ebx
0x00403810: 89 06                mov dword ptr [esi], eax
0x00403812: E8 C9 AD 36 00       call 0x76e5e0
0x00403817: 85 C0                test eax, eax
0x00403819: 89 46 08             mov dword ptr [esi + 8], eax
0x0040381C: 75 5B                jne 0x403879
0x0040381E: 50                   push eax
0x0040381F: 6A FE                push -2
0x00403821: 68 8C 63 AB 00       push 0xab638c
0x00403826: 57                   push edi
0x00403827: E8 14 AD 36 00       call 0x76e540
0x0040382C: 85 DB                test ebx, ebx
0x0040382E: 89 46 08             mov dword ptr [esi + 8], eax
0x00403831: 74 46                je 0x403879
0x00403833: 8B 46 04             mov eax, dword ptr [esi + 4]
0x00403836: 8B 7D 08             mov edi, dword ptr [ebp + 8]
0x00403839: 3B F8                cmp edi, eax
0x0040383B: 72 02                jb 0x40383f
0x0040383D: 8B F8                mov edi, eax
0x0040383F: 33 D2                xor edx, edx
0x00403841: 85 FF                test edi, edi
0x00403843: 76 25                jbe 0x40386a
0x00403845: EB 09                jmp 0x403850
0x00403847: 8D A4 24 00 00 00 00 lea esp, [esp]
0x0040384E: 8B FF                mov edi, edi
0x00403850: 8B 46 08             mov eax, dword ptr [esi + 8]
0x00403853: 8D 0C 95 00 00 00 00 lea ecx, [edx*4]
0x0040385A: 03 C1                add eax, ecx
0x0040385C: 74 05                je 0x403863
0x0040385E: 8B 0C 19             mov ecx, dword ptr [ecx + ebx]
0x00403861: 89 08                mov dword ptr [eax], ecx
0x00403863: 83 C2 01             add edx, 1
0x00403866: 3B D7                cmp edx, edi
0x00403868: 72 E6                jb 0x403850
0x0040386A: 6A 00                push 0
0x0040386C: 6A FE                push -2
0x0040386E: 68 8C 63 AB 00       push 0xab638c
0x00403873: 53                   push ebx
0x00403874: E8 27 AD 36 00       call 0x76e5a0
0x00403879: 5F                   pop edi
0x0040387A: 5E                   pop esi
0x0040387B: 5B                   pop ebx
0x0040387C: 5D                   pop ebp
0x0040387D: C2 04 00             ret 4
0x00403880: 83 79 0C FF          cmp dword ptr [ecx + 0xc], -1
0x00403884: 8D 41 0C             lea eax, [ecx + 0xc]
0x00403887: C7 01 24 0E 9E 00    mov dword ptr [ecx], 0x9e0e24
0x0040388D: 74 0F                je 0x40389e
0x0040388F: 50                   push eax
0x00403890: 8D 41 08             lea eax, [ecx + 8]
0x00403893: 50                   push eax
0x00403894: 8D 51 04             lea edx, [ecx + 4]
0x00403897: 52                   push edx
0x00403898: FF 15 28 0E 9E 00    call dword ptr [0x9e0e28]
0x0040389E: C3                   ret
0x0040389F: CC                   int3
0x004038A0: 55                   push ebp
0x004038A1: 8B EC                mov ebp, esp
0x004038A3: 56                   push esi
0x004038A4: 8B F1                mov esi, ecx
0x004038A6: 83 7E 0C FF          cmp dword ptr [esi + 0xc], -1
0x004038AA: 8D 46 0C             lea eax, [esi + 0xc]
0x004038AD: C7 06 24 0E 9E 00    mov dword ptr [esi], 0x9e0e24
0x004038B3: 74 11                je 0x4038c6
0x004038B5: 50                   push eax
0x004038B6: 8D 46 08             lea eax, [esi + 8]
0x004038B9: 50                   push eax
0x004038BA: 8D 4E 04             lea ecx, [esi + 4]
0x004038BD: 51                   push ecx
0x004038BE: 8B CE                mov ecx, esi
0x004038C0: FF 15 28 0E 9E 00    call dword ptr [0x9e0e28]
0x004038C6: F6 45 08 01          test byte ptr [ebp + 8], 1
0x004038CA: 74 0F                je 0x4038db
0x004038CC: 6A 00                push 0
0x004038CE: 6A FF                push -1
0x004038D0: 68 0C 0E 9E 00       push 0x9e0e0c
0x004038D5: 56                   push esi
0x004038D6: E8 C5 AC 36 00       call 0x76e5a0
0x004038DB: 8B C6                mov eax, esi
0x004038DD: 5E                   pop esi
0x004038DE: 5D                   pop ebp
0x004038DF: C2 04 00             ret 4
0x004038E2: CC                   int3
0x004038E3: CC                   int3
0x004038E4: CC                   int3
0x004038E5: CC                   int3
0x004038E6: CC                   int3
0x004038E7: CC                   int3
0x004038E8: CC                   int3
0x004038E9: CC                   int3
0x004038EA: CC                   int3
0x004038EB: CC                   int3
0x004038EC: CC                   int3
0x004038ED: CC                   int3
0x004038EE: CC                   int3
0x004038EF: CC                   int3
0x004038F0: E8 9B FE 0C 00       call 0x4d3790
0x004038F5: 68 A0 00 00 00       push 0xa0
0x004038FA: 68 18 1F 9E 00       push 0x9e1f18
0x004038FF: 6A 10                push 0x10
0x00403901: 52                   push edx
0x00403902: 50                   push eax
0x00403903: E8 A8 14 0D 00       call 0x4d4db0
0x00403908: 83 C4 14             add esp, 0x14
0x0040390B: C3                   ret
0x0040390C: CC                   int3
0x0040390D: CC                   int3
0x0040390E: CC                   int3
0x0040390F: CC                   int3
0x00403910: 55                   push ebp
0x00403911: 8B EC                mov ebp, esp
0x00403913: 81 EC C8 04 00 00    sub esp, 0x4c8
0x00403919: 56                   push esi
0x0040391A: 8B 75 14             mov esi, dword ptr [ebp + 0x14]
0x0040391D: 8D 45 F8             lea eax, [ebp - 8]
0x00403920: 50                   push eax
0x00403921: 8B CE                mov ecx, esi
0x00403923: E8 98 7A 07 00       call 0x47b3c0
0x00403928: 8D 4D FE             lea ecx, [ebp - 2]
0x0040392B: 51                   push ecx
0x0040392C: 8B CE                mov ecx, esi
0x0040392E: E8 0D 7A 07 00       call 0x47b340
0x00403933: 8B 45 F8             mov eax, dword ptr [ebp - 8]
0x00403936: 8B 0D 70 41 AD 00    mov ecx, dword ptr [0xad4170]
0x0040393C: 3B C1                cmp eax, ecx
0x0040393E: 0F 8C CA 01 00 00    jl 0x403b0e
0x00403944: 3B 05 6C 41 AD 00    cmp eax, dword ptr [0xad416c]
0x0040394A: 0F 8F BE 01 00 00    jg 0x403b0e
0x00403950: 8B 15 80 41 AD 00    mov edx, dword ptr [0xad4180]
0x00403956: 2B C1                sub eax, ecx
0x00403958: 57                   push edi
0x00403959: 8B 3C 82             mov edi, dword ptr [edx + eax*4]
0x0040395C: 85 FF                test edi, edi
0x0040395E: 0F 84 A9 01 00 00    je 0x403b0d
0x00403964: 0F B6 45 FE          movzx eax, byte ptr [ebp - 2]
0x00403968: 83 C0 FF             add eax, -1
0x0040396B: 83 F8 0F             cmp eax, 0xf
0x0040396E: 0F 87 99 01 00 00    ja 0x403b0d
0x00403974: FF 24 85 2C 3B 40 00 jmp dword ptr [eax*4 + 0x403b2c]
0x0040397B: 6A 00                push 0
0x0040397D: 6A FF                push -1
0x0040397F: 68 00 21 9E 00       push 0x9e2100
0x00403984: E9 32 01 00 00       jmp 0x403abb
0x00403989: 6A 00                push 0
0x0040398B: 6A FF                push -1
0x0040398D: 68 E4 20 9E 00       push 0x9e20e4
0x00403992: E9 24 01 00 00       jmp 0x403abb
0x00403997: 6A 00                push 0
0x00403999: 6A FF                push -1
0x0040399B: 68 C8 20 9E 00       push 0x9e20c8
0x004039A0: E9 16 01 00 00       jmp 0x403abb
0x004039A5: 6A 00                push 0
0x004039A7: 6A FF                push -1
0x004039A9: 68 A4 20 9E 00       push 0x9e20a4
0x004039AE: E9 08 01 00 00       jmp 0x403abb
0x004039B3: 6A 00                push 0
0x004039B5: 6A FF                push -1
0x004039B7: 68 84 20 9E 00       push 0x9e2084
0x004039BC: E9 FA 00 00 00       jmp 0x403abb
0x004039C1: 8D 45 FD             lea eax, [ebp - 3]
0x004039C4: 50                   push eax
0x004039C5: 8B CE                mov ecx, esi
0x004039C7: E8 74 79 07 00       call 0x47b340
0x004039CC: 0F B6 4D FD          movzx ecx, byte ptr [ebp - 3]
0x004039D0: 51                   push ecx
0x004039D1: 68 60 20 9E 00       push 0x9e2060
0x004039D6: 8D 95 38 FF FF FF    lea edx, [ebp - 0xc8]
0x004039DC: 6A 40                push 0x40
0x004039DE: 52                   push edx
0x004039DF: E8 8C B6 36 00       call 0x76f070
0x004039E4: 6A 00                push 0
0x004039E6: 8D 85 38 FF FF FF    lea eax, [ebp - 0xc8]
0x004039EC: 6A FF                push -1
0x004039EE: 50                   push eax
0x004039EF: E8 4C 63 41 00       call 0x819d40
0x004039F4: 83 C4 1C             add esp, 0x1c
0x004039F7: E9 C7 00 00 00       jmp 0x403ac3
0x004039FC: 6A 00                push 0
0x004039FE: 6A FF                push -1
0x00403A00: 68 44 20 9E 00       push 0x9e2044
0x00403A05: E9 B1 00 00 00       jmp 0x403abb
0x00403A0A: 6A 00                push 0
0x00403A0C: 6A FF                push -1
0x00403A0E: 68 28 20 9E 00       push 0x9e2028
0x00403A13: E9 A3 00 00 00       jmp 0x403abb
0x00403A18: 8D 4D FF             lea ecx, [ebp - 1]
0x00403A1B: 51                   push ecx
0x00403A1C: 8B CE                mov ecx, esi
0x00403A1E: E8 1D 79 07 00       call 0x47b340
0x00403A23: 0F B6 55 FF          movzx edx, byte ptr [ebp - 1]
0x00403A27: 8B 07                mov eax, dword ptr [edi]
0x00403A29: 6A 00                push 0
0x00403A2B: 52                   push edx
0x00403A2C: 50                   push eax
0x00403A2D: E8 1E 0F 23 00       call 0x634950
0x00403A32: 83 C4 0C             add esp, 0xc
0x00403A35: 85 C0                test eax, eax
0x00403A37: 74 0C                je 0x403a45
0x00403A39: 8B 40 0C             mov eax, dword ptr [eax + 0xc]
0x00403A3C: 85 C0                test eax, eax
0x00403A3E: 74 05                je 0x403a45
0x00403A40: 80 38 00             cmp byte ptr [eax], 0
0x00403A43: 75 7E                jne 0x403ac3
0x00403A45: 0F B6 4D FF          movzx ecx, byte ptr [ebp - 1]
0x00403A49: 83 C1 01             add ecx, 1
0x00403A4C: 51                   push ecx
0x00403A4D: 68 0C 20 9E 00       push 0x9e200c
0x00403A52: 8D 55 B8             lea edx, [ebp - 0x48]
0x00403A55: 6A 40                push 0x40
0x00403A57: 52                   push edx
0x00403A58: E8 13 B6 36 00       call 0x76f070
0x00403A5D: 6A 00                push 0
0x00403A5F: 8D 45 B8             lea eax, [ebp - 0x48]
0x00403A62: 6A FF                push -1
0x00403A64: 50                   push eax
0x00403A65: E8 D6 62 41 00       call 0x819d40
0x00403A6A: 83 C4 1C             add esp, 0x1c
0x00403A6D: EB 54                jmp 0x403ac3
0x00403A6F: 8D 4D FC             lea ecx, [ebp - 4]
0x00403A72: 51                   push ecx
0x00403A73: 8B CE                mov ecx, esi
0x00403A75: E8 C6 78 07 00       call 0x47b340
0x00403A7A: 0F B6 55 FC          movzx edx, byte ptr [ebp - 4]
0x00403A7E: 52                   push edx
0x00403A7F: 68 EC 1F 9E 00       push 0x9e1fec
0x00403A84: 8D 85 78 FF FF FF    lea eax, [ebp - 0x88]
0x00403A8A: 6A 40                push 0x40
0x00403A8C: 50                   push eax
0x00403A8D: E8 DE B5 36 00       call 0x76f070
0x00403A92: 6A 00                push 0
0x00403A94: 8D 8D 78 FF FF FF    lea ecx, [ebp - 0x88]
0x00403A9A: 6A FF                push -1
0x00403A9C: 51                   push ecx
0x00403A9D: E8 9E 62 41 00       call 0x819d40
0x00403AA2: 83 C4 1C             add esp, 0x1c
0x00403AA5: EB 1C                jmp 0x403ac3
0x00403AA7: 6A 00                push 0
0x00403AA9: 6A FF                push -1
0x00403AAB: 68 C4 1F 9E 00       push 0x9e1fc4
0x00403AB0: EB 09                jmp 0x403abb
0x00403AB2: 6A 00                push 0
0x00403AB4: 6A FF                push -1
0x00403AB6: 68 A4 1F 9E 00       push 0x9e1fa4
0x00403ABB: E8 80 62 41 00       call 0x819d40
0x00403AC0: 83 C4 0C             add esp, 0xc
0x00403AC3: 85 C0                test eax, eax
0x00403AC5: 74 46                je 0x403b0d
0x00403AC7: 80 38 00             cmp byte ptr [eax], 0
0x00403ACA: 74 41                je 0x403b0d
0x00403ACC: 8B 57 14             mov edx, dword ptr [edi + 0x14]
0x00403ACF: 52                   push edx
0x00403AD0: 50                   push eax
0x00403AD1: 8D 85 38 FB FF FF    lea eax, [ebp - 0x4c8]
0x00403AD7: 68 00 04 00 00       push 0x400
0x00403ADC: 50                   push eax
0x00403ADD: E8 8E B5 36 00       call 0x76f070
0x00403AE2: 6A 00                push 0
0x00403AE4: 6A 00                push 0
0x00403AE6: 6A 00                push 0
0x00403AE8: 6A 00                push 0
0x00403AEA: 6A 00                push 0
0x00403AEC: 6A 00                push 0
0x00403AEE: 6A 00                push 0
0x00403AF0: 6A 00                push 0
0x00403AF2: 6A 00                push 0
0x00403AF4: 6A 00                push 0
0x00403AF6: 6A 00                push 0
0x00403AF8: 6A 00                push 0
0x00403AFA: 6A 00                push 0
0x00403AFC: 8D 8D 38 FB FF FF    lea ecx, [ebp - 0x4c8]
0x00403B02: 6A 00                push 0
0x00403B04: 51                   push ecx
0x00403B05: E8 C6 62 10 00       call 0x509dd0
0x00403B0A: 83 C4 4C             add esp, 0x4c
0x00403B0D: 5F                   pop edi
0x00403B0E: 68 88 1F 9E 00       push 0x9e1f88
0x00403B13: E8 98 18 36 00       call 0x7653b0
0x00403B18: 83 C4 04             add esp, 4
0x00403B1B: E8 30 5A 00 00       call 0x409550
0x00403B20: B8 01 00 00 00       mov eax, 1
0x00403B25: 5E                   pop esi
0x00403B26: 8B E5                mov esp, ebp
0x00403B28: 5D                   pop ebp
0x00403B29: C3                   ret
0x00403B2A: 8B FF                mov edi, edi
0x00403B2C: 7B 39                jnp 0x403b67
0x00403B2E: 40                   inc eax
0x00403B2F: 00 89 39 40 00 97    add byte ptr [ecx - 0x68ffbfc7], cl
0x00403B35: 39 40 00             cmp dword ptr [eax], eax
0x00403B38: A5                   movsd dword ptr es:[edi], dword ptr [esi]
0x00403B39: 39 40 00             cmp dword ptr [eax], eax
0x00403B3C: 0D 3B 40 00 B3       or eax, 0xb300403b
0x00403B41: 39 40 00             cmp dword ptr [eax], eax
0x00403B44: C1 39 40             sar dword ptr [ecx], 0x40
0x00403B47: 00 18                add byte ptr [eax], bl
0x00403B49: 3A 40 00             cmp al, byte ptr [eax]
0x00403B4C: 6F                   outsd dx, dword ptr [esi]
0x00403B4D: 3A 40 00             cmp al, byte ptr [eax]
0x00403B50: A7                   cmpsd dword ptr [esi], dword ptr es:[edi]
0x00403B51: 3A 40 00             cmp al, byte ptr [eax]
0x00403B54: FC                   cld
0x00403B55: 39 40 00             cmp dword ptr [eax], eax
0x00403B58: 97                   xchg edi, eax
0x00403B59: 39 40 00             cmp dword ptr [eax], eax
0x00403B5C: 97                   xchg edi, eax
0x00403B5D: 39 40 00             cmp dword ptr [eax], eax
0x00403B60: 97                   xchg edi, eax
0x00403B61: 39 40 00             cmp dword ptr [eax], eax
0x00403B64: 0A 3A                or bh, byte ptr [edx]
0x00403B66: 40                   inc eax
0x00403B67: 00 B2 3A 40 00 CC    add byte ptr [edx - 0x33ffbfc6], dh
0x00403B6D: CC                   int3
0x00403B6E: CC                   int3
0x00403B6F: CC                   int3
0x00403B70: 55                   push ebp
0x00403B71: 8B EC                mov ebp, esp
0x00403B73: 83 EC 18             sub esp, 0x18
0x00403B76: 56                   push esi
0x00403B77: 57                   push edi
0x00403B78: 33 FF                xor edi, edi
0x00403B7A: 57                   push edi
0x00403B7B: E8 F0 CD 2A 00       call 0x6b0970
0x00403B80: 8B C8                mov ecx, eax
0x00403B82: E8 B9 DC 2A 00       call 0x6b1840
0x00403B87: E8 A4 D0 2E 00       call 0x6f0c30
0x00403B8C: 68 90 14 6F 00       push 0x6f1490
0x00403B91: 6A 06                push 6
0x00403B93: E8 F8 9B 07 00       call 0x47d790
0x00403B98: E8 D3 FB 2F 00       call 0x703770
0x00403B9D: E8 BE 5E 40 00       call 0x809a60
0x00403BA2: E8 49 AE 12 00       call 0x52e9f0
0x00403BA7: E8 A4 2B 0D 00       call 0x4d6750
0x00403BAC: E8 3F 8E 3F 00       call 0x7fc9f0
0x00403BB1: E8 0A 68 2F 00       call 0x6fa3c0
0x00403BB6: 57                   push edi
0x00403BB7: E8 64 34 0F 00       call 0x4f7020
0x00403BBC: 8B 0D 6C 43 B7 00    mov ecx, dword ptr [0xb7436c]
0x00403BC2: 83 C4 0C             add esp, 0xc
0x00403BC5: 3B CF                cmp ecx, edi
0x00403BC7: 74 05                je 0x403bce
0x00403BC9: E8 02 6A 0F 00       call 0x4fa5d0
0x00403BCE: E8 2D 83 2F 00       call 0x6fbf00
0x00403BD3: E8 A8 F5 37 00       call 0x783180
0x00403BD8: 8B 0D 44 75 CD 00    mov ecx, dword ptr [0xcd7544]
0x00403BDE: 3B CF                cmp ecx, edi
0x00403BE0: 74 05                je 0x403be7
0x00403BE2: E8 49 95 38 00       call 0x78d130
0x00403BE7: 6A FF                push -1
0x00403BE9: E8 22 4A 0C 00       call 0x4c8610
0x00403BEE: E8 FD 0E 40 00       call 0x804af0
0x00403BF3: A1 48 F0 B2 00       mov eax, dword ptr [0xb2f048]
0x00403BF8: 50                   push eax
0x00403BF9: E8 52 3B 0D 00       call 0x4d7750
0x00403BFE: E8 1D D9 FF FF       call 0x401520
0x00403C03: E8 C8 73 2F 00       call 0x6fafd0
0x00403C08: E8 23 90 12 00       call 0x52cc30
0x00403C0D: 57                   push edi
0x00403C0E: 57                   push edi
0x00403C0F: E8 1C 5D 0B 00       call 0x4b9930
0x00403C14: 57                   push edi
0x00403C15: 68 F0 AE 40 00       push 0x40aef0
0x00403C1A: E8 F1 5C 0B 00       call 0x4b9910
0x00403C1F: 57                   push edi
0x00403C20: 68 40 AF 40 00       push 0x40af40
0x00403C25: E8 66 B0 37 00       call 0x77ec90
0x00403C2A: 8B 0D 48 F0 B2 00    mov ecx, dword ptr [0xb2f048]
0x00403C30: 8B 15 40 F0 B2 00    mov edx, dword ptr [0xb2f040]
0x00403C36: 6A 01                push 1
0x00403C38: 51                   push ecx
0x00403C39: 68 1C FA B2 00       push 0xb2fa1c
0x00403C3E: 52                   push edx
0x00403C3F: E8 EC D7 37 00       call 0x781430
0x00403C44: 57                   push edi
0x00403C45: 57                   push edi
0x00403C46: E8 C5 5C 0B 00       call 0x4b9910
0x00403C4B: 57                   push edi
0x00403C4C: 57                   push edi
0x00403C4D: E8 3E B0 37 00       call 0x77ec90
0x00403C52: 83 C4 40             add esp, 0x40
0x00403C55: E8 06 1D 0F 00       call 0x4f5960
0x00403C5A: D9 EE                fldz
0x00403C5C: 8B F0                mov esi, eax
0x00403C5E: A1 1C FA B2 00       mov eax, dword ptr [0xb2fa1c]
0x00403C63: 89 46 08             mov dword ptr [esi + 8], eax
0x00403C66: 8B 0D 20 FA B2 00    mov ecx, dword ptr [0xb2fa20]
0x00403C6C: 89 4E 0C             mov dword ptr [esi + 0xc], ecx
0x00403C6F: 8B 15 24 FA B2 00    mov edx, dword ptr [0xb2fa24]
0x00403C75: 83 EC 0C             sub esp, 0xc
0x00403C78: D9 54 24 08          fst dword ptr [esp + 8]
0x00403C7C: 89 56 10             mov dword ptr [esi + 0x10], edx
0x00403C7F: D9 5C 24 04          fstp dword ptr [esp + 4]
0x00403C83: 8B CE                mov ecx, esi
0x00403C85: D9 05 44 F0 B2 00    fld dword ptr [0xb2f044]
0x00403C8B: D9 1C 24             fstp dword ptr [esp]
0x00403C8E: E8 3D 3F 20 00       call 0x607bd0
0x00403C93: 57                   push edi
0x00403C94: 57                   push edi
0x00403C95: 8B CE                mov ecx, esi
0x00403C97: E8 44 2A 20 00       call 0x6066e0
0x00403C9C: 39 7D 0C             cmp dword ptr [ebp + 0xc], edi
0x00403C9F: 74 55                je 0x403cf6
0x00403CA1: BE 24 0E 9E 00       mov esi, 0x9e0e24
0x00403CA6: 68 DC 00 00 00       push 0xdc
0x00403CAB: 8D 4D E8             lea ecx, [ebp - 0x18]
0x00403CAE: 89 75 E8             mov dword ptr [ebp - 0x18], esi
0x00403CB1: 89 7D EC             mov dword ptr [ebp - 0x14], edi
0x00403CB4: 89 7D F0             mov dword ptr [ebp - 0x10], edi
0x00403CB7: 89 7D F4             mov dword ptr [ebp - 0xc], edi
0x00403CBA: 89 7D F8             mov dword ptr [ebp - 8], edi
0x00403CBD: C7 45 FC FF FF FF FF mov dword ptr [ebp - 4], 0xffffffff
0x00403CC4: E8 D7 73 07 00       call 0x47b0a0
0x00403CC9: 8D 45 E8             lea eax, [ebp - 0x18]
0x00403CCC: 50                   push eax
0x00403CCD: 89 7D FC             mov dword ptr [ebp - 4], edi
0x00403CD0: E8 7B CE 2A 00       call 0x6b0b50
0x00403CD5: 83 C4 04             add esp, 4
0x00403CD8: 83 7D F4 FF          cmp dword ptr [ebp - 0xc], -1
0x00403CDC: 89 75 E8             mov dword ptr [ebp - 0x18], esi
0x00403CDF: 74 15                je 0x403cf6
0x00403CE1: 8D 4D F4             lea ecx, [ebp - 0xc]
0x00403CE4: 51                   push ecx
0x00403CE5: 8D 55 F0             lea edx, [ebp - 0x10]
0x00403CE8: 52                   push edx
0x00403CE9: 8D 45 EC             lea eax, [ebp - 0x14]
0x00403CEC: 50                   push eax
0x00403CED: 8D 4D E8             lea ecx, [ebp - 0x18]
0x00403CF0: FF 15 28 0E 9E 00    call dword ptr [0x9e0e28]
0x00403CF6: 5F                   pop edi
0x00403CF7: B8 01 00 00 00       mov eax, 1
0x00403CFC: 5E                   pop esi
0x00403CFD: 8B E5                mov esp, ebp
0x00403CFF: 5D                   pop ebp
0x00403D00: C3                   ret
0x00403D01: CC                   int3
0x00403D02: CC                   int3
0x00403D03: CC                   int3
0x00403D04: CC                   int3
0x00403D05: CC                   int3
0x00403D06: CC                   int3
0x00403D07: CC                   int3
0x00403D08: CC                   int3
0x00403D09: CC                   int3
0x00403D0A: CC                   int3
0x00403D0B: CC                   int3
0x00403D0C: CC                   int3
0x00403D0D: CC                   int3
0x00403D0E: CC                   int3
0x00403D0F: CC                   int3
0x00403D10: 55                   push ebp
0x00403D11: 8B EC                mov ebp, esp
0x00403D13: 56                   push esi
0x00403D14: 8B 75 14             mov esi, dword ptr [ebp + 0x14]
0x00403D17: 68 48 F0 B2 00       push 0xb2f048
0x00403D1C: 8B CE                mov ecx, esi
0x00403D1E: E8 9D 76 07 00       call 0x47b3c0
0x00403D23: 68 1C FA B2 00       push 0xb2fa1c
0x00403D28: 8B CE                mov ecx, esi
0x00403D2A: E8 11 77 07 00       call 0x47b440
0x00403D2F: 68 20 FA B2 00       push 0xb2fa20
0x00403D34: 8B CE                mov ecx, esi
0x00403D36: E8 05 77 07 00       call 0x47b440
0x00403D3B: 68 24 FA B2 00       push 0xb2fa24
0x00403D40: 8B CE                mov ecx, esi
0x00403D42: E8 F9 76 07 00       call 0x47b440
0x00403D47: 68 44 F0 B2 00       push 0xb2f044
0x00403D4C: 8B CE                mov ecx, esi
0x00403D4E: E8 ED 76 07 00       call 0x47b440
0x00403D53: 8B 06                mov eax, dword ptr [esi]
0x00403D55: 8B 50 14             mov edx, dword ptr [eax + 0x14]
0x00403D58: 8B CE                mov ecx, esi
0x00403D5A: FF D2                call edx
0x00403D5C: 85 C0                test eax, eax
0x00403D5E: 75 1F                jne 0x403d7f
0x00403D60: 50                   push eax
0x00403D61: 68 34 21 9E 00       push 0x9e2134
0x00403D66: E8 05 15 36 00       call 0x765270
0x00403D6B: 8B 06                mov eax, dword ptr [esi]
0x00403D6D: 8B 50 18             mov edx, dword ptr [eax + 0x18]
0x00403D70: 83 C4 08             add esp, 8
0x00403D73: 8B CE                mov ecx, esi
0x00403D75: FF D2                call edx
0x00403D77: B8 01 00 00 00       mov eax, 1
0x00403D7C: 5E                   pop esi
0x00403D7D: 5D                   pop ebp
0x00403D7E: C3                   ret
0x00403D7F: A1 48 F0 B2 00       mov eax, dword ptr [0xb2f048]
0x00403D84: 8B 0D 70 41 AD 00    mov ecx, dword ptr [0xad4170]
0x00403D8A: 3B C1                cmp eax, ecx
0x00403D8C: 7C 17                jl 0x403da5
0x00403D8E: 3B 05 6C 41 AD 00    cmp eax, dword ptr [0xad416c]
0x00403D94: 7F 0F                jg 0x403da5
0x00403D96: 2B C1                sub eax, ecx
0x00403D98: 8B 0D 80 41 AD 00    mov ecx, dword ptr [0xad4180]
0x00403D9E: 8B 04 81             mov eax, dword ptr [ecx + eax*4]
0x00403DA1: 85 C0                test eax, eax
0x00403DA3: 75 14                jne 0x403db9
0x00403DA5: 6A 00                push 0
0x00403DA7: 68 18 21 9E 00       push 0x9e2118
0x00403DAC: E8 BF 14 36 00       call 0x765270
0x00403DB1: 83 C4 08             add esp, 8
0x00403DB4: 33 C0                xor eax, eax
0x00403DB6: 5E                   pop esi
0x00403DB7: 5D                   pop ebp
0x00403DB8: C3                   ret
0x00403DB9: 8B 50 04             mov edx, dword ptr [eax + 4]
0x00403DBC: 6A 01                push 1
0x00403DBE: 68 70 3B 40 00       push 0x403b70
0x00403DC3: 6A 00                push 0
0x00403DC5: 89 15 40 F0 B2 00    mov dword ptr [0xb2f040], edx
0x00403DCB: E8 60 97 07 00       call 0x47d530
0x00403DD0: 83 C4 0C             add esp, 0xc
0x00403DD3: B8 01 00 00 00       mov eax, 1
0x00403DD8: 5E                   pop esi
0x00403DD9: 5D                   pop ebp
0x00403DDA: C3                   ret
0x00403DDB: CC                   int3
0x00403DDC: CC                   int3
0x00403DDD: CC                   int3
0x00403DDE: CC                   int3
0x00403DDF: CC                   int3
0x00403DE0: 55                   push ebp
0x00403DE1: 8B EC                mov ebp, esp
0x00403DE3: 83 EC 14             sub esp, 0x14
0x00403DE6: D9 EE                fldz
0x00403DE8: 56                   push esi
0x00403DE9: 8B 75 14             mov esi, dword ptr [ebp + 0x14]
0x00403DEC: D9 55 EC             fst dword ptr [ebp - 0x14]
0x00403DEF: 8D 45 FC             lea eax, [ebp - 4]
0x00403DF2: D9 55 F0             fst dword ptr [ebp - 0x10]
0x00403DF5: 50                   push eax
0x00403DF6: D9 5D F4             fstp dword ptr [ebp - 0xc]
0x00403DF9: 8B CE                mov ecx, esi
0x00403DFB: E8 C0 75 07 00       call 0x47b3c0
0x00403E00: 8D 4D EC             lea ecx, [ebp - 0x14]
0x00403E03: 51                   push ecx
0x00403E04: 8B CE                mov ecx, esi
0x00403E06: E8 35 76 07 00       call 0x47b440
0x00403E0B: 8D 55 F0             lea edx, [ebp - 0x10]
0x00403E0E: 52                   push edx
0x00403E0F: 8B CE                mov ecx, esi
0x00403E11: E8 2A 76 07 00       call 0x47b440
0x00403E16: 8D 45 F4             lea eax, [ebp - 0xc]
0x00403E19: 50                   push eax
0x00403E1A: 8B CE                mov ecx, esi
0x00403E1C: E8 1F 76 07 00       call 0x47b440
0x00403E21: 8D 4D F8             lea ecx, [ebp - 8]
0x00403E24: 51                   push ecx
0x00403E25: 8B CE                mov ecx, esi
0x00403E27: E8 14 76 07 00       call 0x47b440
0x00403E2C: E8 AF F9 0C 00       call 0x4d37e0
0x00403E31: 8B 4D FC             mov ecx, dword ptr [ebp - 4]
0x00403E34: 3B C8                cmp ecx, eax
0x00403E36: 5E                   pop esi
0x00403E37: 74 72                je 0x403eab
0x00403E39: 8B 45 F0             mov eax, dword ptr [ebp - 0x10]
0x00403E3C: D9 45 F8             fld dword ptr [ebp - 8]
0x00403E3F: 8B 55 EC             mov edx, dword ptr [ebp - 0x14]
0x00403E42: D9 1D 44 F0 B2 00    fstp dword ptr [0xb2f044]
0x00403E48: A3 20 FA B2 00       mov dword ptr [0xb2fa20], eax
0x00403E4D: A1 70 41 AD 00       mov eax, dword ptr [0xad4170]
0x00403E52: 3B C8                cmp ecx, eax
0x00403E54: 89 15 1C FA B2 00    mov dword ptr [0xb2fa1c], edx
0x00403E5A: 8B 55 F4             mov edx, dword ptr [ebp - 0xc]
0x00403E5D: 89 0D 48 F0 B2 00    mov dword ptr [0xb2f048], ecx
0x00403E63: 89 15 24 FA B2 00    mov dword ptr [0xb2fa24], edx
0x00403E69: 7C 16                jl 0x403e81
0x00403E6B: 3B 0D 6C 41 AD 00    cmp ecx, dword ptr [0xad416c]
0x00403E71: 7F 0E                jg 0x403e81
0x00403E73: 2B C8                sub ecx, eax
0x00403E75: A1 80 41 AD 00       mov eax, dword ptr [0xad4180]
0x00403E7A: 8B 0C 88             mov ecx, dword ptr [eax + ecx*4]
0x00403E7D: 85 C9                test ecx, ecx
0x00403E7F: 75 15                jne 0x403e96
0x00403E81: 6A 00                push 0
0x00403E83: 68 18 21 9E 00       push 0x9e2118
0x00403E88: E8 E3 13 36 00       call 0x765270
0x00403E8D: 83 C4 08             add esp, 8
0x00403E90: 33 C0                xor eax, eax
0x00403E92: 8B E5                mov esp, ebp
0x00403E94: 5D                   pop ebp
0x00403E95: C3                   ret
0x00403E96: 8B 49 04             mov ecx, dword ptr [ecx + 4]
0x00403E99: 6A 00                push 0
0x00403E9B: 6A 00                push 0
0x00403E9D: 89 0D 40 F0 B2 00    mov dword ptr [0xb2f040], ecx
0x00403EA3: E8 C8 FC FF FF       call 0x403b70
0x00403EA8: 83 C4 08             add esp, 8
0x00403EAB: B8 01 00 00 00       mov eax, 1
0x00403EB0: 8B E5                mov esp, ebp
0x00403EB2: 5D                   pop ebp
0x00403EB3: C3                   ret
0x00403EB4: CC                   int3
0x00403EB5: CC                   int3
0x00403EB6: CC                   int3
0x00403EB7: CC                   int3
0x00403EB8: CC                   int3
0x00403EB9: CC                   int3
0x00403EBA: CC                   int3
0x00403EBB: CC                   int3
0x00403EBC: CC                   int3
0x00403EBD: CC                   int3
0x00403EBE: CC                   int3
0x00403EBF: CC                   int3
0x00403EC0: 56                   push esi
0x00403EC1: 8B F1                mov esi, ecx
0x00403EC3: 8D 56 0C             lea edx, [esi + 0xc]
0x00403EC6: 8D 4E 08             lea ecx, [esi + 8]
0x00403EC9: 52                   push edx
0x00403ECA: 8D 46 04             lea eax, [esi + 4]
0x00403ECD: 51                   push ecx
0x00403ECE: C7 01 00 00 00 00    mov dword ptr [ecx], 0
0x00403ED4: 50                   push eax
0x00403ED5: 8B CE                mov ecx, esi
0x00403ED7: C7 00 00 00 00 00    mov dword ptr [eax], 0
0x00403EDD: C7 02 00 00 00 00    mov dword ptr [edx], 0
0x00403EE3: C7 46 10 00 00 00 00 mov dword ptr [esi + 0x10], 0
0x00403EEA: C7 46 14 FF FF FF FF mov dword ptr [esi + 0x14], 0xffffffff
0x00403EF1: C7 06 48 21 9E 00    mov dword ptr [esi], 0x9e2148
0x00403EF7: FF 15 48 21 9E 00    call dword ptr [0x9e2148]
0x00403EFD: 8B C6                mov eax, esi
0x00403EFF: 5E                   pop esi
0x00403F00: C3                   ret
0x00403F01: CC                   int3
0x00403F02: CC                   int3
0x00403F03: CC                   int3
0x00403F04: CC                   int3
0x00403F05: CC                   int3
0x00403F06: CC                   int3
0x00403F07: CC                   int3
0x00403F08: CC                   int3
0x00403F09: CC                   int3
0x00403F0A: CC                   int3
0x00403F0B: CC                   int3
0x00403F0C: CC                   int3
0x00403F0D: CC                   int3
0x00403F0E: CC                   int3
0x00403F0F: CC                   int3
0x00403F10: 56                   push esi
0x00403F11: 8B F1                mov esi, ecx
0x00403F13: 83 7E 0C FF          cmp dword ptr [esi + 0xc], -1
0x00403F17: 57                   push edi
0x00403F18: 8D 7E 0C             lea edi, [esi + 0xc]
0x00403F1B: C7 06 48 21 9E 00    mov dword ptr [esi], 0x9e2148
0x00403F21: 74 11                je 0x403f34
0x00403F23: 57                   push edi
0x00403F24: 8D 46 08             lea eax, [esi + 8]
0x00403F27: 50                   push eax
0x00403F28: 8D 4E 04             lea ecx, [esi + 4]
0x00403F2B: 51                   push ecx
0x00403F2C: 8B CE                mov ecx, esi
0x00403F2E: FF 15 4C 21 9E 00    call dword ptr [0x9e214c]
0x00403F34: 83 3F FF             cmp dword ptr [edi], -1
0x00403F37: C7 06 24 0E 9E 00    mov dword ptr [esi], 0x9e0e24
0x00403F3D: 74 11                je 0x403f50
0x00403F3F: 57                   push edi
0x00403F40: 8D 56 08             lea edx, [esi + 8]
0x00403F43: 52                   push edx
0x00403F44: 8D 46 04             lea eax, [esi + 4]
0x00403F47: 50                   push eax
0x00403F48: 8B CE                mov ecx, esi
0x00403F4A: FF 15 28 0E 9E 00    call dword ptr [0x9e0e28]
0x00403F50: 5F                   pop edi
0x00403F51: 5E                   pop esi
0x00403F52: C3                   ret
0x00403F53: CC                   int3
0x00403F54: CC                   int3
0x00403F55: CC                   int3
0x00403F56: CC                   int3
0x00403F57: CC                   int3
0x00403F58: CC                   int3
0x00403F59: CC                   int3
0x00403F5A: CC                   int3
0x00403F5B: CC                   int3
0x00403F5C: CC                   int3
0x00403F5D: CC                   int3
0x00403F5E: CC                   int3
0x00403F5F: CC                   int3
0x00403F60: 55                   push ebp
0x00403F61: 8B EC                mov ebp, esp
0x00403F63: 56                   push esi
0x00403F64: 8B F1                mov esi, ecx
0x00403F66: 83 7E 0C FF          cmp dword ptr [esi + 0xc], -1
0x00403F6A: 57                   push edi
0x00403F6B: 8D 7E 0C             lea edi, [esi + 0xc]
0x00403F6E: C7 06 48 21 9E 00    mov dword ptr [esi], 0x9e2148
0x00403F74: 74 11                je 0x403f87
0x00403F76: 57                   push edi
0x00403F77: 8D 46 08             lea eax, [esi + 8]
0x00403F7A: 50                   push eax
0x00403F7B: 8D 4E 04             lea ecx, [esi + 4]
0x00403F7E: 51                   push ecx
0x00403F7F: 8B CE                mov ecx, esi
0x00403F81: FF 15 4C 21 9E 00    call dword ptr [0x9e214c]
0x00403F87: 83 3F FF             cmp dword ptr [edi], -1
0x00403F8A: C7 06 24 0E 9E 00    mov dword ptr [esi], 0x9e0e24
0x00403F90: 74 11                je 0x403fa3
0x00403F92: 57                   push edi
0x00403F93: 8D 56 08             lea edx, [esi + 8]
0x00403F96: 52                   push edx
0x00403F97: 8D 46 04             lea eax, [esi + 4]
0x00403F9A: 50                   push eax
0x00403F9B: 8B CE                mov ecx, esi
0x00403F9D: FF 15 28 0E 9E 00    call dword ptr [0x9e0e28]
0x00403FA3: F6 45 08 01          test byte ptr [ebp + 8], 1
0x00403FA7: 74 0F                je 0x403fb8
0x00403FA9: 6A 00                push 0
0x00403FAB: 6A FF                push -1
0x00403FAD: 68 0C 0E 9E 00       push 0x9e0e0c
0x00403FB2: 56                   push esi
0x00403FB3: E8 E8 A5 36 00       call 0x76e5a0
0x00403FB8: 5F                   pop edi
0x00403FB9: 8B C6                mov eax, esi
0x00403FBB: 5E                   pop esi
0x00403FBC: 5D                   pop ebp
0x00403FBD: C2 04 00             ret 4
0x00403FC0: 55                   push ebp
0x00403FC1: 8B EC                mov ebp, esp
0x00403FC3: 81 EC A4 00 00 00    sub esp, 0xa4
0x00403FC9: 80 3D E0 F9 B2 00 00 cmp byte ptr [0xb2f9e0], 0
0x00403FD0: 0F 84 4D 01 00 00    je 0x404123
0x00403FD6: 56                   push esi
0x00403FD7: E8 94 C9 2A 00       call 0x6b0970
0x00403FDC: 83 3D A0 F9 B2 00 00 cmp dword ptr [0xb2f9a0], 0
0x00403FE3: 8B F0                mov esi, eax
0x00403FE5: 0F 84 37 01 00 00    je 0x404122
0x00403FEB: 85 F6                test esi, esi
0x00403FED: 0F 84 2F 01 00 00    je 0x404122
0x00403FF3: E8 28 6E 46 00       call 0x86ae20
0x00403FF8: 8B C8                mov ecx, eax
0x00403FFA: 2B 0D E4 F9 B2 00    sub ecx, dword ptr [0xb2f9e4]
0x00404000: 81 F9 E8 03 00 00    cmp ecx, 0x3e8
0x00404006: 0F 82 16 01 00 00    jb 0x404122
0x0040400C: A3 E4 F9 B2 00       mov dword ptr [0xb2f9e4], eax
0x00404011: A1 E8 F9 B2 00       mov eax, dword ptr [0xb2f9e8]
0x00404016: 83 E8 01             sub eax, 1
0x00404019: 85 C0                test eax, eax
0x0040401B: A3 E8 F9 B2 00       mov dword ptr [0xb2f9e8], eax
0x00404020: 0F 8F FC 00 00 00    jg 0x404122
0x00404026: 8D 55 FC             lea edx, [ebp - 4]
0x00404029: 52                   push edx
0x0040402A: 8D 45 F4             lea eax, [ebp - 0xc]
0x0040402D: 50                   push eax
0x0040402E: 8D 4D F8             lea ecx, [ebp - 8]
0x00404031: 51                   push ecx
0x00404032: C6 05 E0 F9 B2 00 00 mov byte ptr [0xb2f9e0], 0
0x00404039: E8 82 83 46 00       call 0x86c3c0
0x0040403E: 83 C4 0C             add esp, 0xc
0x00404041: 85 C0                test eax, eax
0x00404043: 0F 84 D9 00 00 00    je 0x404122
0x00404049: 8D 8D 5C FF FF FF    lea ecx, [ebp - 0xa4]
0x0040404F: E8 4C 6A 37 00       call 0x77aaa0
0x00404054: 6A 28                push 0x28
0x00404056: 8B CE                mov ecx, esi
0x00404058: E8 33 DF 22 00       call 0x631f90
0x0040405D: 50                   push eax
0x0040405E: 8D 8D 5C FF FF FF    lea ecx, [ebp - 0xa4]
0x00404064: E8 17 61 2C 00       call 0x6ca180
0x00404069: 6A 01                push 1
0x0040406B: 8D 55 F8             lea edx, [ebp - 8]
0x0040406E: 52                   push edx
0x0040406F: 8D 8D 5C FF FF FF    lea ecx, [ebp - 0xa4]
0x00404075: E8 06 61 2C 00       call 0x6ca180
0x0040407A: 6A 01                push 1
0x0040407C: 8D 45 F4             lea eax, [ebp - 0xc]
0x0040407F: 50                   push eax
0x00404080: 8D 8D 5C FF FF FF    lea ecx, [ebp - 0xa4]
0x00404086: E8 F5 60 2C 00       call 0x6ca180
0x0040408B: 6A 01                push 1
0x0040408D: 8D 4D FC             lea ecx, [ebp - 4]
0x00404090: 51                   push ecx
0x00404091: 8D 8D 5C FF FF FF    lea ecx, [ebp - 0xa4]
0x00404097: E8 E4 60 2C 00       call 0x6ca180
0x0040409C: 6A 28                push 0x28
0x0040409E: 8B CE                mov ecx, esi
0x004040A0: E8 EB DE 22 00       call 0x631f90
0x004040A5: 50                   push eax
0x004040A6: 8D 8D 5C FF FF FF    lea ecx, [ebp - 0xa4]
0x004040AC: E8 CF 60 2C 00       call 0x6ca180
0x004040B1: 8D 55 BC             lea edx, [ebp - 0x44]
0x004040B4: 52                   push edx
0x004040B5: 8D 8D 5C FF FF FF    lea ecx, [ebp - 0xa4]
0x004040BB: E8 B0 61 2C 00       call 0x6ca270
0x004040C0: 8D 4D D0             lea ecx, [ebp - 0x30]
0x004040C3: E8 F8 FD FF FF       call 0x403ec0
0x004040C8: 68 C0 03 00 00       push 0x3c0
0x004040CD: 8D 4D D0             lea ecx, [ebp - 0x30]
0x004040D0: E8 CB 6F 07 00       call 0x47b0a0
0x004040D5: 8B 45 F8             mov eax, dword ptr [ebp - 8]
0x004040D8: 50                   push eax
0x004040D9: 8D 4D D0             lea ecx, [ebp - 0x30]
0x004040DC: E8 FF 6E 07 00       call 0x47afe0
0x004040E1: 8B 4D F4             mov ecx, dword ptr [ebp - 0xc]
0x004040E4: 51                   push ecx
0x004040E5: 8D 4D D0             lea ecx, [ebp - 0x30]
0x004040E8: E8 F3 6E 07 00       call 0x47afe0
0x004040ED: 8B 55 FC             mov edx, dword ptr [ebp - 4]
0x004040F0: 52                   push edx
0x004040F1: 8D 4D D0             lea ecx, [ebp - 0x30]
0x004040F4: E8 E7 6E 07 00       call 0x47afe0
0x004040F9: 6A 14                push 0x14
0x004040FB: 8D 45 BC             lea eax, [ebp - 0x44]
0x004040FE: 50                   push eax
0x004040FF: 8D 4D D0             lea ecx, [ebp - 0x30]
0x00404102: E8 B9 70 07 00       call 0x47b1c0
0x00404107: 8D 4D D0             lea ecx, [ebp - 0x30]
0x0040410A: 51                   push ecx
0x0040410B: C7 45 E4 00 00 00 00 mov dword ptr [ebp - 0x1c], 0
0x00404112: E8 39 CA 2A 00       call 0x6b0b50
0x00404117: 83 C4 04             add esp, 4
0x0040411A: 8D 4D D0             lea ecx, [ebp - 0x30]
0x0040411D: E8 EE FD FF FF       call 0x403f10
0x00404122: 5E                   pop esi
0x00404123: 8B E5                mov esp, ebp
0x00404125: 5D                   pop ebp
0x00404126: C3                   ret
0x00404127: CC                   int3
0x00404128: CC                   int3
0x00404129: CC                   int3
0x0040412A: CC                   int3
0x0040412B: CC                   int3
0x0040412C: CC                   int3
0x0040412D: CC                   int3
0x0040412E: CC                   int3
0x0040412F: CC                   int3
0x00404130: 68 E0 20 40 00       push 0x4020e0
0x00404135: 6A 05                push 5
0x00404137: E8 34 96 07 00       call 0x47d770
0x0040413C: E8 EF 0D 0B 00       call 0x4b4f30
0x00404141: E8 CA 75 00 00       call 0x40b710
0x00404146: E8 15 DA FF FF       call 0x401b60
0x0040414B: E8 B0 0C 23 00       call 0x634e00
0x00404150: E8 5B 71 00 00       call 0x40b2b0
0x00404155: 6A 00                push 0
0x00404157: E8 54 5A 41 00       call 0x819bb0
0x0040415C: 6A 00                push 0
0x0040415E: E8 7D 41 0C 00       call 0x4c82e0
0x00404163: E8 48 25 2F 00       call 0x6f66b0
0x00404168: E8 83 FC 40 00       call 0x813df0
0x0040416D: E8 FE 7A 0D 00       call 0x4dbc70
0x00404172: E8 09 47 20 00       call 0x608880
0x00404177: E8 64 34 2F 00       call 0x6f75e0
0x0040417C: E8 6F DE FF FF       call 0x401ff0
0x00404181: E8 7A E0 2A 00       call 0x6b2200
0x00404186: 6A 00                push 0
0x00404188: 68 20 09 53 00       push 0x530920
0x0040418D: 68 FD 00 00 00       push 0xfd
0x00404192: E8 E9 C9 2A 00       call 0x6b0b80
0x00404197: 68 80 21 9E 00       push 0x9e2180
0x0040419C: E8 9F 32 36 00       call 0x767440
0x004041A1: 83 C4 20             add esp, 0x20
0x004041A4: 85 C0                test eax, eax
0x004041A6: 74 0B                je 0x4041b3
0x004041A8: 83 78 30 00          cmp dword ptr [eax + 0x30], 0
0x004041AC: 74 05                je 0x4041b3
0x004041AE: E8 3D B9 3D 00       call 0x7dfaf0
0x004041B3: E8 B8 A9 1E 00       call 0x5eeb70
0x004041B8: E8 83 19 23 00       call 0x635b40
0x004041BD: E8 5E 13 23 00       call 0x635520
0x004041C2: E8 39 A2 38 00       call 0x78e400
0x004041C7: E8 84 CD 37 00       call 0x780f50
0x004041CC: E8 6F 08 3E 00       call 0x7e4a40
0x004041D1: FF 15 34 98 AD 00    call dword ptr [0xad9834]
0x004041D7: D9 05 7C 21 9E 00    fld dword ptr [0x9e217c]
0x004041DD: 51                   push ecx
0x004041DE: D9 1C 24             fstp dword ptr [esp]
0x004041E1: FF 15 60 98 AD 00    call dword ptr [0xad9860]
0x004041E7: 83 C4 04             add esp, 4
0x004041EA: E8 D1 90 1F 00       call 0x5fd2c0
0x004041EF: E8 FC 77 0D 00       call 0x4db9f0
0x004041F4: E8 77 A9 1E 00       call 0x5eeb70
0x004041F9: E8 22 FA 35 00       call 0x763c20
0x004041FE: 85 C0                test eax, eax
0x00404200: 74 15                je 0x404217
0x00404202: E8 19 FA 35 00       call 0x763c20
0x00404207: 50                   push eax
0x00404208: E8 43 5D 0D 00       call 0x4d9f50
0x0040420D: 6A 00                push 0
0x0040420F: E8 1C FA 35 00       call 0x763c30
0x00404214: 83 C4 08             add esp, 8
0x00404217: E8 24 DF 01 00       call 0x422140
0x0040421C: 85 C0                test eax, eax
0x0040421E: 74 05                je 0x404225
0x00404220: E8 0B D4 01 00       call 0x421630
0x00404225: 80 3D E1 F9 B2 00 01 cmp byte ptr [0xb2f9e1], 1
0x0040422C: 75 3D                jne 0x40426b
0x0040422E: 8B 0D 80 F9 B2 00    mov ecx, dword ptr [0xb2f980]
0x00404234: 83 79 30 01          cmp dword ptr [ecx + 0x30], 1
0x00404238: 75 56                jne 0x404290
0x0040423A: 6A 01                push 1
0x0040423C: 6A 00                push 0
0x0040423E: 6A 00                push 0
0x00404240: 6A 01                push 1
0x00404242: 68 A0 14 9E 00       push 0x9e14a0
0x00404247: E8 74 26 36 00       call 0x7668c0
0x0040424C: 8B 0D 84 F9 B2 00    mov ecx, dword ptr [0xb2f984]
0x00404252: 6A 01                push 1
0x00404254: 6A 00                push 0
0x00404256: 6A 00                push 0
0x00404258: 6A 01                push 1
0x0040425A: 68 A0 14 9E 00       push 0x9e14a0
0x0040425F: E8 5C 26 36 00       call 0x7668c0
0x00404264: 68 44 14 9E 00       push 0x9e1444
0x00404269: EB 2A                jmp 0x404295
0x0040426B: 8B 0D 84 F9 B2 00    mov ecx, dword ptr [0xb2f984]
0x00404271: 83 79 30 01          cmp dword ptr [ecx + 0x30], 1
0x00404275: 75 19                jne 0x404290
0x00404277: 6A 01                push 1
0x00404279: 6A 00                push 0
0x0040427B: 6A 00                push 0
0x0040427D: 6A 01                push 1
0x0040427F: 68 A0 14 9E 00       push 0x9e14a0
0x00404284: E8 37 26 36 00       call 0x7668c0
0x00404289: 68 44 14 9E 00       push 0x9e1444
0x0040428E: EB 05                jmp 0x404295
0x00404290: 68 74 21 9E 00       push 0x9e2174
0x00404295: E8 06 40 0D 00       call 0x4d82a0
0x0040429A: A1 D8 F9 B2 00       mov eax, dword ptr [0xb2f9d8]
0x0040429F: 83 C4 04             add esp, 4
0x004042A2: A3 90 AF B6 00       mov dword ptr [0xb6af90], eax
0x004042A7: E8 F4 82 3F 00       call 0x7fc5a0
0x004042AC: 68 D0 1F 40 00       push 0x401fd0
0x004042B1: 6A 07                push 7
0x004042B3: E8 B8 94 07 00       call 0x47d770
0x004042B8: 83 C4 08             add esp, 8
0x004042BB: C3                   ret
0x004042BC: CC                   int3
0x004042BD: CC                   int3
0x004042BE: CC                   int3
0x004042BF: CC                   int3
0x004042C0: 55                   push ebp
0x004042C1: 8B EC                mov ebp, esp
0x004042C3: 81 EC 2C 01 00 00    sub esp, 0x12c
0x004042C9: A1 90 21 9E 00       mov eax, dword ptr [0x9e2190]
0x004042CE: 83 3D 0C FA B2 00 00 cmp dword ptr [0xb2fa0c], 0
0x004042D5: 89 45 D4             mov dword ptr [ebp - 0x2c], eax
0x004042D8: 0F 85 24 03 00 00    jne 0x404602
0x004042DE: 56                   push esi
0x004042DF: 6A 00                push 0
0x004042E1: B0 45                mov al, 0x45
0x004042E3: 8D 4D E8             lea ecx, [ebp - 0x18]
0x004042E6: 6A FF                push -1
0x004042E8: 51                   push ecx
0x004042E9: C6 45 E8 54          mov byte ptr [ebp - 0x18], 0x54
0x004042ED: C6 45 E9 4F          mov byte ptr [ebp - 0x17], 0x4f
0x004042F1: C6 45 EA 4B          mov byte ptr [ebp - 0x16], 0x4b
0x004042F5: 88 45 EB             mov byte ptr [ebp - 0x15], al
0x004042F8: C6 45 EC 4E          mov byte ptr [ebp - 0x14], 0x4e
0x004042FC: C6 45 ED 5F          mov byte ptr [ebp - 0x13], 0x5f
0x00404300: C6 45 EE 53          mov byte ptr [ebp - 0x12], 0x53
0x00404304: 88 45 EF             mov byte ptr [ebp - 0x11], al
0x00404307: 88 45 F0             mov byte ptr [ebp - 0x10], al
0x0040430A: C6 45 F1 44          mov byte ptr [ebp - 0xf], 0x44
0x0040430E: C6 45 F2 00          mov byte ptr [ebp - 0xe], 0
0x00404312: E8 29 5A 41 00       call 0x819d40
0x00404317: 8B F0                mov esi, eax
0x00404319: 83 C4 0C             add esp, 0xc
0x0040431C: 85 F6                test esi, esi
0x0040431E: 0F 84 DD 02 00 00    je 0x404601
0x00404324: 8A 0E                mov cl, byte ptr [esi]
0x00404326: 53                   push ebx
0x00404327: 57                   push edi
0x00404328: 33 FF                xor edi, edi
0x0040432A: 32 D2                xor dl, dl
0x0040432C: 33 C0                xor eax, eax
0x0040432E: 84 C9                test cl, cl
0x00404330: 89 7D F4             mov dword ptr [ebp - 0xc], edi
0x00404333: 74 53                je 0x404388
0x00404335: EB 09                jmp 0x404340
0x00404337: 8D A4 24 00 00 00 00 lea esp, [esp]
0x0040433E: 8B FF                mov edi, edi
0x00404340: 81 FF 00 10 00 00    cmp edi, 0x1000
0x00404346: 0F 83 B3 02 00 00    jae 0x4045ff
0x0040434C: 8A D9                mov bl, cl
0x0040434E: 80 EB 61             sub bl, 0x61
0x00404351: 80 FB 0F             cmp bl, 0xf
0x00404354: 0F 87 A5 02 00 00    ja 0x4045ff
0x0040435A: 80 E9 61             sub cl, 0x61
0x0040435D: 0F B6 C9             movzx ecx, cl
0x00404360: C1 E0 04             shl eax, 4
0x00404363: 03 C1                add eax, ecx
0x00404365: 84 D2                test dl, dl
0x00404367: 74 0F                je 0x404378
0x00404369: 8B 4D D4             mov ecx, dword ptr [ebp - 0x2c]
0x0040436C: 88 84 0F 60 E3 00 00 mov byte ptr [edi + ecx + 0xe360], al
0x00404373: 83 C7 01             add edi, 1
0x00404376: 84 D2                test dl, dl
0x00404378: 8A 4E 01             mov cl, byte ptr [esi + 1]
0x0040437B: 0F 94 C2             sete dl
0x0040437E: 83 C6 01             add esi, 1
0x00404381: 84 C9                test cl, cl
0x00404383: 75 BB                jne 0x404340
0x00404385: 89 7D F4             mov dword ptr [ebp - 0xc], edi
0x00404388: 32 C0                xor al, al
0x0040438A: 32 C9                xor cl, cl
0x0040438C: 88 45 FF             mov byte ptr [ebp - 1], al
0x0040438F: 33 D2                xor edx, edx
0x00404391: EB 0D                jmp 0x4043a0
0x00404393: 8D A4 24 00 00 00 00 lea esp, [esp]
0x0040439A: 8D 9B 00 00 00 00    lea ebx, [ebx]
0x004043A0: 88 94 15 D4 FE FF FF mov byte ptr [ebp + edx - 0x12c], dl
0x004043A7: 83 C2 01             add edx, 1
0x004043AA: 81 FA 00 01 00 00    cmp edx, 0x100
0x004043B0: 72 EE                jb 0x4043a0
0x004043B2: 8B 75 08             mov esi, dword ptr [ebp + 8]
0x004043B5: 33 FF                xor edi, edi
0x004043B7: EB 07                jmp 0x4043c0
0x004043B9: 8D A4 24 00 00 00 00 lea esp, [esp]
0x004043C0: 8A 94 3D D4 FE FF FF mov dl, byte ptr [ebp + edi - 0x12c]
0x004043C7: 0F B6 C0             movzx eax, al
0x004043CA: 0F B6 04 30          movzx eax, byte ptr [eax + esi]
0x004043CE: 02 C2                add al, dl
0x004043D0: 02 C8                add cl, al
0x004043D2: 0F B6 D9             movzx ebx, cl
0x004043D5: 8A 84 1D D4 FE FF FF mov al, byte ptr [ebp + ebx - 0x12c]
0x004043DC: 88 94 1D D4 FE FF FF mov byte ptr [ebp + ebx - 0x12c], dl
0x004043E3: 8D 9C 1D D4 FE FF FF lea ebx, [ebp + ebx - 0x12c]
0x004043EA: 8A 94 3D D5 FE FF FF mov dl, byte ptr [ebp + edi - 0x12b]
0x004043F1: 88 84 3D D4 FE FF FF mov byte ptr [ebp + edi - 0x12c], al
0x004043F8: 8A 45 FF             mov al, byte ptr [ebp - 1]
0x004043FB: 04 01                add al, 1
0x004043FD: 24 0F                and al, 0xf
0x004043FF: 0F B6 D8             movzx ebx, al
0x00404402: 0F B6 1C 33          movzx ebx, byte ptr [ebx + esi]
0x00404406: 02 DA                add bl, dl
0x00404408: 02 CB                add cl, bl
0x0040440A: 0F B6 D9             movzx ebx, cl
0x0040440D: 8D 9C 1D D4 FE FF FF lea ebx, [ebp + ebx - 0x12c]
0x00404414: 89 5D F8             mov dword ptr [ebp - 8], ebx
0x00404417: 0F B6 1B             movzx ebx, byte ptr [ebx]
0x0040441A: 88 5D FF             mov byte ptr [ebp - 1], bl
0x0040441D: 8B 5D F8             mov ebx, dword ptr [ebp - 8]
0x00404420: 88 13                mov byte ptr [ebx], dl
0x00404422: 0F B6 55 FF          movzx edx, byte ptr [ebp - 1]
0x00404426: 04 01                add al, 1
0x00404428: 24 0F                and al, 0xf
0x0040442A: 0F B6 D8             movzx ebx, al
0x0040442D: 0F B6 1C 33          movzx ebx, byte ptr [ebx + esi]
0x00404431: 88 94 3D D5 FE FF FF mov byte ptr [ebp + edi - 0x12b], dl
0x00404438: 8A 94 3D D6 FE FF FF mov dl, byte ptr [ebp + edi - 0x12a]
0x0040443F: 02 DA                add bl, dl
0x00404441: 02 CB                add cl, bl
0x00404443: 0F B6 D9             movzx ebx, cl
0x00404446: 8D 9C 1D D4 FE FF FF lea ebx, [ebp + ebx - 0x12c]
0x0040444D: 89 5D F8             mov dword ptr [ebp - 8], ebx
0x00404450: 0F B6 1B             movzx ebx, byte ptr [ebx]
0x00404453: 88 5D FF             mov byte ptr [ebp - 1], bl
0x00404456: 8B 5D F8             mov ebx, dword ptr [ebp - 8]
0x00404459: 88 13                mov byte ptr [ebx], dl
0x0040445B: 0F B6 55 FF          movzx edx, byte ptr [ebp - 1]
0x0040445F: 04 01                add al, 1
0x00404461: 24 0F                and al, 0xf
0x00404463: 0F B6 D8             movzx ebx, al
0x00404466: 0F B6 1C 33          movzx ebx, byte ptr [ebx + esi]
0x0040446A: 88 94 3D D6 FE FF FF mov byte ptr [ebp + edi - 0x12a], dl
0x00404471: 8A 94 3D D7 FE FF FF mov dl, byte ptr [ebp + edi - 0x129]
0x00404478: 02 DA                add bl, dl
0x0040447A: 02 CB                add cl, bl
0x0040447C: 0F B6 D9             movzx ebx, cl
0x0040447F: 8D 9C 1D D4 FE FF FF lea ebx, [ebp + ebx - 0x12c]
0x00404486: 89 5D F8             mov dword ptr [ebp - 8], ebx
0x00404489: 0F B6 1B             movzx ebx, byte ptr [ebx]
0x0040448C: 88 5D FF             mov byte ptr [ebp - 1], bl
0x0040448F: 8B 5D F8             mov ebx, dword ptr [ebp - 8]
0x00404492: 88 13                mov byte ptr [ebx], dl
0x00404494: 0F B6 55 FF          movzx edx, byte ptr [ebp - 1]
0x00404498: 04 01                add al, 1
0x0040449A: 88 94 3D D7 FE FF FF mov byte ptr [ebp + edi - 0x129], dl
0x004044A1: 24 0F                and al, 0xf
0x004044A3: 83 C7 04             add edi, 4
0x004044A6: 81 FF 00 01 00 00    cmp edi, 0x100
0x004044AC: 88 45 FF             mov byte ptr [ebp - 1], al
0x004044AF: 0F 82 0B FF FF FF    jb 0x4043c0
0x004044B5: 8B 7D F4             mov edi, dword ptr [ebp - 0xc]
0x004044B8: 33 DB                xor ebx, ebx
0x004044BA: 32 C0                xor al, al
0x004044BC: 3B FB                cmp edi, ebx
0x004044BE: 76 6A                jbe 0x40452a
0x004044C0: 8B 75 D4             mov esi, dword ptr [ebp - 0x2c]
0x004044C3: 81 C6 60 E3 00 00    add esi, 0xe360
0x004044C9: EB 0B                jmp 0x4044d6
0x004044CB: EB 03                jmp 0x4044d0
0x004044CD: 8D 49 00             lea ecx, [ecx]
0x004044D0: 8A 5D FE             mov bl, byte ptr [ebp - 2]
0x004044D3: 8A 45 FF             mov al, byte ptr [ebp - 1]
0x004044D6: 04 01                add al, 1
0x004044D8: 0F B6 C8             movzx ecx, al
0x004044DB: 8A 94 0D D4 FE FF FF mov dl, byte ptr [ebp + ecx - 0x12c]
0x004044E2: 8D 8C 0D D4 FE FF FF lea ecx, [ebp + ecx - 0x12c]
0x004044E9: 02 DA                add bl, dl
0x004044EB: 88 45 FF             mov byte ptr [ebp - 1], al
0x004044EE: 0F B6 C3             movzx eax, bl
0x004044F1: 8D 84 05 D4 FE FF FF lea eax, [ebp + eax - 0x12c]
0x004044F8: 88 5D FE             mov byte ptr [ebp - 2], bl
0x004044FB: 8A 18                mov bl, byte ptr [eax]
0x004044FD: 88 10                mov byte ptr [eax], dl
0x004044FF: 88 19                mov byte ptr [ecx], bl
0x00404501: 0F B6 00             movzx eax, byte ptr [eax]
0x00404504: 02 C3                add al, bl
0x00404506: 0F B6 C8             movzx ecx, al
0x00404509: 8A 8C 0D D4 FE FF FF mov cl, byte ptr [ebp + ecx - 0x12c]
0x00404510: 8A 06                mov al, byte ptr [esi]
0x00404512: 8A D1                mov dl, cl
0x00404514: F6 D2                not dl
0x00404516: 22 D0                and dl, al
0x00404518: F6 D0                not al
0x0040451A: 22 C1                and al, cl
0x0040451C: 0A D0                or dl, al
0x0040451E: 88 16                mov byte ptr [esi], dl
0x00404520: 83 C6 01             add esi, 1
0x00404523: 83 EF 01             sub edi, 1
0x00404526: 75 A8                jne 0x4044d0
0x00404528: 33 DB                xor ebx, ebx
0x0040452A: 8B 55 D4             mov edx, dword ptr [ebp - 0x2c]
0x0040452D: B0 83                mov al, 0x83
0x0040452F: 88 45 E3             mov byte ptr [ebp - 0x1d], al
0x00404532: 88 45 E7             mov byte ptr [ebp - 0x19], al
0x00404535: C6 45 D8 55          mov byte ptr [ebp - 0x28], 0x55
0x00404539: C6 45 D9 8D          mov byte ptr [ebp - 0x27], 0x8d
0x0040453D: C6 45 DA 6C          mov byte ptr [ebp - 0x26], 0x6c
0x00404541: C6 45 DB 24          mov byte ptr [ebp - 0x25], 0x24
0x00404545: C6 45 DC 90          mov byte ptr [ebp - 0x24], 0x90
0x00404549: C6 45 DD 81          mov byte ptr [ebp - 0x23], 0x81
0x0040454D: C6 45 DE EC          mov byte ptr [ebp - 0x22], 0xec
0x00404551: C6 45 DF DC          mov byte ptr [ebp - 0x21], 0xdc
0x00404555: C6 45 E0 01          mov byte ptr [ebp - 0x20], 1
0x00404559: 88 5D E1             mov byte ptr [ebp - 0x1f], bl
0x0040455C: 88 5D E2             mov byte ptr [ebp - 0x1e], bl
0x0040455F: C6 45 E4 65          mov byte ptr [ebp - 0x1c], 0x65
0x00404563: C6 45 E5 48          mov byte ptr [ebp - 0x1b], 0x48
0x00404567: 88 5D E6             mov byte ptr [ebp - 0x1a], bl
0x0040456A: B8 10 00 00 00       mov eax, 0x10
0x0040456F: 8D 4D D8             lea ecx, [ebp - 0x28]
0x00404572: 81 C2 60 E3 00 00    add edx, 0xe360
0x00404578: 8B 32                mov esi, dword ptr [edx]
0x0040457A: 3B 31                cmp esi, dword ptr [ecx]
0x0040457C: 75 12                jne 0x404590
0x0040457E: 83 E8 04             sub eax, 4
0x00404581: 83 C1 04             add ecx, 4
0x00404584: 83 C2 04             add edx, 4
0x00404587: 83 F8 04             cmp eax, 4
0x0040458A: 73 EC                jae 0x404578
0x0040458C: 3B C3                cmp eax, ebx
0x0040458E: 74 5D                je 0x4045ed
0x00404590: 0F B6 32             movzx esi, byte ptr [edx]
0x00404593: 0F B6 39             movzx edi, byte ptr [ecx]
0x00404596: 2B F7                sub esi, edi
0x00404598: 75 45                jne 0x4045df
0x0040459A: 83 E8 01             sub eax, 1
0x0040459D: 83 C1 01             add ecx, 1
0x004045A0: 83 C2 01             add edx, 1
0x004045A3: 3B C3                cmp eax, ebx
0x004045A5: 74 46                je 0x4045ed
0x004045A7: 0F B6 32             movzx esi, byte ptr [edx]
0x004045AA: 0F B6 39             movzx edi, byte ptr [ecx]
0x004045AD: 2B F7                sub esi, edi
0x004045AF: 75 2E                jne 0x4045df
0x004045B1: 83 E8 01             sub eax, 1
0x004045B4: 83 C1 01             add ecx, 1
0x004045B7: 83 C2 01             add edx, 1
0x004045BA: 3B C3                cmp eax, ebx
0x004045BC: 74 2F                je 0x4045ed
0x004045BE: 0F B6 32             movzx esi, byte ptr [edx]
0x004045C1: 0F B6 39             movzx edi, byte ptr [ecx]
0x004045C4: 2B F7                sub esi, edi
0x004045C6: 75 17                jne 0x4045df
0x004045C8: 83 E8 01             sub eax, 1
0x004045CB: 83 C1 01             add ecx, 1
0x004045CE: 83 C2 01             add edx, 1
0x004045D1: 3B C3                cmp eax, ebx
0x004045D3: 74 18                je 0x4045ed
0x004045D5: 0F B6 32             movzx esi, byte ptr [edx]
0x004045D8: 0F B6 01             movzx eax, byte ptr [ecx]
0x004045DB: 2B F0                sub esi, eax
0x004045DD: 74 0E                je 0x4045ed
0x004045DF: 3B F3                cmp esi, ebx
0x004045E1: B8 01 00 00 00       mov eax, 1
0x004045E6: 7F 07                jg 0x4045ef
0x004045E8: 83 C8 FF             or eax, 0xffffffff
0x004045EB: EB 02                jmp 0x4045ef
0x004045ED: 33 C0                xor eax, eax
0x004045EF: 3B C3                cmp eax, ebx
0x004045F1: 75 0C                jne 0x4045ff
0x004045F3: B9 01 00 00 00       mov ecx, 1
0x004045F8: BA 0C FA B2 00       mov edx, 0xb2fa0c
0x004045FD: 87 0A                xchg dword ptr [edx], ecx
0x004045FF: 5F                   pop edi
0x00404600: 5B                   pop ebx
0x00404601: 5E                   pop esi
0x00404602: 8B E5                mov esp, ebp
0x00404604: 5D                   pop ebp
0x00404605: C3                   ret
0x00404606: CC                   int3
0x00404607: CC                   int3
0x00404608: CC                   int3
0x00404609: CC                   int3
0x0040460A: CC                   int3
0x0040460B: CC                   int3
0x0040460C: CC                   int3
0x0040460D: CC                   int3
0x0040460E: CC                   int3
0x0040460F: CC                   int3
0x00404610: 55                   push ebp
0x00404611: 8B EC                mov ebp, esp
0x00404613: 83 EC 24             sub esp, 0x24
0x00404616: 56                   push esi
0x00404617: 8D 45 E8             lea eax, [ebp - 0x18]
0x0040461A: 50                   push eax
0x0040461B: 8D 4D E4             lea ecx, [ebp - 0x1c]
0x0040461E: 33 F6                xor esi, esi
0x00404620: 51                   push ecx
0x00404621: 8D 55 E0             lea edx, [ebp - 0x20]
0x00404624: 52                   push edx
0x00404625: 8D 4D DC             lea ecx, [ebp - 0x24]
0x00404628: 89 75 E0             mov dword ptr [ebp - 0x20], esi
0x0040462B: 89 75 E4             mov dword ptr [ebp - 0x1c], esi
0x0040462E: 89 75 E8             mov dword ptr [ebp - 0x18], esi
0x00404631: 89 75 EC             mov dword ptr [ebp - 0x14], esi
0x00404634: C7 45 F0 FF FF FF FF mov dword ptr [ebp - 0x10], 0xffffffff
0x0040463B: C7 45 DC 48 21 9E 00 mov dword ptr [ebp - 0x24], 0x9e2148
0x00404642: FF 15 48 21 9E 00    call dword ptr [0x9e2148]
0x00404648: 8B 45 08             mov eax, dword ptr [ebp + 8]
0x0040464B: 50                   push eax
0x0040464C: 8D 4D DC             lea ecx, [ebp - 0x24]
0x0040464F: E8 4C 6A 07 00       call 0x47b0a0
0x00404654: 8B 4D 0C             mov ecx, dword ptr [ebp + 0xc]
0x00404657: 51                   push ecx
0x00404658: 8D 4D DC             lea ecx, [ebp - 0x24]
0x0040465B: E8 40 6A 07 00       call 0x47b0a0
0x00404660: A1 94 21 9E 00       mov eax, dword ptr [0x9e2194]
0x00404665: 8D 55 DC             lea edx, [ebp - 0x24]
0x00404668: 52                   push edx
0x00404669: 2D AD 5E 00 00       sub eax, 0x5ead
0x0040466E: 89 75 F0             mov dword ptr [ebp - 0x10], esi
0x00404671: FF D0                call eax
0x00404673: 83 C4 04             add esp, 4
0x00404676: 83 7D E8 FF          cmp dword ptr [ebp - 0x18], -1
0x0040467A: C7 45 DC 48 21 9E 00 mov dword ptr [ebp - 0x24], 0x9e2148
0x00404681: 5E                   pop esi
0x00404682: 74 15                je 0x404699
0x00404684: 8D 4D E8             lea ecx, [ebp - 0x18]
0x00404687: 51                   push ecx
0x00404688: 8D 55 E4             lea edx, [ebp - 0x1c]
0x0040468B: 52                   push edx
0x0040468C: 8D 45 E0             lea eax, [ebp - 0x20]
0x0040468F: 50                   push eax
0x00404690: 8D 4D DC             lea ecx, [ebp - 0x24]
0x00404693: FF 15 4C 21 9E 00    call dword ptr [0x9e214c]
0x00404699: 83 7D E8 FF          cmp dword ptr [ebp - 0x18], -1
0x0040469D: C7 45 DC 24 0E 9E 00 mov dword ptr [ebp - 0x24], 0x9e0e24
0x004046A4: 74 15                je 0x4046bb
0x004046A6: 8D 4D E8             lea ecx, [ebp - 0x18]
0x004046A9: 51                   push ecx
0x004046AA: 8D 55 E4             lea edx, [ebp - 0x1c]
0x004046AD: 52                   push edx
0x004046AE: 8D 45 E0             lea eax, [ebp - 0x20]
0x004046B1: 50                   push eax
0x004046B2: 8D 4D DC             lea ecx, [ebp - 0x24]
0x004046B5: FF 15 28 0E 9E 00    call dword ptr [0x9e0e28]
0x004046BB: 8B E5                mov esp, ebp
0x004046BD: 5D                   pop ebp
0x004046BE: C3                   ret
0x004046BF: CC                   int3
0x004046C0: 55                   push ebp
0x004046C1: 8B EC                mov ebp, esp
0x004046C3: 6A FF                push -1
0x004046C5: 68 18 F2 AA 00       push 0xaaf218
0x004046CA: 68 70 BC 40 00       push 0x40bc70
0x004046CF: 64 A1 00 00 00 00    mov eax, dword ptr fs:[0]
0x004046D5: 50                   push eax
0x004046D6: 64 89 25 00 00 00 00 mov dword ptr fs:[0], esp
0x004046DD: 83 EC 24             sub esp, 0x24
0x004046E0: 53                   push ebx
0x004046E1: 56                   push esi
0x004046E2: 57                   push edi
0x004046E3: 89 65 E8             mov dword ptr [ebp - 0x18], esp
0x004046E6: A1 A8 21 9E 00       mov eax, dword ptr [0x9e21a8]
0x004046EB: 89 45 E0             mov dword ptr [ebp - 0x20], eax
0x004046EE: A1 A4 21 9E 00       mov eax, dword ptr [0x9e21a4]
0x004046F3: 83 C0 2C             add eax, 0x2c
0x004046F6: 8B 0D A0 21 9E 00    mov ecx, dword ptr [0x9e21a0]
0x004046FC: 81 E9 8C 00 00 00    sub ecx, 0x8c
0x00404702: 33 D2                xor edx, edx
0x00404704: 38 10                cmp byte ptr [eax], dl
0x00404706: 0F 84 C2 00 00 00    je 0x4047ce
0x0040470C: 8B 09                mov ecx, dword ptr [ecx]
0x0040470E: 3B CA                cmp ecx, edx
0x00404710: 0F 8E B8 00 00 00    jle 0x4047ce
0x00404716: 81 F9 A4 01 00 00    cmp ecx, 0x1a4
0x0040471C: 0F 8F AC 00 00 00    jg 0x4047ce
0x00404722: 33 C9                xor ecx, ecx
0x00404724: BE 0C FA B2 00       mov esi, 0xb2fa0c
0x00404729: B8 01 00 00 00       mov eax, 1
0x0040472E: F0 0F B1 0E          lock cmpxchg dword ptr [esi], ecx
0x00404732: 83 F8 01             cmp eax, 1
0x00404735: 0F 85 93 00 00 00    jne 0x4047ce
0x0040473B: C7 45 CC 20 27 40 00 mov dword ptr [ebp - 0x34], 0x402720
0x00404742: C7 45 D0 40 27 40 00 mov dword ptr [ebp - 0x30], 0x402740
0x00404749: C7 45 D4 E0 C4 86 00 mov dword ptr [ebp - 0x2c], 0x86c4e0
0x00404750: C7 45 D8 00 C5 86 00 mov dword ptr [ebp - 0x28], 0x86c500
0x00404757: C7 45 DC F0 C4 86 00 mov dword ptr [ebp - 0x24], 0x86c4f0
0x0040475E: 88 55 E7             mov byte ptr [ebp - 0x19], dl
0x00404761: 89 55 FC             mov dword ptr [ebp - 4], edx
0x00404764: A1 9C 21 9E 00       mov eax, dword ptr [0x9e219c]
0x00404769: 80 B8 77 DF FF FF E9 cmp byte ptr [eax - 0x2089], 0xe9
0x00404770: 75 18                jne 0x40478a
0x00404772: C7 45 FC FF FF FF FF mov dword ptr [ebp - 4], 0xffffffff
0x00404779: 8B 4D F0             mov ecx, dword ptr [ebp - 0x10]
0x0040477C: 64 89 0D 00 00 00 00 mov dword ptr fs:[0], ecx
0x00404783: 5F                   pop edi
0x00404784: 5E                   pop esi
0x00404785: 5B                   pop ebx
0x00404786: 8B E5                mov esp, ebp
0x00404788: 5D                   pop ebp
0x00404789: C3                   ret
0x0040478A: 52                   push edx
0x0040478B: 8D 4D CC             lea ecx, [ebp - 0x34]
0x0040478E: 51                   push ecx
0x0040478F: 8B 55 E0             mov edx, dword ptr [ebp - 0x20]
0x00404792: 81 C2 80 E3 00 00    add edx, 0xe380
0x00404798: FF D2                call edx
0x0040479A: 83 C4 08             add esp, 8
0x0040479D: 88 45 E7             mov byte ptr [ebp - 0x19], al
0x004047A0: EB 09                jmp 0x4047ab
0x004047A2: B8 01 00 00 00       mov eax, 1
0x004047A7: C3                   ret
0x004047A8: 8B 65 E8             mov esp, dword ptr [ebp - 0x18]
0x004047AB: C7 45 FC FF FF FF FF mov dword ptr [ebp - 4], 0xffffffff
0x004047B2: 80 7D E7 00          cmp byte ptr [ebp - 0x19], 0
0x004047B6: 74 16                je 0x4047ce
0x004047B8: 68 69 1D 23 60       push 0x60231d69
0x004047BD: A1 98 21 9E 00       mov eax, dword ptr [0x9e2198]
0x004047C2: 83 E8 5E             sub eax, 0x5e
0x004047C5: 50                   push eax
0x004047C6: E8 45 FE FF FF       call 0x404610
0x004047CB: 83 C4 08             add esp, 8
0x004047CE: 8B 4D F0             mov ecx, dword ptr [ebp - 0x10]
0x004047D1: 64 89 0D 00 00 00 00 mov dword ptr fs:[0], ecx
0x004047D8: 5F                   pop edi
0x004047D9: 5E                   pop esi
0x004047DA: 5B                   pop ebx
0x004047DB: 8B E5                mov esp, ebp
0x004047DD: 5D                   pop ebp
0x004047DE: C3                   ret
0x004047DF: CC                   int3
0x004047E0: E8 7B 6F 07 00       call 0x47b760
0x004047E5: E8 86 A3 1E 00       call 0x5eeb70
0x004047EA: E8 41 E2 0C 00       call 0x4d2a30
0x004047EF: E8 BC DE FF FF       call 0x4026b0
0x004047F4: E8 87 37 0B 00       call 0x4b7f80
0x004047F9: E8 72 A3 1E 00       call 0x5eeb70
0x004047FE: 68 48 22 9E 00       push 0x9e2248
0x00404803: E8 18 74 0B 00       call 0x4bbc20
0x00404808: 83 C4 04             add esp, 4
0x0040480B: E8 20 D9 01 00       call 0x422130
0x00404810: 85 C0                test eax, eax
0x00404812: 74 0D                je 0x404821
0x00404814: 68 34 22 9E 00       push 0x9e2234
0x00404819: E8 62 0F 0B 00       call 0x4b5780
0x0040481E: 83 C4 04             add esp, 4
0x00404821: 56                   push esi
0x00404822: 57                   push edi
0x00404823: 6A 00                push 0
0x00404825: E8 F6 44 0A 00       call 0x4a8d20
0x0040482A: 6A 00                push 0
0x0040482C: E8 0F 19 36 00       call 0x766140
0x00404831: 6A 00                push 0
0x00404833: 6A 00                push 0
0x00404835: 6A 00                push 0
0x00404837: 6A 01                push 1
0x00404839: 68 C0 23 40 00       push 0x4023c0
0x0040483E: 68 64 14 9E 00       push 0x9e1464
0x00404843: 6A 01                push 1
0x00404845: 68 1C 22 9E 00       push 0x9e221c
0x0040484A: 68 04 22 9E 00       push 0x9e2204
0x0040484F: E8 6C 37 36 00       call 0x767fc0
0x00404854: 6A 00                push 0
0x00404856: 6A 00                push 0
0x00404858: 6A 00                push 0
0x0040485A: 6A 01                push 1
0x0040485C: 68 50 22 40 00       push 0x402250
0x00404861: 68 70 13 9E 00       push 0x9e1370
0x00404866: 6A 00                push 0
0x00404868: 68 EC 21 9E 00       push 0x9e21ec
0x0040486D: 68 E0 21 9E 00       push 0x9e21e0
0x00404872: A3 00 FA B2 00       mov dword ptr [0xb2fa00], eax
0x00404877: E8 44 37 36 00       call 0x767fc0
0x0040487C: 83 C4 50             add esp, 0x50
0x0040487F: 6A 00                push 0
0x00404881: 6A 00                push 0
0x00404883: 6A 00                push 0
0x00404885: 6A 01                push 1
0x00404887: 68 20 23 40 00       push 0x402320
0x0040488C: 68 DC 21 9E 00       push 0x9e21dc
0x00404891: 6A 01                push 1
0x00404893: 68 C0 21 9E 00       push 0x9e21c0
0x00404898: 68 AC 21 9E 00       push 0x9e21ac
0x0040489D: A3 F8 F9 B2 00       mov dword ptr [0xb2f9f8], eax
0x004048A2: E8 19 37 36 00       call 0x767fc0
0x004048A7: A3 FC F9 B2 00       mov dword ptr [0xb2f9fc], eax
0x004048AC: 8B 40 30             mov eax, dword ptr [eax + 0x30]
0x004048AF: C1 E0 14             shl eax, 0x14
0x004048B2: 50                   push eax
0x004048B3: E8 C8 1C 0B 00       call 0x4b6580
0x004048B8: E8 A3 DE FF FF       call 0x402760
0x004048BD: 68 30 25 40 00       push 0x402530
0x004048C2: 8B F8                mov edi, eax
0x004048C4: E8 E7 61 36 00       call 0x76aab0
0x004048C9: 83 C4 2C             add esp, 0x2c
0x004048CC: E8 3F 54 36 00       call 0x769d10
0x004048D1: 85 C0                test eax, eax
0x004048D3: 74 13                je 0x4048e8
0x004048D5: 33 F6                xor esi, esi
0x004048D7: 56                   push esi
0x004048D8: E8 53 DC FF FF       call 0x402530
0x004048DD: 83 C6 01             add esi, 1
0x004048E0: 83 C4 04             add esp, 4
0x004048E3: 83 FE 03             cmp esi, 3
0x004048E6: 72 EF                jb 0x4048d7
0x004048E8: 6A 00                push 0
0x004048EA: 57                   push edi
0x004048EB: E8 F0 7D 41 00       call 0x81c6e0
0x004048F0: 8B 0D 00 FA B2 00    mov ecx, dword ptr [0xb2fa00]
0x004048F6: 8B 71 30             mov esi, dword ptr [ecx + 0x30]
0x004048F9: 8B 14 B5 28 61 AB 00 mov edx, dword ptr [esi*4 + 0xab6128]
0x00404900: 52                   push edx
0x00404901: E8 BA 18 0B 00       call 0x4b61c0
0x00404906: 8B 04 B5 40 61 AB 00 mov eax, dword ptr [esi*4 + 0xab6140]
0x0040490D: 50                   push eax
0x0040490E: E8 1D 19 0B 00       call 0x4b6230
0x00404913: 83 C4 10             add esp, 0x10
0x00404916: E8 15 F8 FF FF       call 0x404130
0x0040491B: 5F                   pop edi
0x0040491C: B8 01 00 00 00       mov eax, 1
0x00404921: 5E                   pop esi
0x00404922: C3                   ret
0x00404923: CC                   int3
0x00404924: CC                   int3
0x00404925: CC                   int3
0x00404926: CC                   int3
0x00404927: CC                   int3
0x00404928: CC                   int3
0x00404929: CC                   int3
0x0040492A: CC                   int3
0x0040492B: CC                   int3
0x0040492C: CC                   int3
0x0040492D: CC                   int3
0x0040492E: CC                   int3
0x0040492F: CC                   int3
0x00404930: 55                   push ebp
0x00404931: 8B EC                mov ebp, esp
0x00404933: 81 EC 08 01 00 00    sub esp, 0x108
0x00404939: 53                   push ebx
0x0040493A: 56                   push esi
0x0040493B: 57                   push edi
0x0040493C: 8B F8                mov edi, eax
0x0040493E: C7 45 FC 00 00 00 00 mov dword ptr [ebp - 4], 0
0x00404945: 8B 45 10             mov eax, dword ptr [ebp + 0x10]
0x00404948: 50                   push eax
0x00404949: 8B 45 FC             mov eax, dword ptr [ebp - 4]
0x0040494C: BB 04 01 00 00       mov ebx, 0x104
0x00404951: 8D B5 F8 FE FF FF    lea esi, [ebp - 0x108]
0x00404957: E8 44 E1 FF FF       call 0x402aa0
0x0040495C: 83 C4 04             add esp, 4
0x0040495F: 84 C0                test al, al
0x00404961: 74 5A                je 0x4049bd
0x00404963: 8B 0D 40 FA B2 00    mov ecx, dword ptr [0xb2fa40]
0x00404969: 8B 75 0C             mov esi, dword ptr [ebp + 0xc]
0x0040496C: 8B 55 08             mov edx, dword ptr [ebp + 8]
0x0040496F: 8D 04 B1             lea eax, [ecx + esi*4]
0x00404972: 50                   push eax
0x00404973: 68 00 0C 00 00       push 0xc00
0x00404978: 52                   push edx
0x00404979: 8D 85 F8 FE FF FF    lea eax, [ebp - 0x108]
0x0040497F: 50                   push eax
0x00404980: E8 CB CF 01 00       call 0x421950
0x00404985: 85 C0                test eax, eax
0x00404987: 75 4F                jne 0x4049d8
0x00404989: 8B 0D 40 FA B2 00    mov ecx, dword ptr [0xb2fa40]
0x0040498F: 89 04 B1             mov dword ptr [ecx + esi*4], eax
0x00404992: E8 49 CE 36 00       call 0x7717e0
0x00404997: 3D 83 00 00 00       cmp eax, 0x83
0x0040499C: 77 11                ja 0x4049af
0x0040499E: 74 2F                je 0x4049cf
0x004049A0: 83 F8 05             cmp eax, 5
0x004049A3: 74 2A                je 0x4049cf
0x004049A5: 83 F8 26             cmp eax, 0x26
0x004049A8: 74 25                je 0x4049cf
0x004049AA: 83 F8 6C             cmp eax, 0x6c
0x004049AD: EB 0C                jmp 0x4049bb
0x004049AF: 3D 6C 00 10 85       cmp eax, 0x8510006c
0x004049B4: 74 19                je 0x4049cf
0x004049B6: 3D 83 00 10 85       cmp eax, 0x85100083
0x004049BB: 74 12                je 0x4049cf
0x004049BD: 8B 45 FC             mov eax, dword ptr [ebp - 4]
0x004049C0: 83 C0 01             add eax, 1
0x004049C3: 83 F8 03             cmp eax, 3
0x004049C6: 89 45 FC             mov dword ptr [ebp - 4], eax
0x004049C9: 0F 8C 76 FF FF FF    jl 0x404945
0x004049CF: 5F                   pop edi
0x004049D0: 5E                   pop esi
0x004049D1: 32 C0                xor al, al
0x004049D3: 5B                   pop ebx
0x004049D4: 8B E5                mov esp, ebp
0x004049D6: 5D                   pop ebp
0x004049D7: C3                   ret
0x004049D8: 5F                   pop edi
0x004049D9: 5E                   pop esi
0x004049DA: B0 01                mov al, 1
0x004049DC: 5B                   pop ebx
0x004049DD: 8B E5                mov esp, ebp
0x004049DF: 5D                   pop ebp
0x004049E0: C3                   ret
0x004049E1: CC                   int3
0x004049E2: CC                   int3
0x004049E3: CC                   int3
0x004049E4: CC                   int3
0x004049E5: CC                   int3
0x004049E6: CC                   int3
0x004049E7: CC                   int3
0x004049E8: CC                   int3
0x004049E9: CC                   int3
0x004049EA: CC                   int3
0x004049EB: CC                   int3
0x004049EC: CC                   int3
0x004049ED: CC                   int3
0x004049EE: CC                   int3
0x004049EF: CC                   int3
0x004049F0: 55                   push ebp
0x004049F1: 8B EC                mov ebp, esp
0x004049F3: 83 EC 10             sub esp, 0x10
0x004049F6: 56                   push esi
0x004049F7: 50                   push eax
0x004049F8: 89 45 F0             mov dword ptr [ebp - 0x10], eax
0x004049FB: E8 30 A4 36 00       call 0x76ee30
0x00404A00: 8B 4D 10             mov ecx, dword ptr [ebp + 0x10]
0x00404A03: 89 45 F4             mov dword ptr [ebp - 0xc], eax
0x00404A06: 8B 45 0C             mov eax, dword ptr [ebp + 0xc]
0x00404A09: 33 F6                xor esi, esi
0x00404A0B: 39 35 14 FA B2 00    cmp dword ptr [0xb2fa14], esi
0x00404A11: 89 45 F8             mov dword ptr [ebp - 8], eax
0x00404A14: 89 4D FC             mov dword ptr [ebp - 4], ecx
0x00404A17: 76 29                jbe 0x404a42
0x00404A19: 8D A4 24 00 00 00 00 lea esp, [esp]
0x00404A20: A1 40 FA B2 00       mov eax, dword ptr [0xb2fa40]
0x00404A25: 8B 0C B0             mov ecx, dword ptr [eax + esi*4]
0x00404A28: 8D 55 F0             lea edx, [ebp - 0x10]
0x00404A2B: 52                   push edx
0x00404A2C: 68 C0 31 40 00       push 0x4031c0
0x00404A31: 51                   push ecx
0x00404A32: E8 69 05 02 00       call 0x424fa0
0x00404A37: 83 C6 01             add esi, 1
0x00404A3A: 3B 35 14 FA B2 00    cmp esi, dword ptr [0xb2fa14]
0x00404A40: 72 DE                jb 0x404a20
0x00404A42: 8B 55 08             mov edx, dword ptr [ebp + 8]
0x00404A45: A1 18 FA B2 00       mov eax, dword ptr [0xb2fa18]
0x00404A4A: 8B 0D 40 FA B2 00    mov ecx, dword ptr [0xb2fa40]
0x00404A50: 03 C2                add eax, edx
0x00404A52: 83 3C 81 00          cmp dword ptr [ecx + eax*4], 0
0x00404A56: 8D 04 81             lea eax, [ecx + eax*4]
0x00404A59: 5E                   pop esi
0x00404A5A: 74 11                je 0x404a6d
0x00404A5C: 8B 00                mov eax, dword ptr [eax]
0x00404A5E: 8D 55 F0             lea edx, [ebp - 0x10]
0x00404A61: 52                   push edx
0x00404A62: 68 C0 31 40 00       push 0x4031c0
0x00404A67: 50                   push eax
0x00404A68: E8 33 05 02 00       call 0x424fa0
0x00404A6D: 8B E5                mov esp, ebp
0x00404A6F: 5D                   pop ebp
0x00404A70: C3                   ret
0x00404A71: CC                   int3
0x00404A72: CC                   int3
0x00404A73: CC                   int3
0x00404A74: CC                   int3
0x00404A75: CC                   int3
0x00404A76: CC                   int3
0x00404A77: CC                   int3
0x00404A78: CC                   int3
0x00404A79: CC                   int3
0x00404A7A: CC                   int3
0x00404A7B: CC                   int3
0x00404A7C: CC                   int3
0x00404A7D: CC                   int3
0x00404A7E: CC                   int3
0x00404A7F: CC                   int3
0x00404A80: 55                   push ebp
0x00404A81: 8B EC                mov ebp, esp
0x00404A83: A1 40 FA B2 00       mov eax, dword ptr [0xb2fa40]
0x00404A88: 8B 0D 18 FA B2 00    mov ecx, dword ptr [0xb2fa18]
0x00404A8E: 83 7C 88 04 00       cmp dword ptr [eax + ecx*4 + 4], 0
0x00404A93: 74 17                je 0x404aac
0x00404A95: 8B 55 10             mov edx, dword ptr [ebp + 0x10]
0x00404A98: 8B 45 0C             mov eax, dword ptr [ebp + 0xc]
0x00404A9B: 52                   push edx
0x00404A9C: 50                   push eax
0x00404A9D: 8B 45 08             mov eax, dword ptr [ebp + 8]
0x00404AA0: 6A 01                push 1
0x00404AA2: E8 49 FF FF FF       call 0x4049f0
0x00404AA7: 83 C4 0C             add esp, 0xc
0x00404AAA: 5D                   pop ebp
0x00404AAB: C3                   ret
0x00404AAC: 8B 4D 10             mov ecx, dword ptr [ebp + 0x10]
0x00404AAF: 8B 55 0C             mov edx, dword ptr [ebp + 0xc]
0x00404AB2: 8B 45 08             mov eax, dword ptr [ebp + 8]
0x00404AB5: 51                   push ecx
0x00404AB6: 52                   push edx
0x00404AB7: 6A 13                push 0x13
0x00404AB9: E8 32 FF FF FF       call 0x4049f0
0x00404ABE: 83 C4 0C             add esp, 0xc
0x00404AC1: 5D                   pop ebp
0x00404AC2: C3                   ret
0x00404AC3: CC                   int3
0x00404AC4: CC                   int3
0x00404AC5: CC                   int3
0x00404AC6: CC                   int3
0x00404AC7: CC                   int3
0x00404AC8: CC                   int3
0x00404AC9: CC                   int3
0x00404ACA: CC                   int3
0x00404ACB: CC                   int3
0x00404ACC: CC                   int3
0x00404ACD: CC                   int3
0x00404ACE: CC                   int3
0x00404ACF: CC                   int3
0x00404AD0: 56                   push esi
0x00404AD1: 8B 35 3C FA B2 00    mov esi, dword ptr [0xb2fa3c]
0x00404AD7: 85 F6                test esi, esi
0x00404AD9: 76 20                jbe 0x404afb
0x00404ADB: A1 40 FA B2 00       mov eax, dword ptr [0xb2fa40]
0x00404AE0: 83 7C B0 FC 00       cmp dword ptr [eax + esi*4 - 4], 0
0x00404AE5: 74 0F                je 0x404af6
0x00404AE7: 8B 44 B0 FC          mov eax, dword ptr [eax + esi*4 - 4]
0x00404AEB: 50                   push eax
0x00404AEC: E8 2F CC 01 00       call 0x421720
0x00404AF1: A1 40 FA B2 00       mov eax, dword ptr [0xb2fa40]
0x00404AF6: 83 EE 01             sub esi, 1
0x00404AF9: 75 E5                jne 0x404ae0
0x00404AFB: 5E                   pop esi
0x00404AFC: C3                   ret
0x00404AFD: CC                   int3
0x00404AFE: CC                   int3
0x00404AFF: CC                   int3
0x00404B00: 55                   push ebp
0x00404B01: 8B EC                mov ebp, esp
0x00404B03: 81 EC 14 01 00 00    sub esp, 0x114
0x00404B09: 8B 03                mov eax, dword ptr [ebx]
0x00404B0B: 8B 50 2C             mov edx, dword ptr [eax + 0x2c]
0x00404B0E: 8D 4D F0             lea ecx, [ebp - 0x10]
0x00404B11: 51                   push ecx
0x00404B12: 8B CB                mov ecx, ebx
0x00404B14: FF D2                call edx
0x00404B16: 56                   push esi
0x00404B17: 68 64 22 9E 00       push 0x9e2264
0x00404B1C: 57                   push edi
0x00404B1D: E8 4E A4 36 00       call 0x76ef70
0x00404B22: 8B 8B B8 00 00 00    mov ecx, dword ptr [ebx + 0xb8]
0x00404B28: 8D 45 FC             lea eax, [ebp - 4]
0x00404B2B: 50                   push eax
0x00404B2C: 51                   push ecx
0x00404B2D: C7 45 FC 00 00 00 00 mov dword ptr [ebp - 4], 0
0x00404B34: E8 27 DA 37 00       call 0x782560
0x00404B39: 8B 45 FC             mov eax, dword ptr [ebp - 4]
0x00404B3C: 6A 01                push 1
0x00404B3E: 68 04 01 00 00       push 0x104
0x00404B43: 8D 95 EC FE FF FF    lea edx, [ebp - 0x114]
0x00404B49: 52                   push edx
0x00404B4A: 50                   push eax
0x00404B4B: E8 30 A2 38 00       call 0x78ed80
0x00404B50: 83 C4 18             add esp, 0x18
0x00404B53: 56                   push esi
0x00404B54: 8D 8D EC FE FF FF    lea ecx, [ebp - 0x114]
0x00404B5A: 51                   push ecx
0x00404B5B: 57                   push edi
0x00404B5C: E8 0F A4 36 00       call 0x76ef70
0x00404B61: 56                   push esi
0x00404B62: 68 F0 15 9F 00       push 0x9f15f0
0x00404B67: 57                   push edi
0x00404B68: E8 03 A4 36 00       call 0x76ef70
0x00404B6D: 8B E5                mov esp, ebp
0x00404B6F: 5D                   pop ebp
0x00404B70: C3                   ret
0x00404B71: CC                   int3
0x00404B72: CC                   int3
0x00404B73: CC                   int3
0x00404B74: CC                   int3
0x00404B75: CC                   int3
0x00404B76: CC                   int3
0x00404B77: CC                   int3
0x00404B78: CC                   int3
0x00404B79: CC                   int3
0x00404B7A: CC                   int3
0x00404B7B: CC                   int3
0x00404B7C: CC                   int3
0x00404B7D: CC                   int3
0x00404B7E: CC                   int3
0x00404B7F: CC                   int3
0x00404B80: 55                   push ebp
0x00404B81: 8B EC                mov ebp, esp
0x00404B83: 81 EC 00 08 00 00    sub esp, 0x800
0x00404B89: 53                   push ebx
0x00404B8A: 56                   push esi
0x00404B8B: 8B 75 0C             mov esi, dword ptr [ebp + 0xc]
0x00404B8E: 57                   push edi
0x00404B8F: 8B 7D 08             mov edi, dword ptr [ebp + 8]
0x00404B92: 68 34 30 00 00       push 0x3034
0x00404B97: 68 70 23 9E 00       push 0x9e2370
0x00404B9C: 56                   push esi
0x00404B9D: 57                   push edi
0x00404B9E: E8 CD A4 36 00       call 0x76f070
0x00404BA3: 6A 00                push 0
0x00404BA5: E8 A6 EB 0C 00       call 0x4d3750
0x00404BAA: 83 C4 14             add esp, 0x14
0x00404BAD: 85 C0                test eax, eax
0x00404BAF: 0F 84 F2 02 00 00    je 0x404ea7
0x00404BB5: E8 B6 9F 1E 00       call 0x5eeb70
0x00404BBA: E8 D1 EB 0C 00       call 0x4d3790
0x00404BBF: 68 A0 00 00 00       push 0xa0
0x00404BC4: 68 18 1F 9E 00       push 0x9e1f18
0x00404BC9: 6A 10                push 0x10
0x00404BCB: 52                   push edx
0x00404BCC: 50                   push eax
0x00404BCD: E8 DE 01 0D 00       call 0x4d4db0
0x00404BD2: 8B D8                mov ebx, eax
0x00404BD4: 83 C4 14             add esp, 0x14
0x00404BD7: 85 DB                test ebx, ebx
0x00404BD9: 0F 84 C8 02 00 00    je 0x404ea7
0x00404BDF: 6A 00                push 0
0x00404BE1: 68 58 19 00 00       push 0x1958
0x00404BE6: 53                   push ebx
0x00404BE7: E8 E4 99 36 00       call 0x76e5d0
0x00404BEC: 85 C0                test eax, eax
0x00404BEE: 0F 84 B3 02 00 00    je 0x404ea7
0x00404BF4: E8 E7 E7 FF FF       call 0x4033e0
0x00404BF9: E8 02 FF FF FF       call 0x404b00
0x00404BFE: 8B C6                mov eax, esi
0x00404C00: 50                   push eax
0x00404C01: 57                   push edi
0x00404C02: 68 60 23 9E 00       push 0x9e2360
0x00404C07: 8B F3                mov esi, ebx
0x00404C09: E8 52 E8 FF FF       call 0x403460
0x00404C0E: 8B 83 20 0A 00 00    mov eax, dword ptr [ebx + 0xa20]
0x00404C14: 8B 9B 24 0A 00 00    mov ebx, dword ptr [ebx + 0xa24]
0x00404C1A: 68 F3 14 00 00       push 0x14f3
0x00404C1F: 68 94 0E 9E 00       push 0x9e0e94
0x00404C24: 6A 01                push 1
0x00404C26: 53                   push ebx
0x00404C27: 50                   push eax
0x00404C28: E8 83 01 0D 00       call 0x4d4db0
0x00404C2D: 8B 5D 0C             mov ebx, dword ptr [ebp + 0xc]
0x00404C30: 83 C4 20             add esp, 0x20
0x00404C33: 85 C0                test eax, eax
0x00404C35: 74 11                je 0x404c48
0x00404C37: 53                   push ebx
0x00404C38: 57                   push edi
0x00404C39: 68 4C 23 9E 00       push 0x9e234c
0x00404C3E: 8B F0                mov esi, eax
0x00404C40: E8 1B E8 FF FF       call 0x403460
0x00404C45: 83 C4 0C             add esp, 0xc
0x00404C48: 8B 0D A4 07 BD 00    mov ecx, dword ptr [0xbd07a4]
0x00404C4E: 8B 15 A0 07 BD 00    mov edx, dword ptr [0xbd07a0]
0x00404C54: 68 F7 14 00 00       push 0x14f7
0x00404C59: 68 94 0E 9E 00       push 0x9e0e94
0x00404C5E: 6A 01                push 1
0x00404C60: 51                   push ecx
0x00404C61: 52                   push edx
0x00404C62: E8 49 01 0D 00       call 0x4d4db0
0x00404C67: 83 C4 14             add esp, 0x14
0x00404C6A: 85 C0                test eax, eax
0x00404C6C: 74 11                je 0x404c7f
0x00404C6E: 53                   push ebx
0x00404C6F: 57                   push edi
0x00404C70: 68 34 23 9E 00       push 0x9e2334
0x00404C75: 8B F0                mov esi, eax
0x00404C77: E8 E4 E7 FF FF       call 0x403460
0x00404C7C: 83 C4 0C             add esp, 0xc
0x00404C7F: A1 AC 07 BD 00       mov eax, dword ptr [0xbd07ac]
0x00404C84: 8B 0D A8 07 BD 00    mov ecx, dword ptr [0xbd07a8]
0x00404C8A: 68 FB 14 00 00       push 0x14fb
0x00404C8F: 68 94 0E 9E 00       push 0x9e0e94
0x00404C94: 6A 01                push 1
0x00404C96: 50                   push eax
0x00404C97: 51                   push ecx
0x00404C98: E8 13 01 0D 00       call 0x4d4db0
0x00404C9D: 83 C4 14             add esp, 0x14
0x00404CA0: 85 C0                test eax, eax
0x00404CA2: 74 11                je 0x404cb5
0x00404CA4: 53                   push ebx
0x00404CA5: 57                   push edi
0x00404CA6: 68 24 23 9E 00       push 0x9e2324
0x00404CAB: 8B F0                mov esi, eax
0x00404CAD: E8 AE E7 FF FF       call 0x403460
0x00404CB2: 83 C4 0C             add esp, 0xc
0x00404CB5: 8B 15 B4 07 BD 00    mov edx, dword ptr [0xbd07b4]
0x00404CBB: A1 B0 07 BD 00       mov eax, dword ptr [0xbd07b0]
0x00404CC0: 68 FF 14 00 00       push 0x14ff
0x00404CC5: 68 94 0E 9E 00       push 0x9e0e94
0x00404CCA: 6A 01                push 1
0x00404CCC: 52                   push edx
0x00404CCD: 50                   push eax
0x00404CCE: E8 DD 00 0D 00       call 0x4d4db0
0x00404CD3: 83 C4 14             add esp, 0x14
0x00404CD6: 85 C0                test eax, eax
0x00404CD8: 74 11                je 0x404ceb
0x00404CDA: 53                   push ebx
0x00404CDB: 57                   push edi
0x00404CDC: 68 14 23 9E 00       push 0x9e2314
0x00404CE1: 8B F0                mov esi, eax
0x00404CE3: E8 78 E7 FF FF       call 0x403460
0x00404CE8: 83 C4 0C             add esp, 0xc
0x00404CEB: 8B 0D C4 07 BD 00    mov ecx, dword ptr [0xbd07c4]
0x00404CF1: 8B 15 C0 07 BD 00    mov edx, dword ptr [0xbd07c0]
0x00404CF7: 68 03 15 00 00       push 0x1503
0x00404CFC: 68 94 0E 9E 00       push 0x9e0e94
0x00404D01: 6A 01                push 1
0x00404D03: 51                   push ecx
0x00404D04: 52                   push edx
0x00404D05: E8 A6 00 0D 00       call 0x4d4db0
0x00404D0A: 83 C4 14             add esp, 0x14
0x00404D0D: 85 C0                test eax, eax
0x00404D0F: 74 11                je 0x404d22
0x00404D11: 53                   push ebx
0x00404D12: 57                   push edi
0x00404D13: 68 00 23 9E 00       push 0x9e2300
0x00404D18: 8B F0                mov esi, eax
0x00404D1A: E8 41 E7 FF FF       call 0x403460
0x00404D1F: 83 C4 0C             add esp, 0xc
0x00404D22: 68 07 15 00 00       push 0x1507
0x00404D27: 68 94 0E 9E 00       push 0x9e0e94
0x00404D2C: 6A 02                push 2
0x00404D2E: E8 2D E9 10 00       call 0x513660
0x00404D33: 52                   push edx
0x00404D34: 50                   push eax
0x00404D35: E8 76 00 0D 00       call 0x4d4db0
0x00404D3A: 83 C4 14             add esp, 0x14
0x00404D3D: 85 C0                test eax, eax
0x00404D3F: 74 11                je 0x404d52
0x00404D41: 53                   push ebx
0x00404D42: 57                   push edi
0x00404D43: 68 F4 22 9E 00       push 0x9e22f4
0x00404D48: 8B F0                mov esi, eax
0x00404D4A: E8 11 E7 FF FF       call 0x403460
0x00404D4F: 83 C4 0C             add esp, 0xc
0x00404D52: C6 85 00 FC FF FF 00 mov byte ptr [ebp - 0x400], 0
0x00404D59: E8 62 30 41 00       call 0x817dc0
0x00404D5E: 50                   push eax
0x00404D5F: 68 DC 22 9E 00       push 0x9e22dc
0x00404D64: 8D 85 00 FC FF FF    lea eax, [ebp - 0x400]
0x00404D6A: 68 00 04 00 00       push 0x400
0x00404D6F: 50                   push eax
0x00404D70: E8 FB A2 36 00       call 0x76f070
0x00404D75: 83 C4 10             add esp, 0x10
0x00404D78: 53                   push ebx
0x00404D79: 8D 8D 00 FC FF FF    lea ecx, [ebp - 0x400]
0x00404D7F: 51                   push ecx
0x00404D80: 57                   push edi
0x00404D81: E8 EA A1 36 00       call 0x76ef70
0x00404D86: 8B 15 9C 13 D4 00    mov edx, dword ptr [0xd4139c]
0x00404D8C: 52                   push edx
0x00404D8D: 68 C8 22 9E 00       push 0x9e22c8
0x00404D92: 8D 85 00 FC FF FF    lea eax, [ebp - 0x400]
0x00404D98: 68 00 04 00 00       push 0x400
0x00404D9D: 50                   push eax
0x00404D9E: E8 CD A2 36 00       call 0x76f070
0x00404DA3: 83 C4 10             add esp, 0x10
0x00404DA6: 53                   push ebx
0x00404DA7: 8D 8D 00 FC FF FF    lea ecx, [ebp - 0x400]
0x00404DAD: 51                   push ecx
0x00404DAE: 57                   push edi
0x00404DAF: E8 BC A1 36 00       call 0x76ef70
0x00404DB4: 8D 95 00 F8 FF FF    lea edx, [ebp - 0x800]
0x00404DBA: 68 00 04 00 00       push 0x400
0x00404DBF: 52                   push edx
0x00404DC0: E8 EB 2F 41 00       call 0x817db0
0x00404DC5: 50                   push eax
0x00404DC6: E8 15 31 41 00       call 0x817ee0
0x00404DCB: 8D 85 00 F8 FF FF    lea eax, [ebp - 0x800]
0x00404DD1: 50                   push eax
0x00404DD2: 68 AC 22 9E 00       push 0x9e22ac
0x00404DD7: 8D 8D 00 FC FF FF    lea ecx, [ebp - 0x400]
0x00404DDD: 68 00 04 00 00       push 0x400
0x00404DE2: 51                   push ecx
0x00404DE3: E8 88 A2 36 00       call 0x76f070
0x00404DE8: 83 C4 1C             add esp, 0x1c
0x00404DEB: 53                   push ebx
0x00404DEC: 8D 95 00 FC FF FF    lea edx, [ebp - 0x400]
0x00404DF2: 52                   push edx
0x00404DF3: 57                   push edi
0x00404DF4: E8 77 A1 36 00       call 0x76ef70
0x00404DF9: 6A 02                push 2
0x00404DFB: E8 B0 2F 41 00       call 0x817db0
0x00404E00: 50                   push eax
0x00404E01: E8 DA 2F 41 00       call 0x817de0
0x00404E06: 50                   push eax
0x00404E07: 68 90 22 9E 00       push 0x9e2290
0x00404E0C: 8D 85 00 FC FF FF    lea eax, [ebp - 0x400]
0x00404E12: 68 00 04 00 00       push 0x400
0x00404E17: 50                   push eax
0x00404E18: E8 53 A2 36 00       call 0x76f070
0x00404E1D: 83 C4 18             add esp, 0x18
0x00404E20: 53                   push ebx
0x00404E21: 8D 8D 00 FC FF FF    lea ecx, [ebp - 0x400]
0x00404E27: 51                   push ecx
0x00404E28: 57                   push edi
0x00404E29: E8 42 A1 36 00       call 0x76ef70
0x00404E2E: E8 BD 01 1F 00       call 0x5f4ff0
0x00404E33: 85 C0                test eax, eax
0x00404E35: 76 6D                jbe 0x404ea4
0x00404E37: 8B 5D 0C             mov ebx, dword ptr [ebp + 0xc]
0x00404E3A: 53                   push ebx
0x00404E3B: 68 84 22 9E 00       push 0x9e2284
0x00404E40: 57                   push edi
0x00404E41: E8 2A A1 36 00       call 0x76ef70
0x00404E46: C7 45 08 00 00 00 00 mov dword ptr [ebp + 8], 0
0x00404E4D: E8 9E 01 1F 00       call 0x5f4ff0
0x00404E52: 85 C0                test eax, eax
0x00404E54: 76 3E                jbe 0x404e94
0x00404E56: 8B 55 08             mov edx, dword ptr [ebp + 8]
0x00404E59: 52                   push edx
0x00404E5A: E8 A1 01 1F 00       call 0x5f5000
0x00404E5F: 8B F0                mov esi, eax
0x00404E61: 56                   push esi
0x00404E62: E8 C9 27 1F 00       call 0x5f7630
0x00404E67: 83 C4 08             add esp, 8
0x00404E6A: 84 C0                test al, al
0x00404E6C: 74 14                je 0x404e82
0x00404E6E: 53                   push ebx
0x00404E6F: 56                   push esi
0x00404E70: 57                   push edi
0x00404E71: E8 FA A0 36 00       call 0x76ef70
0x00404E76: 53                   push ebx
0x00404E77: 68 50 10 9E 00       push 0x9e1050
0x00404E7C: 57                   push edi
0x00404E7D: E8 EE A0 36 00       call 0x76ef70
0x00404E82: 8B 75 08             mov esi, dword ptr [ebp + 8]
0x00404E85: 83 C6 01             add esi, 1
0x00404E88: 89 75 08             mov dword ptr [ebp + 8], esi
0x00404E8B: E8 60 01 1F 00       call 0x5f4ff0
0x00404E90: 3B F0                cmp esi, eax
0x00404E92: 72 C2                jb 0x404e56
0x00404E94: 53                   push ebx
0x00404E95: 68 F0 15 9F 00       push 0x9f15f0
0x00404E9A: 57                   push edi
0x00404E9B: E8 D0 A0 36 00       call 0x76ef70
0x00404EA0: 8B F3                mov esi, ebx
0x00404EA2: EB 03                jmp 0x404ea7
0x00404EA4: 8B 75 0C             mov esi, dword ptr [ebp + 0xc]
0x00404EA7: 56                   push esi
0x00404EA8: 68 74 22 9E 00       push 0x9e2274
0x00404EAD: 57                   push edi
0x00404EAE: E8 BD A0 36 00       call 0x76ef70
0x00404EB3: 6A 40                push 0x40
0x00404EB5: 6A 00                push 0
0x00404EB7: 56                   push esi
0x00404EB8: 57                   push edi
0x00404EB9: E8 E2 22 36 00       call 0x7671a0
0x00404EBE: 56                   push esi
0x00404EBF: 57                   push edi
0x00404EC0: E8 3B D3 27 00       call 0x682200
0x00404EC5: 83 C4 18             add esp, 0x18
0x00404EC8: 5F                   pop edi
0x00404EC9: 5E                   pop esi
0x00404ECA: B8 01 00 00 00       mov eax, 1
0x00404ECF: 5B                   pop ebx
0x00404ED0: 8B E5                mov esp, ebp
0x00404ED2: 5D                   pop ebp
0x00404ED3: C2 08 00             ret 8
0x00404ED6: CC                   int3
0x00404ED7: CC                   int3
0x00404ED8: CC                   int3
0x00404ED9: CC                   int3
0x00404EDA: CC                   int3
0x00404EDB: CC                   int3
0x00404EDC: CC                   int3
0x00404EDD: CC                   int3
0x00404EDE: CC                   int3
0x00404EDF: CC                   int3
0x00404EE0: E8 AB E8 0C 00       call 0x4d3790
0x00404EE5: 68 A0 00 00 00       push 0xa0
0x00404EEA: 68 18 1F 9E 00       push 0x9e1f18
0x00404EEF: 6A 10                push 0x10
0x00404EF1: 52                   push edx
0x00404EF2: 50                   push eax
0x00404EF3: E8 B8 FE 0C 00       call 0x4d4db0
0x00404EF8: 83 C4 14             add esp, 0x14
0x00404EFB: 85 C0                test eax, eax
0x00404EFD: 74 52                je 0x404f51
0x00404EFF: 8B 80 08 10 00 00    mov eax, dword ptr [eax + 0x1008]
0x00404F05: 8B 48 08             mov ecx, dword ptr [eax + 8]
0x00404F08: C1 E9 11             shr ecx, 0x11
0x00404F0B: B8 01 00 00 00       mov eax, 1
0x00404F10: 84 C8                test al, cl
0x00404F12: 74 3D                je 0x404f51
0x00404F14: DD 05 88 23 9E 00    fld qword ptr [0x9e2388]
0x00404F1A: A3 AC F9 B2 00       mov dword ptr [0xb2f9ac], eax
0x00404F1F: DD 1D B0 F9 B2 00    fstp qword ptr [0xb2f9b0]
0x00404F25: A3 A8 F9 B2 00       mov dword ptr [0xb2f9a8], eax
0x00404F2A: D9 EE                fldz
0x00404F2C: C7 05 C8 F9 B2 00 00 00 00 00 mov dword ptr [0xb2f9c8], 0
0x00404F36: DD 15 B8 F9 B2 00    fst qword ptr [0xb2f9b8]
0x00404F3C: DD 1D C0 F9 B2 00    fstp qword ptr [0xb2f9c0]
0x00404F42: E8 D9 5E 46 00       call 0x86ae20
0x00404F47: 05 88 13 00 00       add eax, 0x1388
0x00404F4C: A3 CC F9 B2 00       mov dword ptr [0xb2f9cc], eax
0x00404F51: C3                   ret
0x00404F52: CC                   int3
0x00404F53: CC                   int3
0x00404F54: CC                   int3
0x00404F55: CC                   int3
0x00404F56: CC                   int3
0x00404F57: CC                   int3
0x00404F58: CC                   int3
0x00404F59: CC                   int3
0x00404F5A: CC                   int3
0x00404F5B: CC                   int3
0x00404F5C: CC                   int3
0x00404F5D: CC                   int3
0x00404F5E: CC                   int3
0x00404F5F: CC                   int3
0x00404F60: 55                   push ebp
0x00404F61: 8B EC                mov ebp, esp
0x00404F63: 81 EC BC 0B 00 00    sub esp, 0xbbc
0x00404F69: 83 3D AC F9 B2 00 00 cmp dword ptr [0xb2f9ac], 0
0x00404F70: 0F 84 B6 01 00 00    je 0x40512c
0x00404F76: 83 7D 08 00          cmp dword ptr [ebp + 8], 0
0x00404F7A: C7 05 AC F9 B2 00 00 00 00 00 mov dword ptr [0xb2f9ac], 0
0x00404F84: C7 05 A8 F9 B2 00 00 00 00 00 mov dword ptr [0xb2f9a8], 0
0x00404F8E: 0F 85 98 01 00 00    jne 0x40512c
0x00404F94: 83 3D C8 F9 B2 00 00 cmp dword ptr [0xb2f9c8], 0
0x00404F9B: 0F 84 8B 01 00 00    je 0x40512c
0x00404FA1: E8 EA E7 0C 00       call 0x4d3790
0x00404FA6: 68 A0 00 00 00       push 0xa0
0x00404FAB: 68 18 1F 9E 00       push 0x9e1f18
0x00404FB0: 6A 10                push 0x10
0x00404FB2: 52                   push edx
0x00404FB3: 50                   push eax
0x00404FB4: E8 F7 FD 0C 00       call 0x4d4db0
0x00404FB9: 83 C4 14             add esp, 0x14
0x00404FBC: 85 C0                test eax, eax
0x00404FBE: 0F 84 68 01 00 00    je 0x40512c
0x00404FC4: 8B 10                mov edx, dword ptr [eax]
0x00404FC6: 8B C8                mov ecx, eax
0x00404FC8: 8B 82 28 01 00 00    mov eax, dword ptr [edx + 0x128]
0x00404FCE: FF D0                call eax
0x00404FD0: 84 C0                test al, al
0x00404FD2: 0F 85 54 01 00 00    jne 0x40512c
0x00404FD8: 6A 00                push 0
0x00404FDA: 6A 00                push 0
0x00404FDC: 6A 00                push 0
0x00404FDE: 6A 00                push 0
0x00404FE0: 6A 00                push 0
0x00404FE2: 6A 00                push 0
0x00404FE4: 6A 00                push 0
0x00404FE6: 6A 00                push 0
0x00404FE8: 6A 00                push 0
0x00404FEA: 6A 00                push 0
0x00404FEC: 6A 00                push 0
0x00404FEE: 6A 00                push 0
0x00404FF0: 6A 00                push 0
0x00404FF2: 6A 00                push 0
0x00404FF4: 6A 00                push 0
0x00404FF6: 6A FF                push -1
0x00404FF8: 68 E0 23 9E 00       push 0x9e23e0
0x00404FFD: E8 3E 4D 41 00       call 0x819d40
0x00405002: 83 C4 0C             add esp, 0xc
0x00405005: 50                   push eax
0x00405006: E8 C5 4D 10 00       call 0x509dd0
0x0040500B: DD 05 B0 F9 B2 00    fld qword ptr [0xb2f9b0]
0x00405011: 83 C4 34             add esp, 0x34
0x00405014: DD 1C 24             fstp qword ptr [esp]
0x00405017: 6A 00                push 0
0x00405019: 6A FF                push -1
0x0040501B: 68 C8 23 9E 00       push 0x9e23c8
0x00405020: E8 1B 4D 41 00       call 0x819d40
0x00405025: 83 C4 0C             add esp, 0xc
0x00405028: 50                   push eax
0x00405029: 8D 8D 44 F4 FF FF    lea ecx, [ebp - 0xbbc]
0x0040502F: 68 B8 0B 00 00       push 0xbb8
0x00405034: 51                   push ecx
0x00405035: E8 36 A0 36 00       call 0x76f070
0x0040503A: 6A 00                push 0
0x0040503C: 6A 00                push 0
0x0040503E: 6A 00                push 0
0x00405040: 6A 00                push 0
0x00405042: 6A 00                push 0
0x00405044: 6A 00                push 0
0x00405046: 6A 00                push 0
0x00405048: 6A 00                push 0
0x0040504A: 6A 00                push 0
0x0040504C: 6A 00                push 0
0x0040504E: 6A 00                push 0
0x00405050: 6A 00                push 0
0x00405052: 6A 00                push 0
0x00405054: 8D 95 44 F4 FF FF    lea edx, [ebp - 0xbbc]
0x0040505A: 6A 00                push 0
0x0040505C: 52                   push edx
0x0040505D: E8 6E 4D 10 00       call 0x509dd0
0x00405062: DD 05 B8 F9 B2 00    fld qword ptr [0xb2f9b8]
0x00405068: 83 C4 48             add esp, 0x48
0x0040506B: DD 1C 24             fstp qword ptr [esp]
0x0040506E: 6A 00                push 0
0x00405070: 6A FF                push -1
0x00405072: 68 B0 23 9E 00       push 0x9e23b0
0x00405077: E8 C4 4C 41 00       call 0x819d40
0x0040507C: 83 C4 0C             add esp, 0xc
0x0040507F: 50                   push eax
0x00405080: 8D 85 44 F4 FF FF    lea eax, [ebp - 0xbbc]
0x00405086: 68 B8 0B 00 00       push 0xbb8
0x0040508B: 50                   push eax
0x0040508C: E8 DF 9F 36 00       call 0x76f070
0x00405091: 6A 00                push 0
0x00405093: 6A 00                push 0
0x00405095: 6A 00                push 0
0x00405097: 6A 00                push 0
0x00405099: 6A 00                push 0
0x0040509B: 6A 00                push 0
0x0040509D: 6A 00                push 0
0x0040509F: 6A 00                push 0
0x004050A1: 6A 00                push 0
0x004050A3: 6A 00                push 0
0x004050A5: 6A 00                push 0
0x004050A7: 6A 00                push 0
0x004050A9: 6A 00                push 0
0x004050AB: 8D 8D 44 F4 FF FF    lea ecx, [ebp - 0xbbc]
0x004050B1: 6A 00                push 0
0x004050B3: 51                   push ecx
0x004050B4: E8 17 4D 10 00       call 0x509dd0
0x004050B9: 8B 15 C8 F9 B2 00    mov edx, dword ptr [0xb2f9c8]
0x004050BF: DB 05 C8 F9 B2 00    fild dword ptr [0xb2f9c8]
0x004050C5: 83 C4 50             add esp, 0x50
0x004050C8: 85 D2                test edx, edx
0x004050CA: 7D 06                jge 0x4050d2
0x004050CC: D8 05 AC 23 9E 00    fadd dword ptr [0x9e23ac]
0x004050D2: DC 35 C0 F9 B2 00    fdiv qword ptr [0xb2f9c0]
0x004050D8: 83 EC 08             sub esp, 8
0x004050DB: DD 1C 24             fstp qword ptr [esp]
0x004050DE: 6A 00                push 0
0x004050E0: 6A FF                push -1
0x004050E2: 68 90 23 9E 00       push 0x9e2390
0x004050E7: E8 54 4C 41 00       call 0x819d40
0x004050EC: 83 C4 0C             add esp, 0xc
0x004050EF: 50                   push eax
0x004050F0: 8D 85 44 F4 FF FF    lea eax, [ebp - 0xbbc]
0x004050F6: 68 B8 0B 00 00       push 0xbb8
0x004050FB: 50                   push eax
0x004050FC: E8 6F 9F 36 00       call 0x76f070
0x00405101: 6A 00                push 0
0x00405103: 6A 00                push 0
0x00405105: 6A 00                push 0
0x00405107: 6A 00                push 0
0x00405109: 6A 00                push 0
0x0040510B: 6A 00                push 0
0x0040510D: 6A 00                push 0
0x0040510F: 6A 00                push 0
0x00405111: 6A 00                push 0
0x00405113: 6A 00                push 0
0x00405115: 6A 00                push 0
0x00405117: 6A 00                push 0
0x00405119: 6A 00                push 0
0x0040511B: 8D 8D 44 F4 FF FF    lea ecx, [ebp - 0xbbc]
0x00405121: 6A 00                push 0
0x00405123: 51                   push ecx
0x00405124: E8 A7 4C 10 00       call 0x509dd0
0x00405129: 83 C4 50             add esp, 0x50
0x0040512C: 8B E5                mov esp, ebp
0x0040512E: 5D                   pop ebp
0x0040512F: C3                   ret
0x00405130: 55                   push ebp
0x00405131: 8B EC                mov ebp, esp
0x00405133: 83 EC 10             sub esp, 0x10
0x00405136: E8 55 E6 0C 00       call 0x4d3790
0x0040513B: 68 A0 00 00 00       push 0xa0
0x00405140: 68 18 1F 9E 00       push 0x9e1f18
0x00405145: 6A 10                push 0x10
0x00405147: 52                   push edx
0x00405148: 50                   push eax
0x00405149: E8 62 FC 0C 00       call 0x4d4db0
0x0040514E: 83 C4 14             add esp, 0x14
0x00405151: 85 C0                test eax, eax
0x00405153: 0F 84 17 01 00 00    je 0x405270
0x00405159: 83 3D A8 F9 B2 00 00 cmp dword ptr [0xb2f9a8], 0
0x00405160: 75 2C                jne 0x40518e
0x00405162: 8B 88 D0 00 00 00    mov ecx, dword ptr [eax + 0xd0]
0x00405168: 8B 91 D4 00 00 00    mov edx, dword ptr [ecx + 0xd4]
0x0040516E: C1 EA 14             shr edx, 0x14
0x00405171: F6 C2 01             test dl, 1
0x00405174: 74 46                je 0x4051bc
0x00405176: 8B 80 08 10 00 00    mov eax, dword ptr [eax + 0x1008]
0x0040517C: 8B 48 08             mov ecx, dword ptr [eax + 8]
0x0040517F: C1 E9 11             shr ecx, 0x11
0x00405182: F6 C1 01             test cl, 1
0x00405185: 74 35                je 0x4051bc
0x00405187: E8 54 FD FF FF       call 0x404ee0
0x0040518C: EB 2E                jmp 0x4051bc
0x0040518E: 8B 90 D0 00 00 00    mov edx, dword ptr [eax + 0xd0]
0x00405194: 8B 8A D4 00 00 00    mov ecx, dword ptr [edx + 0xd4]
0x0040519A: C1 E9 14             shr ecx, 0x14
0x0040519D: F6 C1 01             test cl, 1
0x004051A0: 74 10                je 0x4051b2
0x004051A2: 8B 90 08 10 00 00    mov edx, dword ptr [eax + 0x1008]
0x004051A8: 8B 42 08             mov eax, dword ptr [edx + 8]
0x004051AB: C1 E8 11             shr eax, 0x11
0x004051AE: A8 01                test al, 1
0x004051B0: 75 0A                jne 0x4051bc
0x004051B2: 6A 00                push 0
0x004051B4: E8 A7 FD FF FF       call 0x404f60
0x004051B9: 83 C4 04             add esp, 4
0x004051BC: 83 3D AC F9 B2 00 00 cmp dword ptr [0xb2f9ac], 0
0x004051C3: 0F 84 A7 00 00 00    je 0x405270
0x004051C9: 56                   push esi
0x004051CA: 57                   push edi
0x004051CB: E8 60 5C 46 00       call 0x86ae30
0x004051D0: 8B F0                mov esi, eax
0x004051D2: 8B CE                mov ecx, esi
0x004051D4: 2B 0D D0 F9 B2 00    sub ecx, dword ptr [0xb2f9d0]
0x004051DA: 8B FA                mov edi, edx
0x004051DC: 1B 15 D4 F9 B2 00    sbb edx, dword ptr [0xb2f9d4]
0x004051E2: 89 4D F8             mov dword ptr [ebp - 8], ecx
0x004051E5: 89 55 FC             mov dword ptr [ebp - 4], edx
0x004051E8: DF 6D F8             fild qword ptr [ebp - 8]
0x004051EB: DD 5D F0             fstp qword ptr [ebp - 0x10]
0x004051EE: E8 7D 5C 46 00       call 0x86ae70
0x004051F3: 89 45 F8             mov dword ptr [ebp - 8], eax
0x004051F6: 89 55 FC             mov dword ptr [ebp - 4], edx
0x004051F9: DF 6D F8             fild qword ptr [ebp - 8]
0x004051FC: DC 7D F0             fdivr qword ptr [ebp - 0x10]
0x004051FF: DD 55 F0             fst qword ptr [ebp - 0x10]
0x00405202: D9 EE                fldz
0x00405204: DE D9                fcompp
0x00405206: DF E0                fnstsw ax
0x00405208: F6 C4 01             test ah, 1
0x0040520B: 74 61                je 0x40526e
0x0040520D: 89 35 D0 F9 B2 00    mov dword ptr [0xb2f9d0], esi
0x00405213: 89 3D D4 F9 B2 00    mov dword ptr [0xb2f9d4], edi
0x00405219: E8 02 5C 46 00       call 0x86ae20
0x0040521E: 2B 05 CC F9 B2 00    sub eax, dword ptr [0xb2f9cc]
0x00405224: 78 48                js 0x40526e
0x00405226: D9 E8                fld1
0x00405228: 83 05 C8 F9 B2 00 01 add dword ptr [0xb2f9c8], 1
0x0040522F: DD 45 F0             fld qword ptr [ebp - 0x10]
0x00405232: DC F9                fdiv st(1), st(0)
0x00405234: DC 05 C0 F9 B2 00    fadd qword ptr [0xb2f9c0]
0x0040523A: DD 1D C0 F9 B2 00    fstp qword ptr [0xb2f9c0]
0x00405240: DC 15 B0 F9 B2 00    fcom qword ptr [0xb2f9b0]
0x00405246: DF E0                fnstsw ax
0x00405248: F6 C4 41             test ah, 0x41
0x0040524B: 74 06                je 0x405253
0x0040524D: DD 15 B0 F9 B2 00    fst qword ptr [0xb2f9b0]
0x00405253: DC 15 B8 F9 B2 00    fcom qword ptr [0xb2f9b8]
0x00405259: DF E0                fnstsw ax
0x0040525B: F6 C4 05             test ah, 5
0x0040525E: 7B 0C                jnp 0x40526c
0x00405260: 5F                   pop edi
0x00405261: DD 1D B8 F9 B2 00    fstp qword ptr [0xb2f9b8]
0x00405267: 5E                   pop esi
0x00405268: 8B E5                mov esp, ebp
0x0040526A: 5D                   pop ebp
0x0040526B: C3                   ret
0x0040526C: DD D8                fstp st(0)
0x0040526E: 5F                   pop edi
0x0040526F: 5E                   pop esi
0x00405270: 8B E5                mov esp, ebp
0x00405272: 5D                   pop ebp
0x00405273: C3                   ret
0x00405274: CC                   int3
0x00405275: CC                   int3
0x00405276: CC                   int3
0x00405277: CC                   int3
0x00405278: CC                   int3
0x00405279: CC                   int3
0x0040527A: CC                   int3
0x0040527B: CC                   int3
0x0040527C: CC                   int3
0x0040527D: CC                   int3
0x0040527E: CC                   int3
0x0040527F: CC                   int3
0x00405280: 56                   push esi
0x00405281: 57                   push edi
0x00405282: 8B F1                mov esi, ecx
0x00405284: 33 FF                xor edi, edi
0x00405286: 39 7E 08             cmp dword ptr [esi + 8], edi
0x00405289: 7E 1B                jle 0x4052a6
0x0040528B: 53                   push ebx
0x0040528C: 33 DB                xor ebx, ebx
0x0040528E: 8B FF                mov edi, edi
0x00405290: 8B 4E 1C             mov ecx, dword ptr [esi + 0x1c]
0x00405293: 03 CB                add ecx, ebx
0x00405295: E8 D6 98 1E 00       call 0x5eeb70
0x0040529A: 83 C7 01             add edi, 1
0x0040529D: 83 C3 0C             add ebx, 0xc
0x004052A0: 3B 7E 08             cmp edi, dword ptr [esi + 8]
0x004052A3: 7C EB                jl 0x405290
0x004052A5: 5B                   pop ebx
0x004052A6: 8B 46 1C             mov eax, dword ptr [esi + 0x1c]
0x004052A9: 6A 00                push 0
0x004052AB: 68 A8 01 00 00       push 0x1a8
0x004052B0: 68 00 24 9E 00       push 0x9e2400
0x004052B5: 50                   push eax
0x004052B6: E8 E5 92 36 00       call 0x76e5a0
0x004052BB: 8B 46 20             mov eax, dword ptr [esi + 0x20]
0x004052BE: 33 FF                xor edi, edi
0x004052C0: 3B C7                cmp eax, edi
0x004052C2: 89 7E 1C             mov dword ptr [esi + 0x1c], edi
0x004052C5: 74 0E                je 0x4052d5
0x004052C7: 57                   push edi
0x004052C8: 6A FF                push -1
0x004052CA: 68 18 0E 9E 00       push 0x9e0e18
0x004052CF: 50                   push eax
0x004052D0: E8 CB 92 36 00       call 0x76e5a0
0x004052D5: 8B 46 14             mov eax, dword ptr [esi + 0x14]
0x004052D8: 3B C7                cmp eax, edi
0x004052DA: 89 7E 20             mov dword ptr [esi + 0x20], edi
0x004052DD: 74 0C                je 0x4052eb
0x004052DF: 57                   push edi
0x004052E0: 57                   push edi
0x004052E1: 57                   push edi
0x004052E2: 50                   push eax
0x004052E3: E8 B8 92 36 00       call 0x76e5a0
0x004052E8: 89 7E 14             mov dword ptr [esi + 0x14], edi
0x004052EB: 5F                   pop edi
0x004052EC: 5E                   pop esi
0x004052ED: C3                   ret
0x004052EE: CC                   int3
0x004052EF: CC                   int3
0x004052F0: 55                   push ebp
0x004052F1: 8B EC                mov ebp, esp
0x004052F3: 83 EC 14             sub esp, 0x14
0x004052F6: 56                   push esi
0x004052F7: 8B F1                mov esi, ecx
0x004052F9: 83 7E 04 00          cmp dword ptr [esi + 4], 0
0x004052FD: 74 1A                je 0x405319
0x004052FF: E8 8C ED 05 00       call 0x464090
0x00405304: 50                   push eax
0x00405305: 68 CC 25 9E 00       push 0x9e25cc
0x0040530A: E8 61 98 1E 00       call 0x5eeb70
0x0040530F: 83 C4 08             add esp, 8
0x00405312: 5E                   pop esi
0x00405313: 8B E5                mov esp, ebp
0x00405315: 5D                   pop ebp
0x00405316: C2 08 00             ret 8
0x00405319: 8D 45 FC             lea eax, [ebp - 4]
0x0040531C: 50                   push eax
0x0040531D: 68 00 00 02 00       push 0x20000
0x00405322: E8 69 ED 05 00       call 0x464090
0x00405327: 50                   push eax
0x00405328: 6A 00                push 0
0x0040532A: E8 21 F8 01 00       call 0x424b50
0x0040532F: 85 C0                test eax, eax
0x00405331: 75 18                jne 0x40534b
0x00405333: E8 58 ED 05 00       call 0x464090
0x00405338: 50                   push eax
0x00405339: 68 B8 25 9E 00       push 0x9e25b8
0x0040533E: 68 79 00 10 85       push 0x85100079
0x00405343: E8 38 D7 36 00       call 0x772a80
0x00405348: 83 C4 0C             add esp, 0xc
0x0040534B: 8B 55 FC             mov edx, dword ptr [ebp - 4]
0x0040534E: 6A 00                push 0
0x00405350: 6A 00                push 0
0x00405352: 6A 00                push 0
0x00405354: 6A 04                push 4
0x00405356: 8D 4D F8             lea ecx, [ebp - 8]
0x00405359: 51                   push ecx
0x0040535A: 52                   push edx
0x0040535B: E8 D0 D1 01 00       call 0x422530
0x00405360: 85 C0                test eax, eax
0x00405362: 75 18                jne 0x40537c
0x00405364: E8 27 ED 05 00       call 0x464090
0x00405369: 50                   push eax
0x0040536A: 68 94 25 9E 00       push 0x9e2594
0x0040536F: 68 79 00 10 85       push 0x85100079
0x00405374: E8 07 D7 36 00       call 0x772a80
0x00405379: 83 C4 0C             add esp, 0xc
0x0040537C: 81 7D F8 57 44 42 43 cmp dword ptr [ebp - 8], 0x43424457
0x00405383: 74 1C                je 0x4053a1
0x00405385: E8 06 ED 05 00       call 0x464090
0x0040538A: 50                   push eax
0x0040538B: 8B 45 F8             mov eax, dword ptr [ebp - 8]
0x0040538E: 50                   push eax
0x0040538F: 68 74 25 9E 00       push 0x9e2574
0x00405394: 68 79 00 10 85       push 0x85100079
0x00405399: E8 E2 D6 36 00       call 0x772a80
0x0040539E: 83 C4 10             add esp, 0x10
0x004053A1: 8B 4D FC             mov ecx, dword ptr [ebp - 4]
0x004053A4: 57                   push edi
0x004053A5: 6A 00                push 0
0x004053A7: 6A 00                push 0
0x004053A9: 6A 00                push 0
0x004053AB: 6A 04                push 4
0x004053AD: 8D 7E 08             lea edi, [esi + 8]
0x004053B0: 57                   push edi
0x004053B1: 51                   push ecx
0x004053B2: E8 79 D1 01 00       call 0x422530
0x004053B7: 85 C0                test eax, eax
0x004053B9: 75 18                jne 0x4053d3
0x004053BB: E8 D0 EC 05 00       call 0x464090
0x004053C0: 50                   push eax
0x004053C1: 68 50 25 9E 00       push 0x9e2550
0x004053C6: 68 79 00 10 85       push 0x85100079
0x004053CB: E8 B0 D6 36 00       call 0x772a80
0x004053D0: 83 C4 0C             add esp, 0xc
0x004053D3: 83 3F 00             cmp dword ptr [edi], 0
0x004053D6: 75 11                jne 0x4053e9
0x004053D8: 8B 55 FC             mov edx, dword ptr [ebp - 4]
0x004053DB: 52                   push edx
0x004053DC: E8 2F D5 01 00       call 0x422910
0x004053E1: 5F                   pop edi
0x004053E2: 5E                   pop esi
0x004053E3: 8B E5                mov esp, ebp
0x004053E5: 5D                   pop ebp
0x004053E6: C2 08 00             ret 8
0x004053E9: 8B 4D FC             mov ecx, dword ptr [ebp - 4]
0x004053EC: 6A 00                push 0
0x004053EE: 6A 00                push 0
0x004053F0: 6A 00                push 0
0x004053F2: 6A 04                push 4
0x004053F4: 8D 45 F0             lea eax, [ebp - 0x10]
0x004053F7: 50                   push eax
0x004053F8: 51                   push ecx
0x004053F9: E8 32 D1 01 00       call 0x422530
0x004053FE: 85 C0                test eax, eax
0x00405400: 75 18                jne 0x40541a
0x00405402: E8 89 EC 05 00       call 0x464090
0x00405407: 50                   push eax
0x00405408: 68 2C 25 9E 00       push 0x9e252c
0x0040540D: 68 79 00 10 85       push 0x85100079
0x00405412: E8 69 D6 36 00       call 0x772a80
0x00405417: 83 C4 0C             add esp, 0xc
0x0040541A: 8B 45 F0             mov eax, dword ptr [ebp - 0x10]
0x0040541D: 83 F8 13             cmp eax, 0x13
0x00405420: 74 1B                je 0x40543d
0x00405422: 6A 13                push 0x13
0x00405424: 50                   push eax
0x00405425: E8 66 EC 05 00       call 0x464090
0x0040542A: 50                   push eax
0x0040542B: 68 F4 24 9E 00       push 0x9e24f4
0x00405430: 68 79 00 10 85       push 0x85100079
0x00405435: E8 46 D6 36 00       call 0x772a80
0x0040543A: 83 C4 14             add esp, 0x14
0x0040543D: 8B 45 FC             mov eax, dword ptr [ebp - 4]
0x00405440: 6A 00                push 0
0x00405442: 6A 00                push 0
0x00405444: 6A 00                push 0
0x00405446: 6A 04                push 4
0x00405448: 8D 55 EC             lea edx, [ebp - 0x14]
0x0040544B: 52                   push edx
0x0040544C: 50                   push eax
0x0040544D: E8 DE D0 01 00       call 0x422530
0x00405452: 85 C0                test eax, eax
0x00405454: 75 18                jne 0x40546e
0x00405456: E8 35 EC 05 00       call 0x464090
0x0040545B: 50                   push eax
0x0040545C: 68 D4 24 9E 00       push 0x9e24d4
0x00405461: 68 79 00 10 85       push 0x85100079
0x00405466: E8 15 D6 36 00       call 0x772a80
0x0040546B: 83 C4 0C             add esp, 0xc
0x0040546E: 8B 45 EC             mov eax, dword ptr [ebp - 0x14]
0x00405471: 83 F8 4C             cmp eax, 0x4c
0x00405474: 74 1B                je 0x405491
0x00405476: 6A 4C                push 0x4c
0x00405478: 50                   push eax
0x00405479: E8 12 EC 05 00       call 0x464090
0x0040547E: 50                   push eax
0x0040547F: 68 A4 24 9E 00       push 0x9e24a4
0x00405484: 68 79 00 10 85       push 0x85100079
0x00405489: E8 F2 D5 36 00       call 0x772a80
0x0040548E: 83 C4 14             add esp, 0x14
0x00405491: 8B 55 FC             mov edx, dword ptr [ebp - 4]
0x00405494: 6A 00                push 0
0x00405496: 6A 00                push 0
0x00405498: 6A 00                push 0
0x0040549A: 6A 04                push 4
0x0040549C: 8D 4D F4             lea ecx, [ebp - 0xc]
0x0040549F: 51                   push ecx
0x004054A0: 52                   push edx
0x004054A1: E8 8A D0 01 00       call 0x422530
0x004054A6: 85 C0                test eax, eax
0x004054A8: 75 18                jne 0x4054c2
0x004054AA: E8 E1 EB 05 00       call 0x464090
0x004054AF: 50                   push eax
0x004054B0: 68 80 24 9E 00       push 0x9e2480
0x004054B5: 68 79 00 10 85       push 0x85100079
0x004054BA: E8 C1 D5 36 00       call 0x772a80
0x004054BF: 83 C4 0C             add esp, 0xc
0x004054C2: 8B 7D 0C             mov edi, dword ptr [ebp + 0xc]
0x004054C5: 8B 45 F4             mov eax, dword ptr [ebp - 0xc]
0x004054C8: 53                   push ebx
0x004054C9: 8B 5D 08             mov ebx, dword ptr [ebp + 8]
0x004054CC: 6A 00                push 0
0x004054CE: 57                   push edi
0x004054CF: 53                   push ebx
0x004054D0: 50                   push eax
0x004054D1: E8 6A 90 36 00       call 0x76e540
0x004054D6: 8B 16                mov edx, dword ptr [esi]
0x004054D8: 8B 52 0C             mov edx, dword ptr [edx + 0xc]
0x004054DB: 57                   push edi
0x004054DC: 89 46 14             mov dword ptr [esi + 0x14], eax
0x004054DF: 8B 45 FC             mov eax, dword ptr [ebp - 4]
0x004054E2: 53                   push ebx
0x004054E3: 50                   push eax
0x004054E4: 8B CE                mov ecx, esi
0x004054E6: C7 46 0C 00 00 00 00 mov dword ptr [esi + 0xc], 0
0x004054ED: C7 46 10 FF FF FF 0F mov dword ptr [esi + 0x10], 0xfffffff
0x004054F4: FF D2                call edx
0x004054F6: 8B 45 F4             mov eax, dword ptr [ebp - 0xc]
0x004054F9: 8B 4E 14             mov ecx, dword ptr [esi + 0x14]
0x004054FC: 8B 55 FC             mov edx, dword ptr [ebp - 4]
0x004054FF: 6A 00                push 0
0x00405501: 6A 00                push 0
0x00405503: 6A 00                push 0
0x00405505: 50                   push eax
0x00405506: 51                   push ecx
0x00405507: 52                   push edx
0x00405508: E8 23 D0 01 00       call 0x422530
0x0040550D: 85 C0                test eax, eax
0x0040550F: 5B                   pop ebx
0x00405510: 75 13                jne 0x405525
0x00405512: E8 79 EB 05 00       call 0x464090
0x00405517: 50                   push eax
0x00405518: 68 60 24 9E 00       push 0x9e2460
0x0040551D: E8 7E D5 36 00       call 0x772aa0
0x00405522: 83 C4 08             add esp, 8
0x00405525: 8B 45 FC             mov eax, dword ptr [ebp - 4]
0x00405528: 50                   push eax
0x00405529: E8 E2 D3 01 00       call 0x422910
0x0040552E: 5F                   pop edi
0x0040552F: C7 46 04 01 00 00 00 mov dword ptr [esi + 4], 1
0x00405536: 5E                   pop esi
0x00405537: 8B E5                mov esp, ebp
0x00405539: 5D                   pop ebp
0x0040553A: C2 08 00             ret 8
0x0040553D: CC                   int3
0x0040553E: CC                   int3
0x0040553F: CC                   int3
0x00405540: 55                   push ebp
0x00405541: 8B EC                mov ebp, esp
0x00405543: E8 F8 CB 01 00       call 0x422140
0x00405548: 85 C0                test eax, eax
0x0040554A: 74 0A                je 0x405556
0x0040554C: 6A 00                push 0
0x0040554E: E8 8D 8F 01 00       call 0x41e4e0
0x00405553: 83 C4 04             add esp, 4
0x00405556: 8B 0D 88 DF C5 00    mov ecx, dword ptr [0xc5df88]
0x0040555C: 8B 01                mov eax, dword ptr [ecx]
0x0040555E: 8B 90 CC 00 00 00    mov edx, dword ptr [eax + 0xcc]
0x00405564: 6A 01                push 1
0x00405566: 6A 01                push 1
0x00405568: FF D2                call edx
0x0040556A: 8B 0D 44 75 CD 00    mov ecx, dword ptr [0xcd7544]
0x00405570: 85 C9                test ecx, ecx
0x00405572: 74 05                je 0x405579
0x00405574: E8 B7 7B 38 00       call 0x78d130
0x00405579: 56                   push esi
0x0040557A: 57                   push edi
0x0040557B: 6A FF                push -1
0x0040557D: E8 8E 30 0C 00       call 0x4c8610
0x00405582: 83 C4 04             add esp, 4
0x00405585: E8 46 B9 2A 00       call 0x6b0ed0
0x0040558A: 8B 15 C8 32 AD 00    mov edx, dword ptr [0xad32c8]
0x00405590: 33 C9                xor ecx, ecx
0x00405592: 85 D2                test edx, edx
0x00405594: 76 37                jbe 0x4055cd
0x00405596: 0F B6 78 04          movzx edi, byte ptr [eax + 4]
0x0040559A: 8B 35 DC 32 AD 00    mov esi, dword ptr [0xad32dc]
0x004055A0: 85 C9                test ecx, ecx
0x004055A2: 7C 08                jl 0x4055ac
0x004055A4: 3B CA                cmp ecx, edx
0x004055A6: 7D 04                jge 0x4055ac
0x004055A8: 8B C6                mov eax, esi
0x004055AA: EB 02                jmp 0x4055ae
0x004055AC: 33 C0                xor eax, eax
0x004055AE: 39 78 04             cmp dword ptr [eax + 4], edi
0x004055B1: 74 0C                je 0x4055bf
0x004055B3: 83 C1 01             add ecx, 1
0x004055B6: 83 C6 14             add esi, 0x14
0x004055B9: 3B CA                cmp ecx, edx
0x004055BB: 72 E3                jb 0x4055a0
0x004055BD: EB 0E                jmp 0x4055cd
0x004055BF: 33 C9                xor ecx, ecx
0x004055C1: 39 48 08             cmp dword ptr [eax + 8], ecx
0x004055C4: 0F 95 C1             setne cl
0x004055C7: 89 0D 98 F9 B2 00    mov dword ptr [0xb2f998], ecx
0x004055CD: 6A 00                push 0
0x004055CF: E8 9C 43 2B 00       call 0x6b9970
0x004055D4: E8 E7 F4 0C 00       call 0x4d4ac0
0x004055D9: 8B 7D 08             mov edi, dword ptr [ebp + 8]
0x004055DC: 57                   push edi
0x004055DD: E8 6E 21 0D 00       call 0x4d7750
0x004055E2: E8 49 FD 30 00       call 0x715330
0x004055E7: E8 E4 45 0C 00       call 0x4c9bd0
0x004055EC: E8 3F 3D 0C 00       call 0x4c9330
0x004055F1: E8 AA 29 3E 00       call 0x7e7fa0
0x004055F6: E8 55 5F 12 00       call 0x52b550
0x004055FB: E8 60 03 0F 00       call 0x4f5960
0x00405600: 8B 55 0C             mov edx, dword ptr [ebp + 0xc]
0x00405603: 89 50 08             mov dword ptr [eax + 8], edx
0x00405606: 8B 4D 10             mov ecx, dword ptr [ebp + 0x10]
0x00405609: 89 48 0C             mov dword ptr [eax + 0xc], ecx
0x0040560C: 8B 55 14             mov edx, dword ptr [ebp + 0x14]
0x0040560F: 89 50 10             mov dword ptr [eax + 0x10], edx
0x00405612: E8 99 25 3E 00       call 0x7e7bb0
0x00405617: E8 B4 0E 3E 00       call 0x7e64d0
0x0040561C: E8 4F 95 1E 00       call 0x5eeb70
0x00405621: E8 9A 0A 34 00       call 0x7460c0
0x00405626: E8 D5 CB 40 00       call 0x812200
0x0040562B: E8 F0 CB 33 00       call 0x742220
0x00405630: E8 6B EA 30 00       call 0x7140a0
0x00405635: E8 A6 38 2E 00       call 0x6e8ee0
0x0040563A: E8 91 EF 2D 00       call 0x6e45d0
0x0040563F: E8 FC 3D 30 00       call 0x709440
0x00405644: E8 27 95 1E 00       call 0x5eeb70
0x00405649: E8 72 0C 30 00       call 0x7062c0
0x0040564E: E8 1D 95 1E 00       call 0x5eeb70
0x00405653: E8 38 33 2B 00       call 0x6b8990
0x00405658: E8 03 02 21 00       call 0x615860
0x0040565D: E8 6E F2 2F 00       call 0x7048d0
0x00405662: E8 B9 BE FF FF       call 0x401520
0x00405667: 68 40 33 40 00       push 0x403340
0x0040566C: 6A 06                push 6
0x0040566E: E8 FD 80 07 00       call 0x47d770
0x00405673: 83 C4 10             add esp, 0x10
0x00405676: E8 55 D5 3D 00       call 0x7e2bd0
0x0040567B: A1 50 FE B2 00       mov eax, dword ptr [0xb2fe50]
0x00405680: 85 C0                test eax, eax
0x00405682: 75 23                jne 0x4056a7
0x00405684: 50                   push eax
0x00405685: 6A FF                push -1
0x00405687: 68 14 0E 9E 00       push 0x9e0e14
0x0040568C: 6A 28                push 0x28
0x0040568E: E8 AD 8E 36 00       call 0x76e540
0x00405693: 85 C0                test eax, eax
0x00405695: 74 09                je 0x4056a0
0x00405697: C7 40 20 00 00 00 00 mov dword ptr [eax + 0x20], 0
0x0040569E: EB 02                jmp 0x4056a2
0x004056A0: 33 C0                xor eax, eax
0x004056A2: A3 50 FE B2 00       mov dword ptr [0xb2fe50], eax
0x004056A7: 8B F0                mov esi, eax
0x004056A9: E8 C2 B2 2A 00       call 0x6b0970
0x004056AE: 6A 00                push 0
0x004056B0: 68 AA 13 00 00       push 0x13aa
0x004056B5: 68 94 0E 9E 00       push 0x9e0e94
0x004056BA: 6A 04                push 4
0x004056BC: 89 46 24             mov dword ptr [esi + 0x24], eax
0x004056BF: E8 7C 8E 36 00       call 0x76e540
0x004056C4: 85 C0                test eax, eax
0x004056C6: 74 0A                je 0x4056d2
0x004056C8: C7 00 5C 22 9E 00    mov dword ptr [eax], 0x9e225c
0x004056CE: 8B F0                mov esi, eax
0x004056D0: EB 02                jmp 0x4056d4
0x004056D2: 33 F6                xor esi, esi
0x004056D4: 8B 0D 50 FE B2 00    mov ecx, dword ptr [0xb2fe50]
0x004056DA: 85 C9                test ecx, ecx
0x004056DC: 75 26                jne 0x405704
0x004056DE: 51                   push ecx
0x004056DF: 6A FF                push -1
0x004056E1: 68 14 0E 9E 00       push 0x9e0e14
0x004056E6: 6A 28                push 0x28
0x004056E8: E8 53 8E 36 00       call 0x76e540
0x004056ED: 85 C0                test eax, eax
0x004056EF: 74 0B                je 0x4056fc
0x004056F1: C7 40 20 00 00 00 00 mov dword ptr [eax + 0x20], 0
0x004056F8: 8B C8                mov ecx, eax
0x004056FA: EB 02                jmp 0x4056fe
0x004056FC: 33 C9                xor ecx, ecx
0x004056FE: 89 0D 50 FE B2 00    mov dword ptr [0xb2fe50], ecx
0x00405704: 8B 51 20             mov edx, dword ptr [ecx + 0x20]
0x00405707: 8D 41 20             lea eax, [ecx + 0x20]
0x0040570A: 89 34 91             mov dword ptr [ecx + edx*4], esi
0x0040570D: 83 00 01             add dword ptr [eax], 1
0x00405710: 8B 06                mov eax, dword ptr [esi]
0x00405712: 8B 10                mov edx, dword ptr [eax]
0x00405714: 8B CE                mov ecx, esi
0x00405716: FF D2                call edx
0x00405718: 6A 00                push 0
0x0040571A: 68 80 12 40 00       push 0x401280
0x0040571F: 68 CB 01 00 00       push 0x1cb
0x00405724: E8 57 B4 2A 00       call 0x6b0b80
0x00405729: 6A 00                push 0
0x0040572B: 68 90 13 40 00       push 0x401390
0x00405730: 68 CD 01 00 00       push 0x1cd
0x00405735: E8 46 B4 2A 00       call 0x6b0b80
0x0040573A: 6A 00                push 0
0x0040573C: 68 10 3D 40 00       push 0x403d10
0x00405741: 6A 3E                push 0x3e
0x00405743: E8 38 B4 2A 00       call 0x6b0b80
0x00405748: 6A 00                push 0
0x0040574A: 68 80 14 40 00       push 0x401480
0x0040574F: 6A 3F                push 0x3f
0x00405751: E8 2A B4 2A 00       call 0x6b0b80
0x00405756: 6A 00                push 0
0x00405758: 68 10 39 40 00       push 0x403910
0x0040575D: 6A 40                push 0x40
0x0040575F: E8 1C B4 2A 00       call 0x6b0b80
0x00405764: 6A 00                push 0
0x00405766: 68 E0 3D 40 00       push 0x403de0
0x0040576B: 68 36 02 00 00       push 0x236
0x00405770: E8 0B B4 2A 00       call 0x6b0b80
0x00405775: 83 C4 48             add esp, 0x48
0x00405778: 6A 00                push 0
0x0040577A: 68 00 95 4D 00       push 0x4d9500
0x0040577F: 68 C5 03 00 00       push 0x3c5
0x00405784: E8 F7 B3 2A 00       call 0x6b0b80
0x00405789: A1 70 41 AD 00       mov eax, dword ptr [0xad4170]
0x0040578E: 83 C4 0C             add esp, 0xc
0x00405791: 3B F8                cmp edi, eax
0x00405793: 0F 8C B5 00 00 00    jl 0x40584e
0x00405799: 3B 3D 6C 41 AD 00    cmp edi, dword ptr [0xad416c]
0x0040579F: 0F 8F A9 00 00 00    jg 0x40584e
0x004057A5: 8B 15 80 41 AD 00    mov edx, dword ptr [0xad4180]
0x004057AB: 8B CF                mov ecx, edi
0x004057AD: 2B C8                sub ecx, eax
0x004057AF: 8B 34 8A             mov esi, dword ptr [edx + ecx*4]
0x004057B2: 85 F6                test esi, esi
0x004057B4: 75 0E                jne 0x4057c4
0x004057B6: 57                   push edi
0x004057B7: 68 00 26 9E 00       push 0x9e2600
0x004057BC: E8 AF 93 1E 00       call 0x5eeb70
0x004057C1: 83 C4 08             add esp, 8
0x004057C4: 6A 00                push 0
0x004057C6: 6A 00                push 0
0x004057C8: E8 63 41 0B 00       call 0x4b9930
0x004057CD: 6A 00                push 0
0x004057CF: 68 F0 AE 40 00       push 0x40aef0
0x004057D4: E8 37 41 0B 00       call 0x4b9910
0x004057D9: 6A 00                push 0
0x004057DB: 68 40 AF 40 00       push 0x40af40
0x004057E0: E8 AB 94 37 00       call 0x77ec90
0x004057E5: 83 C4 18             add esp, 0x18
0x004057E8: E8 53 C9 01 00       call 0x422140
0x004057ED: 85 C0                test eax, eax
0x004057EF: 74 0A                je 0x4057fb
0x004057F1: 6A 01                push 1
0x004057F3: E8 E8 8C 01 00       call 0x41e4e0
0x004057F8: 83 C4 04             add esp, 4
0x004057FB: 8B 4E 04             mov ecx, dword ptr [esi + 4]
0x004057FE: 6A 01                push 1
0x00405800: 57                   push edi
0x00405801: 8D 45 0C             lea eax, [ebp + 0xc]
0x00405804: 50                   push eax
0x00405805: 51                   push ecx
0x00405806: E8 25 BC 37 00       call 0x781430
0x0040580B: 6A 00                push 0
0x0040580D: 6A 00                push 0
0x0040580F: E8 FC 40 0B 00       call 0x4b9910
0x00405814: 6A 00                push 0
0x00405816: 6A 00                push 0
0x00405818: E8 73 94 37 00       call 0x77ec90
0x0040581D: 83 C4 20             add esp, 0x20
0x00405820: E8 FB 55 46 00       call 0x86ae20
0x00405825: A3 E4 F9 B2 00       mov dword ptr [0xb2f9e4], eax
0x0040582A: C7 05 E8 F9 B2 00 B0 04 00 00 mov dword ptr [0xb2f9e8], 0x4b0
0x00405834: C6 05 E0 F9 B2 00 01 mov byte ptr [0xb2f9e0], 1
0x0040583B: E8 A0 5B 13 00       call 0x53b3e0
0x00405840: 5F                   pop edi
0x00405841: C7 05 A0 F9 B2 00 01 00 00 00 mov dword ptr [0xb2f9a0], 1
0x0040584B: 5E                   pop esi
0x0040584C: 5D                   pop ebp
0x0040584D: C3                   ret
0x0040584E: 33 F6                xor esi, esi
0x00405850: E9 61 FF FF FF       jmp 0x4057b6
0x00405855: CC                   int3
0x00405856: CC                   int3
0x00405857: CC                   int3
0x00405858: CC                   int3
0x00405859: CC                   int3
0x0040585A: CC                   int3
0x0040585B: CC                   int3
0x0040585C: CC                   int3
0x0040585D: CC                   int3
0x0040585E: CC                   int3
0x0040585F: CC                   int3
0x00405860: 55                   push ebp
0x00405861: 8B EC                mov ebp, esp
0x00405863: 8B 45 10             mov eax, dword ptr [ebp + 0x10]
0x00405866: 53                   push ebx
0x00405867: 56                   push esi
0x00405868: 57                   push edi
0x00405869: 6A 00                push 0
0x0040586B: 8B F1                mov esi, ecx
0x0040586D: 8B 4D 0C             mov ecx, dword ptr [ebp + 0xc]
0x00405870: 50                   push eax
0x00405871: 8B 46 08             mov eax, dword ptr [esi + 8]
0x00405874: 8D 14 40             lea edx, [eax + eax*2]
0x00405877: 03 D2                add edx, edx
0x00405879: 51                   push ecx
0x0040587A: 03 D2                add edx, edx
0x0040587C: 52                   push edx
0x0040587D: E8 BE 8C 36 00       call 0x76e540
0x00405882: 33 DB                xor ebx, ebx
0x00405884: 39 5E 08             cmp dword ptr [esi + 8], ebx
0x00405887: 89 46 1C             mov dword ptr [esi + 0x1c], eax
0x0040588A: 7E 50                jle 0x4058dc
0x0040588C: 33 FF                xor edi, edi
0x0040588E: 8B FF                mov edi, edi
0x00405890: 8B 4E 1C             mov ecx, dword ptr [esi + 0x1c]
0x00405893: 03 CF                add ecx, edi
0x00405895: 74 05                je 0x40589c
0x00405897: E8 04 25 4B 00       call 0x8b7da0
0x0040589C: 8B 46 14             mov eax, dword ptr [esi + 0x14]
0x0040589F: 8B 4D 08             mov ecx, dword ptr [ebp + 8]
0x004058A2: 50                   push eax
0x004058A3: 51                   push ecx
0x004058A4: 8B 4E 1C             mov ecx, dword ptr [esi + 0x1c]
0x004058A7: 03 CF                add ecx, edi
0x004058A9: E8 F2 E7 05 00       call 0x4640a0
0x004058AE: 8B 56 1C             mov edx, dword ptr [esi + 0x1c]
0x004058B1: 8B 0C 17             mov ecx, dword ptr [edi + edx]
0x004058B4: 8D 04 17             lea eax, [edi + edx]
0x004058B7: 8B 56 0C             mov edx, dword ptr [esi + 0xc]
0x004058BA: 3B CA                cmp ecx, edx
0x004058BC: 7F 02                jg 0x4058c0
0x004058BE: 8B CA                mov ecx, edx
0x004058C0: 89 4E 0C             mov dword ptr [esi + 0xc], ecx
0x004058C3: 8B 00                mov eax, dword ptr [eax]
0x004058C5: 8B 4E 10             mov ecx, dword ptr [esi + 0x10]
0x004058C8: 3B C1                cmp eax, ecx
0x004058CA: 7C 02                jl 0x4058ce
0x004058CC: 8B C1                mov eax, ecx
0x004058CE: 83 C3 01             add ebx, 1
0x004058D1: 89 46 10             mov dword ptr [esi + 0x10], eax
0x004058D4: 83 C7 0C             add edi, 0xc
0x004058D7: 3B 5E 08             cmp ebx, dword ptr [esi + 8]
0x004058DA: 7C B4                jl 0x405890
0x004058DC: 8B 46 0C             mov eax, dword ptr [esi + 0xc]
0x004058DF: 2B 46 10             sub eax, dword ptr [esi + 0x10]
0x004058E2: 33 C9                xor ecx, ecx
0x004058E4: 83 C0 01             add eax, 1
0x004058E7: BA 04 00 00 00       mov edx, 4
0x004058EC: F7 E2                mul edx
0x004058EE: 0F 90 C1             seto cl
0x004058F1: 6A 00                push 0
0x004058F3: 68 C7 01 00 00       push 0x1c7
0x004058F8: 68 00 24 9E 00       push 0x9e2400
0x004058FD: F7 D9                neg ecx
0x004058FF: 0B C1                or eax, ecx
0x00405901: 50                   push eax
0x00405902: E8 39 8C 36 00       call 0x76e540
0x00405907: 8B 4E 0C             mov ecx, dword ptr [esi + 0xc]
0x0040590A: 2B 4E 10             sub ecx, dword ptr [esi + 0x10]
0x0040590D: 89 46 20             mov dword ptr [esi + 0x20], eax
0x00405910: 8D 14 8D 04 00 00 00 lea edx, [ecx*4 + 4]
0x00405917: 52                   push edx
0x00405918: 6A 00                push 0
0x0040591A: 50                   push eax
0x0040591B: E8 60 62 00 00       call 0x40bb80
0x00405920: 33 C9                xor ecx, ecx
0x00405922: 83 C4 0C             add esp, 0xc
0x00405925: 39 4E 08             cmp dword ptr [esi + 8], ecx
0x00405928: 7E 22                jle 0x40594c
0x0040592A: 33 D2                xor edx, edx
0x0040592C: 8D 64 24 00          lea esp, [esp]
0x00405930: 8B 46 1C             mov eax, dword ptr [esi + 0x1c]
0x00405933: 8B 3C 10             mov edi, dword ptr [eax + edx]
0x00405936: 2B 7E 10             sub edi, dword ptr [esi + 0x10]
0x00405939: 8B 5E 20             mov ebx, dword ptr [esi + 0x20]
0x0040593C: 03 C2                add eax, edx
0x0040593E: 83 C1 01             add ecx, 1
0x00405941: 89 04 BB             mov dword ptr [ebx + edi*4], eax
0x00405944: 83 C2 0C             add edx, 0xc
0x00405947: 3B 4E 08             cmp ecx, dword ptr [esi + 8]
0x0040594A: 7C E4                jl 0x405930
0x0040594C: 5F                   pop edi
0x0040594D: 5E                   pop esi
0x0040594E: 5B                   pop ebx
0x0040594F: 5D                   pop ebp
0x00405950: C2 0C 00             ret 0xc
0x00405953: CC                   int3
0x00405954: CC                   int3
0x00405955: CC                   int3
0x00405956: CC                   int3
0x00405957: CC                   int3
0x00405958: CC                   int3
0x00405959: CC                   int3
0x0040595A: CC                   int3
0x0040595B: CC                   int3
0x0040595C: CC                   int3
0x0040595D: CC                   int3
0x0040595E: CC                   int3
0x0040595F: CC                   int3
0x00405960: 83 E9 18             sub ecx, 0x18
0x00405963: E9 58 00 00 00       jmp 0x4059c0
0x00405968: CC                   int3
0x00405969: CC                   int3
0x0040596A: CC                   int3
0x0040596B: CC                   int3
0x0040596C: CC                   int3
0x0040596D: CC                   int3
0x0040596E: CC                   int3
0x0040596F: CC                   int3
0x00405970: 56                   push esi
0x00405971: 57                   push edi
0x00405972: 8B F9                mov edi, ecx
0x00405974: 8B 77 04             mov esi, dword ptr [edi + 4]
0x00405977: 83 C6 01             add esi, 1
0x0040597A: 3B 37                cmp esi, dword ptr [edi]
0x0040597C: 76 29                jbe 0x4059a7
0x0040597E: 8B 4F 0C             mov ecx, dword ptr [edi + 0xc]
0x00405981: 85 C9                test ecx, ecx
0x00405983: 75 0A                jne 0x40598f
0x00405985: 56                   push esi
0x00405986: 8B CF                mov ecx, edi
0x00405988: E8 B3 A6 1C 00       call 0x5d0040
0x0040598D: 8B C8                mov ecx, eax
0x0040598F: 33 D2                xor edx, edx
0x00405991: 8B C6                mov eax, esi
0x00405993: F7 F1                div ecx
0x00405995: 85 D2                test edx, edx
0x00405997: 74 06                je 0x40599f
0x00405999: 2B CA                sub ecx, edx
0x0040599B: 03 CE                add ecx, esi
0x0040599D: 8B F1                mov esi, ecx
0x0040599F: 56                   push esi
0x004059A0: 8B CF                mov ecx, edi
0x004059A2: E8 B9 DD FF FF       call 0x403760
0x004059A7: 8B 4F 04             mov ecx, dword ptr [edi + 4]
0x004059AA: 8B 47 08             mov eax, dword ptr [edi + 8]
0x004059AD: 8D 04 88             lea eax, [eax + ecx*4]
0x004059B0: 83 C1 01             add ecx, 1
0x004059B3: 89 4F 04             mov dword ptr [edi + 4], ecx
0x004059B6: 5F                   pop edi
0x004059B7: 5E                   pop esi
0x004059B8: C3                   ret
0x004059B9: CC                   int3
0x004059BA: CC                   int3
0x004059BB: CC                   int3
0x004059BC: CC                   int3
0x004059BD: CC                   int3
0x004059BE: CC                   int3
0x004059BF: CC                   int3
0x004059C0: 55                   push ebp
0x004059C1: 8B EC                mov ebp, esp
0x004059C3: 56                   push esi
0x004059C4: 8B F1                mov esi, ecx
0x004059C6: 83 7E 04 00          cmp dword ptr [esi + 4], 0
0x004059CA: C7 06 18 26 9E 00    mov dword ptr [esi], 0x9e2618
0x004059D0: C7 46 18 10 26 9E 00 mov dword ptr [esi + 0x18], 0x9e2610
0x004059D7: 74 05                je 0x4059de
0x004059D9: E8 A2 F8 FF FF       call 0x405280
0x004059DE: F6 45 08 01          test byte ptr [ebp + 8], 1
0x004059E2: C7 46 18 48 70 A2 00 mov dword ptr [esi + 0x18], 0xa27048
0x004059E9: C7 06 08 44 A9 00    mov dword ptr [esi], 0xa94408
0x004059EF: 74 0F                je 0x405a00
0x004059F1: 6A 00                push 0
0x004059F3: 6A FF                push -1
0x004059F5: 68 0C 0E 9E 00       push 0x9e0e0c
0x004059FA: 56                   push esi
0x004059FB: E8 A0 8B 36 00       call 0x76e5a0
0x00405A00: 8B C6                mov eax, esi
0x00405A02: 5E                   pop esi
0x00405A03: 5D                   pop ebp
0x00405A04: C2 04 00             ret 4
0x00405A07: CC                   int3
0x00405A08: CC                   int3
0x00405A09: CC                   int3
0x00405A0A: CC                   int3
0x00405A0B: CC                   int3
0x00405A0C: CC                   int3
0x00405A0D: CC                   int3
0x00405A0E: CC                   int3
0x00405A0F: CC                   int3
0x00405A10: 55                   push ebp
0x00405A11: 8B EC                mov ebp, esp
0x00405A13: 8B 45 08             mov eax, dword ptr [ebp + 8]
0x00405A16: 81 EC 04 01 00 00    sub esp, 0x104
0x00405A1C: 56                   push esi
0x00405A1D: 8B 75 0C             mov esi, dword ptr [ebp + 0xc]
0x00405A20: 8B 0E                mov ecx, dword ptr [esi]
0x00405A22: 57                   push edi
0x00405A23: 83 C0 08             add eax, 8
0x00405A26: 50                   push eax
0x00405A27: 51                   push ecx
0x00405A28: 68 D0 1A 9E 00       push 0x9e1ad0
0x00405A2D: 8D 95 FC FE FF FF    lea edx, [ebp - 0x104]
0x00405A33: 68 04 01 00 00       push 0x104
0x00405A38: 52                   push edx
0x00405A39: E8 32 96 36 00       call 0x76f070
0x00405A3E: 8D 7E 04             lea edi, [esi + 4]
0x00405A41: 8B 77 04             mov esi, dword ptr [edi + 4]
0x00405A44: 83 C6 01             add esi, 1
0x00405A47: 83 C4 14             add esp, 0x14
0x00405A4A: 3B 37                cmp esi, dword ptr [edi]
0x00405A4C: 76 29                jbe 0x405a77
0x00405A4E: 8B 4F 0C             mov ecx, dword ptr [edi + 0xc]
0x00405A51: 85 C9                test ecx, ecx
0x00405A53: 75 0A                jne 0x405a5f
0x00405A55: 56                   push esi
0x00405A56: 8B CF                mov ecx, edi
0x00405A58: E8 E3 A5 1C 00       call 0x5d0040
0x00405A5D: 8B C8                mov ecx, eax
0x00405A5F: 33 D2                xor edx, edx
0x00405A61: 8B C6                mov eax, esi
0x00405A63: F7 F1                div ecx
0x00405A65: 85 D2                test edx, edx
0x00405A67: 74 06                je 0x405a6f
0x00405A69: 2B CA                sub ecx, edx
0x00405A6B: 03 CE                add ecx, esi
0x00405A6D: 8B F1                mov esi, ecx
0x00405A6F: 56                   push esi
0x00405A70: 8B CF                mov ecx, edi
0x00405A72: E8 E9 DC FF FF       call 0x403760
0x00405A77: 8B 47 04             mov eax, dword ptr [edi + 4]
0x00405A7A: 8B 4F 08             mov ecx, dword ptr [edi + 8]
0x00405A7D: 6A 0F                push 0xf
0x00405A7F: 8D 34 81             lea esi, [ecx + eax*4]
0x00405A82: 68 38 26 9E 00       push 0x9e2638
0x00405A87: 8D 95 FC FE FF FF    lea edx, [ebp - 0x104]
0x00405A8D: 83 C0 01             add eax, 1
0x00405A90: 52                   push edx
0x00405A91: 89 47 04             mov dword ptr [edi + 4], eax
0x00405A94: E8 47 9F 36 00       call 0x76f9e0
0x00405A99: 89 06                mov dword ptr [esi], eax
0x00405A9B: 5F                   pop edi
0x00405A9C: 33 C0                xor eax, eax
0x00405A9E: 5E                   pop esi
0x00405A9F: 8B E5                mov esp, ebp
0x00405AA1: 5D                   pop ebp
0x00405AA2: C3                   ret
0x00405AA3: CC                   int3
0x00405AA4: CC                   int3
0x00405AA5: CC                   int3
0x00405AA6: CC                   int3
0x00405AA7: CC                   int3
0x00405AA8: CC                   int3
0x00405AA9: CC                   int3
0x00405AAA: CC                   int3
0x00405AAB: CC                   int3
0x00405AAC: CC                   int3
0x00405AAD: CC                   int3
0x00405AAE: CC                   int3
0x00405AAF: CC                   int3
0x00405AB0: 55                   push ebp
0x00405AB1: 8B EC                mov ebp, esp
0x00405AB3: 81 EC FC 03 00 00    sub esp, 0x3fc
0x00405AB9: B8 01 00 00 00       mov eax, 1
0x00405ABE: 53                   push ebx
0x00405ABF: 33 DB                xor ebx, ebx
0x00405AC1: BA 28 0D 9E 00       mov edx, 0x9e0d28
0x00405AC6: 56                   push esi
0x00405AC7: 8B F1                mov esi, ecx
0x00405AC9: B9 38 27 9E 00       mov ecx, 0x9e2738
0x00405ACE: 57                   push edi
0x00405ACF: 89 95 10 FF FF FF    mov dword ptr [ebp - 0xf0], edx
0x00405AD5: 89 8D 24 FF FF FF    mov dword ptr [ebp - 0xdc], ecx
0x00405ADB: 89 85 2C FF FF FF    mov dword ptr [ebp - 0xd4], eax
0x00405AE1: 89 95 38 FF FF FF    mov dword ptr [ebp - 0xc8], edx
0x00405AE7: 89 85 40 FF FF FF    mov dword ptr [ebp - 0xc0], eax
0x00405AED: 89 8D 4C FF FF FF    mov dword ptr [ebp - 0xb4], ecx
0x00405AF3: 89 85 54 FF FF FF    mov dword ptr [ebp - 0xac], eax
0x00405AF9: 89 85 58 FF FF FF    mov dword ptr [ebp - 0xa8], eax
0x00405AFF: 89 95 60 FF FF FF    mov dword ptr [ebp - 0xa0], edx
0x00405B05: 89 85 68 FF FF FF    mov dword ptr [ebp - 0x98], eax
0x00405B0B: 89 85 6C FF FF FF    mov dword ptr [ebp - 0x94], eax
0x00405B11: 89 8D 74 FF FF FF    mov dword ptr [ebp - 0x8c], ecx
0x00405B17: 89 85 7C FF FF FF    mov dword ptr [ebp - 0x84], eax
0x00405B1D: 89 45 80             mov dword ptr [ebp - 0x80], eax
0x00405B20: 89 55 88             mov dword ptr [ebp - 0x78], edx
0x00405B23: 89 45 90             mov dword ptr [ebp - 0x70], eax
0x00405B26: 89 45 94             mov dword ptr [ebp - 0x6c], eax
0x00405B29: 89 4D 9C             mov dword ptr [ebp - 0x64], ecx
0x00405B2C: 89 45 A4             mov dword ptr [ebp - 0x5c], eax
0x00405B2F: 89 45 A8             mov dword ptr [ebp - 0x58], eax
0x00405B32: BA 1C 0D 9E 00       mov edx, 0x9e0d1c
0x00405B37: 89 45 B8             mov dword ptr [ebp - 0x48], eax
0x00405B3A: 89 45 BC             mov dword ptr [ebp - 0x44], eax
0x00405B3D: B9 2C 27 9E 00       mov ecx, 0x9e272c
0x00405B42: 89 45 CC             mov dword ptr [ebp - 0x34], eax
0x00405B45: 89 45 D0             mov dword ptr [ebp - 0x30], eax
0x00405B48: 89 45 E0             mov dword ptr [ebp - 0x20], eax
0x00405B4B: 89 45 E4             mov dword ptr [ebp - 0x1c], eax
0x00405B4E: BF 1C 27 9E 00       mov edi, 0x9e271c
0x00405B53: 8D 85 04 FE FF FF    lea eax, [ebp - 0x1fc]
0x00405B59: 89 5E 04             mov dword ptr [esi + 4], ebx
0x00405B5C: 89 5E 08             mov dword ptr [esi + 8], ebx
0x00405B5F: 89 5E 0C             mov dword ptr [esi + 0xc], ebx
0x00405B62: 89 5E 10             mov dword ptr [esi + 0x10], ebx
0x00405B65: 89 9D 04 FF FF FF    mov dword ptr [ebp - 0xfc], ebx
0x00405B6B: 89 9D 08 FF FF FF    mov dword ptr [ebp - 0xf8], ebx
0x00405B71: 88 9D 0C FF FF FF    mov byte ptr [ebp - 0xf4], bl
0x00405B77: C7 85 14 FF FF FF 10 27 9E 00 mov dword ptr [ebp - 0xec], 0x9e2710
0x00405B81: 89 9D 18 FF FF FF    mov dword ptr [ebp - 0xe8], ebx
0x00405B87: 89 9D 1C FF FF FF    mov dword ptr [ebp - 0xe4], ebx
0x00405B8D: 88 9D 20 FF FF FF    mov byte ptr [ebp - 0xe0], bl
0x00405B93: C7 85 28 FF FF FF 00 27 9E 00 mov dword ptr [ebp - 0xd8], 0x9e2700
0x00405B9D: 89 9D 30 FF FF FF    mov dword ptr [ebp - 0xd0], ebx
0x00405BA3: 88 9D 34 FF FF FF    mov byte ptr [ebp - 0xcc], bl
0x00405BA9: C7 85 3C FF FF FF F4 26 9E 00 mov dword ptr [ebp - 0xc4], 0x9e26f4
0x00405BB3: 89 9D 44 FF FF FF    mov dword ptr [ebp - 0xbc], ebx
0x00405BB9: 88 9D 48 FF FF FF    mov byte ptr [ebp - 0xb8], bl
0x00405BBF: 89 BD 50 FF FF FF    mov dword ptr [ebp - 0xb0], edi
0x00405BC5: 88 9D 5C FF FF FF    mov byte ptr [ebp - 0xa4], bl
0x00405BCB: C7 85 64 FF FF FF E8 26 9E 00 mov dword ptr [ebp - 0x9c], 0x9e26e8
0x00405BD5: 88 9D 70 FF FF FF    mov byte ptr [ebp - 0x90], bl
0x00405BDB: C7 85 78 FF FF FF D8 26 9E 00 mov dword ptr [ebp - 0x88], 0x9e26d8
0x00405BE5: 88 5D 84             mov byte ptr [ebp - 0x7c], bl
0x00405BE8: C7 45 8C CC 26 9E 00 mov dword ptr [ebp - 0x74], 0x9e26cc
0x00405BEF: 88 5D 98             mov byte ptr [ebp - 0x68], bl
0x00405BF2: C7 45 A0 BC 26 9E 00 mov dword ptr [ebp - 0x60], 0x9e26bc
0x00405BF9: 88 5D AC             mov byte ptr [ebp - 0x54], bl
0x00405BFC: 89 55 B0             mov dword ptr [ebp - 0x50], edx
0x00405BFF: C7 45 B4 B0 26 9E 00 mov dword ptr [ebp - 0x4c], 0x9e26b0
0x00405C06: 88 5D C0             mov byte ptr [ebp - 0x40], bl
0x00405C09: 89 4D C4             mov dword ptr [ebp - 0x3c], ecx
0x00405C0C: C7 45 C8 A0 26 9E 00 mov dword ptr [ebp - 0x38], 0x9e26a0
0x00405C13: 88 5D D4             mov byte ptr [ebp - 0x2c], bl
0x00405C16: 89 55 D8             mov dword ptr [ebp - 0x28], edx
0x00405C19: C7 45 DC F4 26 9E 00 mov dword ptr [ebp - 0x24], 0x9e26f4
0x00405C20: 88 5D E8             mov byte ptr [ebp - 0x18], bl
0x00405C23: 89 4D EC             mov dword ptr [ebp - 0x14], ecx
0x00405C26: 89 7D F0             mov dword ptr [ebp - 0x10], edi
0x00405C29: 89 06                mov dword ptr [esi], eax
0x00405C2B: E8 20 CE FF FF       call 0x402a50
0x00405C30: 33 C9                xor ecx, ecx
0x00405C32: 38 5D 0C             cmp byte ptr [ebp + 0xc], bl
0x00405C35: 89 45 F4             mov dword ptr [ebp - 0xc], eax
0x00405C38: 0F 95 C1             setne cl
0x00405C3B: 89 5D 0C             mov dword ptr [ebp + 0xc], ebx
0x00405C3E: 89 4D F8             mov dword ptr [ebp - 8], ecx
0x00405C41: EB 0D                jmp 0x405c50
0x00405C43: 8D A4 24 00 00 00 00 lea esp, [esp]
0x00405C4A: 8D 9B 00 00 00 00    lea ebx, [ebx]
0x00405C50: 8D BD 08 FF FF FF    lea edi, [ebp - 0xf8]
0x00405C56: C7 45 FC 0C 00 00 00 mov dword ptr [ebp - 4], 0xc
0x00405C5D: 8D 49 00             lea ecx, [ecx]
0x00405C60: 8B 55 0C             mov edx, dword ptr [ebp + 0xc]
0x00405C63: 39 57 FC             cmp dword ptr [edi - 4], edx
0x00405C66: 0F 85 B1 00 00 00    jne 0x405d1d
0x00405C6C: 8B 45 F8             mov eax, dword ptr [ebp - 8]
0x00405C6F: 3B 07                cmp eax, dword ptr [edi]
0x00405C71: 0F 85 A6 00 00 00    jne 0x405d1d
0x00405C77: 8B 4D 08             mov ecx, dword ptr [ebp + 8]
0x00405C7A: 8B 57 08             mov edx, dword ptr [edi + 8]
0x00405C7D: 51                   push ecx
0x00405C7E: 52                   push edx
0x00405C7F: 8D 85 04 FE FF FF    lea eax, [ebp - 0x1fc]
0x00405C85: 68 00 01 00 00       push 0x100
0x00405C8A: 50                   push eax
0x00405C8B: E8 E0 93 36 00       call 0x76f070
0x00405C90: 8B 4D 08             mov ecx, dword ptr [ebp + 8]
0x00405C93: 8B 57 0C             mov edx, dword ptr [edi + 0xc]
0x00405C96: 51                   push ecx
0x00405C97: 52                   push edx
0x00405C98: 8D 85 04 FD FF FF    lea eax, [ebp - 0x2fc]
0x00405C9E: 68 00 01 00 00       push 0x100
0x00405CA3: 50                   push eax
0x00405CA4: E8 C7 93 36 00       call 0x76f070
0x00405CA9: 83 C4 20             add esp, 0x20
0x00405CAC: 38 5F 04             cmp byte ptr [edi + 4], bl
0x00405CAF: 74 53                je 0x405d04
0x00405CB1: 8B 45 F4             mov eax, dword ptr [ebp - 0xc]
0x00405CB4: 38 18                cmp byte ptr [eax], bl
0x00405CB6: 74 4C                je 0x405d04
0x00405CB8: 8D 8D 04 FE FF FF    lea ecx, [ebp - 0x1fc]
0x00405CBE: 51                   push ecx
0x00405CBF: 50                   push eax
0x00405CC0: 68 D0 1A 9E 00       push 0x9e1ad0
0x00405CC5: 8D 95 04 FC FF FF    lea edx, [ebp - 0x3fc]
0x00405CCB: 68 00 01 00 00       push 0x100
0x00405CD0: 52                   push edx
0x00405CD1: E8 9A 93 36 00       call 0x76f070
0x00405CD6: 83 C4 14             add esp, 0x14
0x00405CD9: 68 00 01 00 00       push 0x100
0x00405CDE: 8D 85 04 FC FF FF    lea eax, [ebp - 0x3fc]
0x00405CE4: 50                   push eax
0x00405CE5: 8D 8D 04 FE FF FF    lea ecx, [ebp - 0x1fc]
0x00405CEB: 51                   push ecx
0x00405CEC: E8 2F 90 36 00       call 0x76ed20
0x00405CF1: 8B 06                mov eax, dword ptr [esi]
0x00405CF3: 53                   push ebx
0x00405CF4: 56                   push esi
0x00405CF5: 68 10 5A 40 00       push 0x405a10
0x00405CFA: 8D 95 04 FD FF FF    lea edx, [ebp - 0x2fc]
0x00405D00: 52                   push edx
0x00405D01: 50                   push eax
0x00405D02: EB 11                jmp 0x405d15
0x00405D04: 8B 16                mov edx, dword ptr [esi]
0x00405D06: 53                   push ebx
0x00405D07: 56                   push esi
0x00405D08: 68 10 5A 40 00       push 0x405a10
0x00405D0D: 8D 8D 04 FD FF FF    lea ecx, [ebp - 0x2fc]
0x00405D13: 51                   push ecx
0x00405D14: 52                   push edx
0x00405D15: E8 E6 C2 05 00       call 0x462000
0x00405D1A: 83 C4 14             add esp, 0x14
0x00405D1D: 83 C7 14             add edi, 0x14
0x00405D20: 83 6D FC 01          sub dword ptr [ebp - 4], 1
0x00405D24: 0F 85 36 FF FF FF    jne 0x405c60
0x00405D2A: 39 5D 0C             cmp dword ptr [ebp + 0xc], ebx
0x00405D2D: 75 18                jne 0x405d47
0x00405D2F: 8B 46 08             mov eax, dword ptr [esi + 8]
0x00405D32: 8B 4E 0C             mov ecx, dword ptr [esi + 0xc]
0x00405D35: 53                   push ebx
0x00405D36: 68 00 12 40 00       push 0x401200
0x00405D3B: 6A 04                push 4
0x00405D3D: 50                   push eax
0x00405D3E: 51                   push ecx
0x00405D3F: E8 BC 5A 07 00       call 0x47b800
0x00405D44: 83 C4 14             add esp, 0x14
0x00405D47: 8B 45 0C             mov eax, dword ptr [ebp + 0xc]
0x00405D4A: 83 C0 01             add eax, 1
0x00405D4D: 83 F8 01             cmp eax, 1
0x00405D50: 89 45 0C             mov dword ptr [ebp + 0xc], eax
0x00405D53: 0F 8E F7 FE FF FF    jle 0x405c50
0x00405D59: 5F                   pop edi
0x00405D5A: 8B C6                mov eax, esi
0x00405D5C: 5E                   pop esi
0x00405D5D: 5B                   pop ebx
0x00405D5E: 8B E5                mov esp, ebp
0x00405D60: 5D                   pop ebp
0x00405D61: C2 08 00             ret 8
0x00405D64: CC                   int3
0x00405D65: CC                   int3
0x00405D66: CC                   int3
0x00405D67: CC                   int3
0x00405D68: CC                   int3
0x00405D69: CC                   int3
0x00405D6A: CC                   int3
0x00405D6B: CC                   int3
0x00405D6C: CC                   int3
0x00405D6D: CC                   int3
0x00405D6E: CC                   int3
0x00405D6F: CC                   int3
0x00405D70: 56                   push esi
0x00405D71: 57                   push edi
0x00405D72: 8B F9                mov edi, ecx
0x00405D74: 33 F6                xor esi, esi
0x00405D76: 39 77 08             cmp dword ptr [edi + 8], esi
0x00405D79: 76 2D                jbe 0x405da8
0x00405D7B: EB 03                jmp 0x405d80
0x00405D7D: 8D 49 00             lea ecx, [ecx]
0x00405D80: 8B 47 0C             mov eax, dword ptr [edi + 0xc]
0x00405D83: 83 3C B0 00          cmp dword ptr [eax + esi*4], 0
0x00405D87: 8D 04 B0             lea eax, [eax + esi*4]
0x00405D8A: 74 14                je 0x405da0
0x00405D8C: 8B 08                mov ecx, dword ptr [eax]
0x00405D8E: 6A 00                push 0
0x00405D90: 68 85 00 00 00       push 0x85
0x00405D95: 68 38 26 9E 00       push 0x9e2638
0x00405D9A: 51                   push ecx
0x00405D9B: E8 00 88 36 00       call 0x76e5a0
0x00405DA0: 83 C6 01             add esi, 1
0x00405DA3: 3B 77 08             cmp esi, dword ptr [edi + 8]
0x00405DA6: 72 D8                jb 0x405d80
0x00405DA8: 8B 7F 0C             mov edi, dword ptr [edi + 0xc]
0x00405DAB: 85 FF                test edi, edi
0x00405DAD: 74 0F                je 0x405dbe
0x00405DAF: 6A 00                push 0
0x00405DB1: 6A FE                push -2
0x00405DB3: 68 7C 63 AB 00       push 0xab637c
0x00405DB8: 57                   push edi
0x00405DB9: E8 E2 87 36 00       call 0x76e5a0
0x00405DBE: 5F                   pop edi
0x00405DBF: 5E                   pop esi
0x00405DC0: C3                   ret
0x00405DC1: CC                   int3
0x00405DC2: CC                   int3
0x00405DC3: CC                   int3
0x00405DC4: CC                   int3
0x00405DC5: CC                   int3
0x00405DC6: CC                   int3
0x00405DC7: CC                   int3
0x00405DC8: CC                   int3
0x00405DC9: CC                   int3
0x00405DCA: CC                   int3
0x00405DCB: CC                   int3
0x00405DCC: CC                   int3
0x00405DCD: CC                   int3
0x00405DCE: CC                   int3
0x00405DCF: CC                   int3
0x00405DD0: 55                   push ebp
0x00405DD1: 8B EC                mov ebp, esp
0x00405DD3: 81 EC 50 04 00 00    sub esp, 0x450
0x00405DD9: E8 B2 CD FF FF       call 0x402b90
0x00405DDE: F6 D8                neg al
0x00405DE0: 1B C0                sbb eax, eax
0x00405DE2: F7 D8                neg eax
0x00405DE4: 83 C0 01             add eax, 1
0x00405DE7: 89 45 EC             mov dword ptr [ebp - 0x14], eax
0x00405DEA: 33 C9                xor ecx, ecx
0x00405DEC: 8D 64 24 00          lea esp, [esp]
0x00405DF0: C6 81 74 61 AB 00 00 mov byte ptr [ecx + 0xab6174], 0
0x00405DF7: 83 C1 10             add ecx, 0x10
0x00405DFA: 81 F9 C0 01 00 00    cmp ecx, 0x1c0
0x00405E00: 72 EE                jb 0x405df0
0x00405E02: A8 02                test al, 2
0x00405E04: 74 12                je 0x405e18
0x00405E06: 68 00 1F 9E 00       push 0x9e1f00
0x00405E0B: E8 30 16 36 00       call 0x767440
0x00405E10: 8B 40 28             mov eax, dword ptr [eax + 0x28]
0x00405E13: 83 C4 04             add esp, 4
0x00405E16: EB 05                jmp 0x405e1d
0x00405E18: B8 70 28 9E 00       mov eax, 0x9e2870
0x00405E1D: 53                   push ebx
0x00405E1E: 56                   push esi
0x00405E1F: 57                   push edi
0x00405E20: 6A 00                push 0
0x00405E22: 50                   push eax
0x00405E23: 8D 4D D4             lea ecx, [ebp - 0x2c]
0x00405E26: 89 45 FC             mov dword ptr [ebp - 4], eax
0x00405E29: E8 82 FC FF FF       call 0x405ab0
0x00405E2E: BB 40 00 00 00       mov ebx, 0x40
0x00405E33: 33 FF                xor edi, edi
0x00405E35: 39 1D 3C FA B2 00    cmp dword ptr [0xb2fa3c], ebx
0x00405E3B: 73 3C                jae 0x405e79
0x00405E3D: 39 1D 38 FA B2 00    cmp dword ptr [0xb2fa38], ebx
0x00405E43: 73 34                jae 0x405e79
0x00405E45: 8B 0D 44 FA B2 00    mov ecx, dword ptr [0xb2fa44]
0x00405E4B: 85 C9                test ecx, ecx
0x00405E4D: 75 0D                jne 0x405e5c
0x00405E4F: 53                   push ebx
0x00405E50: B9 38 FA B2 00       mov ecx, 0xb2fa38
0x00405E55: E8 E6 A1 1C 00       call 0x5d0040
0x00405E5A: 8B C8                mov ecx, eax
0x00405E5C: 33 D2                xor edx, edx
0x00405E5E: 8B C3                mov eax, ebx
0x00405E60: F7 F1                div ecx
0x00405E62: 8B F3                mov esi, ebx
0x00405E64: 85 D2                test edx, edx
0x00405E66: 74 06                je 0x405e6e
0x00405E68: 2B CA                sub ecx, edx
0x00405E6A: 03 CB                add ecx, ebx
0x00405E6C: 8B F1                mov esi, ecx
0x00405E6E: 56                   push esi
0x00405E6F: B9 38 FA B2 00       mov ecx, 0xb2fa38
0x00405E74: E8 77 D9 FF FF       call 0x4037f0
0x00405E79: 8B 75 DC             mov esi, dword ptr [ebp - 0x24]
0x00405E7C: 85 F6                test esi, esi
0x00405E7E: 89 1D 3C FA B2 00    mov dword ptr [0xb2fa3c], ebx
0x00405E84: 76 54                jbe 0x405eda
0x00405E86: EB 08                jmp 0x405e90
0x00405E88: 8D A4 24 00 00 00 00 lea esp, [esp]
0x00405E8F: 90                   nop
0x00405E90: A1 40 FA B2 00       mov eax, dword ptr [0xb2fa40]
0x00405E95: 8B 4D E0             mov ecx, dword ptr [ebp - 0x20]
0x00405E98: 8B 54 B1 FC          mov edx, dword ptr [ecx + esi*4 - 4]
0x00405E9C: 8D 04 B8             lea eax, [eax + edi*4]
0x00405E9F: 50                   push eax
0x00405EA0: 68 00 0C 00 00       push 0xc00
0x00405EA5: 53                   push ebx
0x00405EA6: 52                   push edx
0x00405EA7: E8 A4 BA 01 00       call 0x421950
0x00405EAC: 85 C0                test eax, eax
0x00405EAE: 74 25                je 0x405ed5
0x00405EB0: 8B 45 E0             mov eax, dword ptr [ebp - 0x20]
0x00405EB3: 8B 4C B0 FC          mov ecx, dword ptr [eax + esi*4 - 4]
0x00405EB7: 68 64 28 9E 00       push 0x9e2864
0x00405EBC: 51                   push ecx
0x00405EBD: E8 AE 98 36 00       call 0x76f770
0x00405EC2: 83 C4 08             add esp, 8
0x00405EC5: 85 C0                test eax, eax
0x00405EC7: 74 06                je 0x405ecf
0x00405EC9: 89 1D 64 61 AB 00    mov dword ptr [0xab6164], ebx
0x00405ECF: 83 C7 01             add edi, 1
0x00405ED2: 83 C3 01             add ebx, 1
0x00405ED5: 83 EE 01             sub esi, 1
0x00405ED8: 75 B6                jne 0x405e90
0x00405EDA: 89 7D F0             mov dword ptr [ebp - 0x10], edi
0x00405EDD: 33 F6                xor esi, esi
0x00405EDF: 90                   nop
0x00405EE0: 83 BE 6C 61 AB 00 03 cmp dword ptr [esi + 0xab616c], 3
0x00405EE7: 75 25                jne 0x405f0e
0x00405EE9: 8B 55 FC             mov edx, dword ptr [ebp - 4]
0x00405EEC: 8B 86 68 61 AB 00    mov eax, dword ptr [esi + 0xab6168]
0x00405EF2: 52                   push edx
0x00405EF3: 57                   push edi
0x00405EF4: 53                   push ebx
0x00405EF5: E8 36 EA FF FF       call 0x404930
0x00405EFA: 83 C4 0C             add esp, 0xc
0x00405EFD: 84 C0                test al, al
0x00405EFF: 74 0D                je 0x405f0e
0x00405F01: 83 C7 01             add edi, 1
0x00405F04: C6 86 74 61 AB 00 01 mov byte ptr [esi + 0xab6174], 1
0x00405F0B: 83 C3 01             add ebx, 1
0x00405F0E: 83 C6 10             add esi, 0x10
0x00405F11: 81 FE C0 01 00 00    cmp esi, 0x1c0
0x00405F17: 72 C7                jb 0x405ee0
0x00405F19: 33 C0                xor eax, eax
0x00405F1B: 39 45 F0             cmp dword ptr [ebp - 0x10], eax
0x00405F1E: 89 45 F8             mov dword ptr [ebp - 8], eax
0x00405F21: 0F 86 04 01 00 00    jbe 0x40602b
0x00405F27: EB 07                jmp 0x405f30
0x00405F29: 8D A4 24 00 00 00 00 lea esp, [esp]
0x00405F30: 8B 0D 40 FA B2 00    mov ecx, dword ptr [0xb2fa40]
0x00405F36: 8B 14 81             mov edx, dword ptr [ecx + eax*4]
0x00405F39: 89 55 E8             mov dword ptr [ebp - 0x18], edx
0x00405F3C: 33 F6                xor esi, esi
0x00405F3E: 8B FF                mov edi, edi
0x00405F40: 83 BE 6C 61 AB 00 03 cmp dword ptr [esi + 0xab616c], 3
0x00405F47: 0F 85 BD 00 00 00    jne 0x40600a
0x00405F4D: 80 BE 74 61 AB 00 00 cmp byte ptr [esi + 0xab6174], 0
0x00405F54: 75 5C                jne 0x405fb2
0x00405F56: 8B 45 FC             mov eax, dword ptr [ebp - 4]
0x00405F59: 68 FF FF FF 7F       push 0x7fffffff
0x00405F5E: 68 5C 28 9E 00       push 0x9e285c
0x00405F63: 50                   push eax
0x00405F64: E8 17 88 36 00       call 0x76e780
0x00405F69: 85 C0                test eax, eax
0x00405F6B: 74 45                je 0x405fb2
0x00405F6D: 8B 4D FC             mov ecx, dword ptr [ebp - 4]
0x00405F70: 68 FF FF FF 7F       push 0x7fffffff
0x00405F75: 68 54 28 9E 00       push 0x9e2854
0x00405F7A: 51                   push ecx
0x00405F7B: E8 00 88 36 00       call 0x76e780
0x00405F80: 85 C0                test eax, eax
0x00405F82: 74 2E                je 0x405fb2
0x00405F84: 8B 55 FC             mov edx, dword ptr [ebp - 4]
0x00405F87: 68 FF FF FF 7F       push 0x7fffffff
0x00405F8C: 68 4C 28 9E 00       push 0x9e284c
0x00405F91: 52                   push edx
0x00405F92: E8 E9 87 36 00       call 0x76e780
0x00405F97: 85 C0                test eax, eax
0x00405F99: 74 17                je 0x405fb2
0x00405F9B: 8B 45 FC             mov eax, dword ptr [ebp - 4]
0x00405F9E: 68 FF FF FF 7F       push 0x7fffffff
0x00405FA3: 68 44 28 9E 00       push 0x9e2844
0x00405FA8: 50                   push eax
0x00405FA9: E8 D2 87 36 00       call 0x76e780
0x00405FAE: 85 C0                test eax, eax
0x00405FB0: 75 58                jne 0x40600a
0x00405FB2: 8B 8E 68 61 AB 00    mov ecx, dword ptr [esi + 0xab6168]
0x00405FB8: 68 00 01 00 00       push 0x100
0x00405FBD: 51                   push ecx
0x00405FBE: 8D 95 B4 FE FF FF    lea edx, [ebp - 0x14c]
0x00405FC4: 52                   push edx
0x00405FC5: E8 56 8D 36 00       call 0x76ed20
0x00405FCA: 8D 85 B4 FE FF FF    lea eax, [ebp - 0x14c]
0x00405FD0: 50                   push eax
0x00405FD1: E8 5A 8E 36 00       call 0x76ee30
0x00405FD6: 8B 15 40 FA B2 00    mov edx, dword ptr [0xb2fa40]
0x00405FDC: 8D 8D B4 FE FF FF    lea ecx, [ebp - 0x14c]
0x00405FE2: 83 E9 04             sub ecx, 4
0x00405FE5: C6 04 08 00          mov byte ptr [eax + ecx], 0
0x00405FE9: 8B 4D E8             mov ecx, dword ptr [ebp - 0x18]
0x00405FEC: 8D 04 BA             lea eax, [edx + edi*4]
0x00405FEF: 50                   push eax
0x00405FF0: 6A 00                push 0
0x00405FF2: 53                   push ebx
0x00405FF3: 8D 85 B4 FE FF FF    lea eax, [ebp - 0x14c]
0x00405FF9: 50                   push eax
0x00405FFA: 51                   push ecx
0x00405FFB: E8 10 BA 01 00       call 0x421a10
0x00406000: 85 C0                test eax, eax
0x00406002: 74 06                je 0x40600a
0x00406004: 83 C7 01             add edi, 1
0x00406007: 83 C3 01             add ebx, 1
0x0040600A: 83 C6 10             add esi, 0x10
0x0040600D: 81 FE C0 01 00 00    cmp esi, 0x1c0
0x00406013: 0F 82 27 FF FF FF    jb 0x405f40
0x00406019: 8B 45 F8             mov eax, dword ptr [ebp - 8]
0x0040601C: 83 C0 01             add eax, 1
0x0040601F: 3B 45 F0             cmp eax, dword ptr [ebp - 0x10]
0x00406022: 89 45 F8             mov dword ptr [ebp - 8], eax
0x00406025: 0F 82 05 FF FF FF    jb 0x405f30
0x0040602B: 89 3D 14 FA B2 00    mov dword ptr [0xb2fa14], edi
0x00406031: C7 45 F8 3F 00 00 00 mov dword ptr [ebp - 8], 0x3f
0x00406038: 89 3D 18 FA B2 00    mov dword ptr [0xb2fa18], edi
0x0040603E: 33 F6                xor esi, esi
0x00406040: 8B 15 40 FA B2 00    mov edx, dword ptr [0xb2fa40]
0x00406046: C7 04 BA 00 00 00 00 mov dword ptr [edx + edi*4], 0
0x0040604D: 8B 86 6C 61 AB 00    mov eax, dword ptr [esi + 0xab616c]
0x00406053: 83 F8 03             cmp eax, 3
0x00406056: 0F 84 88 01 00 00    je 0x4061e4
0x0040605C: 83 F8 04             cmp eax, 4
0x0040605F: 0F 84 7F 01 00 00    je 0x4061e4
0x00406065: 83 F8 02             cmp eax, 2
0x00406068: 8B 45 EC             mov eax, dword ptr [ebp - 0x14]
0x0040606B: 0F 94 45 F7          sete byte ptr [ebp - 9]
0x0040606F: 85 86 70 61 AB 00    test dword ptr [esi + 0xab6170], eax
0x00406075: 0F 95 C3             setne bl
0x00406078: E8 C3 C0 01 00       call 0x422140
0x0040607D: 85 C0                test eax, eax
0x0040607F: 74 0D                je 0x40608e
0x00406081: 83 BE 6C 61 AB 00 02 cmp dword ptr [esi + 0xab616c], 2
0x00406088: 75 04                jne 0x40608e
0x0040608A: 33 C0                xor eax, eax
0x0040608C: EB 05                jmp 0x406093
0x0040608E: B8 01 00 00 00       mov eax, 1
0x00406093: 84 C3                test bl, al
0x00406095: 0F 84 39 01 00 00    je 0x4061d4
0x0040609B: 8B 5D FC             mov ebx, dword ptr [ebp - 4]
0x0040609E: 8B 4D F8             mov ecx, dword ptr [ebp - 8]
0x004060A1: 8B 86 68 61 AB 00    mov eax, dword ptr [esi + 0xab6168]
0x004060A7: 53                   push ebx
0x004060A8: 57                   push edi
0x004060A9: 51                   push ecx
0x004060AA: E8 81 E8 FF FF       call 0x404930
0x004060AF: 83 C4 0C             add esp, 0xc
0x004060B2: 84 C0                test al, al
0x004060B4: 0F 85 1A 01 00 00    jne 0x4061d4
0x004060BA: 38 45 F7             cmp byte ptr [ebp - 9], al
0x004060BD: 0F 85 11 01 00 00    jne 0x4061d4
0x004060C3: 8B 96 68 61 AB 00    mov edx, dword ptr [esi + 0xab6168]
0x004060C9: A1 58 61 AB 00       mov eax, dword ptr [0xab6158]
0x004060CE: 52                   push edx
0x004060CF: 50                   push eax
0x004060D0: 68 D0 1A 9E 00       push 0x9e1ad0
0x004060D5: 8D 8D B0 FD FF FF    lea ecx, [ebp - 0x250]
0x004060DB: 68 04 01 00 00       push 0x104
0x004060E0: 51                   push ecx
0x004060E1: E8 8A 8F 36 00       call 0x76f070
0x004060E6: 8D 95 B0 FD FF FF    lea edx, [ebp - 0x250]
0x004060EC: 68 C8 1A 9E 00       push 0x9e1ac8
0x004060F1: 52                   push edx
0x004060F2: E8 09 96 36 00       call 0x76f700
0x004060F7: 83 C4 1C             add esp, 0x1c
0x004060FA: 85 C0                test eax, eax
0x004060FC: 74 1E                je 0x40611c
0x004060FE: 8B FF                mov edi, edi
0x00406100: 8B 0B                mov ecx, dword ptr [ebx]
0x00406102: 8D 95 B0 FD FF FF    lea edx, [ebp - 0x250]
0x00406108: 68 C8 1A 9E 00       push 0x9e1ac8
0x0040610D: 52                   push edx
0x0040610E: 89 08                mov dword ptr [eax], ecx
0x00406110: E8 EB 95 36 00       call 0x76f700
0x00406115: 83 C4 08             add esp, 8
0x00406118: 85 C0                test eax, eax
0x0040611A: 75 E4                jne 0x406100
0x0040611C: E8 2F C0 01 00       call 0x422150
0x00406121: 8B D8                mov ebx, eax
0x00406123: 68 00 01 00 00       push 0x100
0x00406128: 8D 85 B4 FE FF FF    lea eax, [ebp - 0x14c]
0x0040612E: 50                   push eax
0x0040612F: E8 AC B6 36 00       call 0x7717e0
0x00406134: 50                   push eax
0x00406135: E8 46 B9 36 00       call 0x771a80
0x0040613A: F6 05 50 F0 B2 00 01 test byte ptr [0xb2f050], 1
0x00406141: 74 2A                je 0x40616d
0x00406143: 8D 8D B4 FE FF FF    lea ecx, [ebp - 0x14c]
0x00406149: 51                   push ecx
0x0040614A: 68 59 F0 B2 00       push 0xb2f059
0x0040614F: 53                   push ebx
0x00406150: 68 C0 27 9E 00       push 0x9e27c0
0x00406155: E8 46 C9 36 00       call 0x772aa0
0x0040615A: 83 C4 10             add esp, 0x10
0x0040615D: 83 C7 01             add edi, 1
0x00406160: 83 6D F8 01          sub dword ptr [ebp - 8], 1
0x00406164: C6 86 74 61 AB 00 01 mov byte ptr [esi + 0xab6174], 1
0x0040616B: EB 7A                jmp 0x4061e7
0x0040616D: 8B 96 68 61 AB 00    mov edx, dword ptr [esi + 0xab6168]
0x00406173: 52                   push edx
0x00406174: 68 A0 27 9E 00       push 0x9e27a0
0x00406179: 8D 85 B0 FB FF FF    lea eax, [ebp - 0x450]
0x0040617F: 68 00 01 00 00       push 0x100
0x00406184: 50                   push eax
0x00406185: E8 E6 8E 36 00       call 0x76f070
0x0040618A: 83 C4 10             add esp, 0x10
0x0040618D: 68 FF FF FF 7F       push 0x7fffffff
0x00406192: 68 84 27 9E 00       push 0x9e2784
0x00406197: 8D 8D B0 FC FF FF    lea ecx, [ebp - 0x350]
0x0040619D: 51                   push ecx
0x0040619E: E8 7D 8B 36 00       call 0x76ed20
0x004061A3: 8D 95 B0 FC FF FF    lea edx, [ebp - 0x350]
0x004061A9: 52                   push edx
0x004061AA: 8D 85 B0 FB FF FF    lea eax, [ebp - 0x450]
0x004061B0: 50                   push eax
0x004061B1: 6A 00                push 0
0x004061B3: 6A 02                push 2
0x004061B5: E8 E6 64 46 00       call 0x86c6a0
0x004061BA: 83 C4 04             add esp, 4
0x004061BD: 50                   push eax
0x004061BE: E8 1D 65 46 00       call 0x86c6e0
0x004061C3: 83 C4 10             add esp, 0x10
0x004061C6: E8 15 B6 36 00       call 0x7717e0
0x004061CB: 50                   push eax
0x004061CC: E8 6F D8 36 00       call 0x773a40
0x004061D1: 83 C4 04             add esp, 4
0x004061D4: 83 C7 01             add edi, 1
0x004061D7: 83 6D F8 01          sub dword ptr [ebp - 8], 1
0x004061DB: C6 86 74 61 AB 00 01 mov byte ptr [esi + 0xab6174], 1
0x004061E2: EB 03                jmp 0x4061e7
0x004061E4: 83 C7 01             add edi, 1
0x004061E7: 83 C6 10             add esi, 0x10
0x004061EA: 81 FE C0 01 00 00    cmp esi, 0x1c0
0x004061F0: 0F 82 4A FE FF FF    jb 0x406040
0x004061F6: E8 45 BF 01 00       call 0x422140
0x004061FB: 85 C0                test eax, eax
0x004061FD: 74 07                je 0x406206
0x004061FF: C7 45 F8 40 00 00 00 mov dword ptr [ebp - 8], 0x40
0x00406206: E8 25 BF 01 00       call 0x422130
0x0040620B: 85 C0                test eax, eax
0x0040620D: 74 3B                je 0x40624a
0x0040620F: 8B 5D FC             mov ebx, dword ptr [ebp - 4]
0x00406212: 33 F6                xor esi, esi
0x00406214: 83 BE 6C 61 AB 00 04 cmp dword ptr [esi + 0xab616c], 4
0x0040621B: 75 22                jne 0x40623f
0x0040621D: 8B 4D F8             mov ecx, dword ptr [ebp - 8]
0x00406220: 8B 86 68 61 AB 00    mov eax, dword ptr [esi + 0xab6168]
0x00406226: 53                   push ebx
0x00406227: 57                   push edi
0x00406228: 51                   push ecx
0x00406229: E8 02 E7 FF FF       call 0x404930
0x0040622E: 83 C4 0C             add esp, 0xc
0x00406231: 84 C0                test al, al
0x00406233: 74 0A                je 0x40623f
0x00406235: C6 86 74 61 AB 00 01 mov byte ptr [esi + 0xab6174], 1
0x0040623C: 83 C7 01             add edi, 1
0x0040623F: 83 C6 10             add esi, 0x10
0x00406242: 81 FE C0 01 00 00    cmp esi, 0x1c0
0x00406248: 72 CA                jb 0x406214
0x0040624A: 3B 3D 3C FA B2 00    cmp edi, dword ptr [0xb2fa3c]
0x00406250: 76 61                jbe 0x4062b3
0x00406252: 3B 3D 38 FA B2 00    cmp edi, dword ptr [0xb2fa38]
0x00406258: 76 59                jbe 0x4062b3
0x0040625A: 8B 0D 44 FA B2 00    mov ecx, dword ptr [0xb2fa44]
0x00406260: 85 C9                test ecx, ecx
0x00406262: 75 32                jne 0x406296
0x00406264: 83 FF 40             cmp edi, 0x40
0x00406267: 8B CF                mov ecx, edi
0x00406269: 73 1C                jae 0x406287
0x0040626B: 8D 47 FF             lea eax, [edi - 1]
0x0040626E: 23 C7                and eax, edi
0x00406270: 74 09                je 0x40627b
0x00406272: 8B C8                mov ecx, eax
0x00406274: 8D 41 FF             lea eax, [ecx - 1]
0x00406277: 23 C1                and eax, ecx
0x00406279: 75 F7                jne 0x406272
0x0040627B: 83 F9 01             cmp ecx, 1
0x0040627E: 73 16                jae 0x406296
0x00406280: B9 01 00 00 00       mov ecx, 1
0x00406285: EB 0F                jmp 0x406296
0x00406287: C7 05 44 FA B2 00 40 00 00 00 mov dword ptr [0xb2fa44], 0x40
0x00406291: B9 40 00 00 00       mov ecx, 0x40
0x00406296: 33 D2                xor edx, edx
0x00406298: 8B C7                mov eax, edi
0x0040629A: F7 F1                div ecx
0x0040629C: 8B F7                mov esi, edi
0x0040629E: 85 D2                test edx, edx
0x004062A0: 74 06                je 0x4062a8
0x004062A2: 2B CA                sub ecx, edx
0x004062A4: 03 CF                add ecx, edi
0x004062A6: 8B F1                mov esi, ecx
0x004062A8: 56                   push esi
0x004062A9: B9 38 FA B2 00       mov ecx, 0xb2fa38
0x004062AE: E8 3D D5 FF FF       call 0x4037f0
0x004062B3: A1 40 FA B2 00       mov eax, dword ptr [0xb2fa40]
0x004062B8: 8B 0D 18 FA B2 00    mov ecx, dword ptr [0xb2fa18]
0x004062BE: 89 3D 3C FA B2 00    mov dword ptr [0xb2fa3c], edi
0x004062C4: 83 7C 88 40 00       cmp dword ptr [eax + ecx*4 + 0x40], 0
0x004062C9: 74 09                je 0x4062d4
0x004062CB: C6 05 E1 F9 B2 00 02 mov byte ptr [0xb2f9e1], 2
0x004062D2: EB 0E                jmp 0x4062e2
0x004062D4: 83 7C 88 3C 00       cmp dword ptr [eax + ecx*4 + 0x3c], 0
0x004062D9: 0F 95 C2             setne dl
0x004062DC: 88 15 E1 F9 B2 00    mov byte ptr [0xb2f9e1], dl
0x004062E2: E8 69 6E 0B 00       call 0x4bd150
0x004062E7: 8B F8                mov edi, eax
0x004062E9: 68 7C 27 9E 00       push 0x9e277c
0x004062EE: 57                   push edi
0x004062EF: E8 4C 75 0B 00       call 0x4bd840
0x004062F4: 83 C4 08             add esp, 8
0x004062F7: 85 C0                test eax, eax
0x004062F9: 0F 84 61 01 00 00    je 0x406460
0x004062FF: 6A 00                push 0
0x00406301: 68 9C F9 B2 00       push 0xb2f99c
0x00406306: 68 74 27 9E 00       push 0x9e2774
0x0040630B: 68 68 27 9E 00       push 0x9e2768
0x00406310: 57                   push edi
0x00406311: E8 0A 70 0B 00       call 0x4bd320
0x00406316: 6A 00                push 0
0x00406318: 6A 10                push 0x10
0x0040631A: 8D 45 B4             lea eax, [ebp - 0x4c]
0x0040631D: 50                   push eax
0x0040631E: 68 5C 27 9E 00       push 0x9e275c
0x00406323: 68 68 27 9E 00       push 0x9e2768
0x00406328: 57                   push edi
0x00406329: E8 82 70 0B 00       call 0x4bd3b0
0x0040632E: 83 C4 2C             add esp, 0x2c
0x00406331: 85 C0                test eax, eax
0x00406333: 0F 84 27 01 00 00    je 0x406460
0x00406339: 6A 00                push 0
0x0040633B: 6A 10                push 0x10
0x0040633D: 8D 4D C4             lea ecx, [ebp - 0x3c]
0x00406340: 51                   push ecx
0x00406341: 68 54 27 9E 00       push 0x9e2754
0x00406346: 68 68 27 9E 00       push 0x9e2768
0x0040634B: 57                   push edi
0x0040634C: E8 5F 70 0B 00       call 0x4bd3b0
0x00406351: 83 C4 18             add esp, 0x18
0x00406354: 85 C0                test eax, eax
0x00406356: 0F 84 04 01 00 00    je 0x406460
0x0040635C: 8D 55 C4             lea edx, [ebp - 0x3c]
0x0040635F: 52                   push edx
0x00406360: 8D 45 B4             lea eax, [ebp - 0x4c]
0x00406363: 50                   push eax
0x00406364: 68 D0 1A 9E 00       push 0x9e1ad0
0x00406369: 6A 05                push 5
0x0040636B: 68 48 FE B2 00       push 0xb2fe48
0x00406370: E8 FB 8C 36 00       call 0x76f070
0x00406375: 83 C4 14             add esp, 0x14
0x00406378: 33 C0                xor eax, eax
0x0040637A: BE 48 FE B2 00       mov esi, 0xb2fe48
0x0040637F: 33 C9                xor ecx, ecx
0x00406381: 8A 16                mov dl, byte ptr [esi]
0x00406383: 84 D2                test dl, dl
0x00406385: 74 13                je 0x40639a
0x00406387: 0F BE D2             movsx edx, dl
0x0040638A: C1 E0 08             shl eax, 8
0x0040638D: 83 C1 01             add ecx, 1
0x00406390: 03 C2                add eax, edx
0x00406392: 83 C6 01             add esi, 1
0x00406395: 83 F9 04             cmp ecx, 4
0x00406398: 72 E7                jb 0x406381
0x0040639A: 68 FF FF FF 7F       push 0x7fffffff
0x0040639F: 68 48 FE B2 00       push 0xb2fe48
0x004063A4: 68 4C 27 9E 00       push 0x9e274c
0x004063A9: A3 D0 8C B3 00       mov dword ptr [0xb38cd0], eax
0x004063AE: E8 CD 83 36 00       call 0x76e780
0x004063B3: 85 C0                test eax, eax
0x004063B5: 0F 94 C3             sete bl
0x004063B8: 33 F6                xor esi, esi
0x004063BA: 8D 9B 00 00 00 00    lea ebx, [ebx]
0x004063C0: 8B 04 B5 E0 2F AD 00 mov eax, dword ptr [esi*4 + 0xad2fe0]
0x004063C7: 68 FF FF FF 7F       push 0x7fffffff
0x004063CC: 50                   push eax
0x004063CD: 68 48 FE B2 00       push 0xb2fe48
0x004063D2: E8 A9 83 36 00       call 0x76e780
0x004063D7: 85 C0                test eax, eax
0x004063D9: 74 29                je 0x406404
0x004063DB: 84 DB                test bl, bl
0x004063DD: 74 1B                je 0x4063fa
0x004063DF: 8B 0C B5 E0 2F AD 00 mov ecx, dword ptr [esi*4 + 0xad2fe0]
0x004063E6: 68 FF FF FF 7F       push 0x7fffffff
0x004063EB: 51                   push ecx
0x004063EC: 68 44 27 9E 00       push 0x9e2744
0x004063F1: E8 8A 83 36 00       call 0x76e780
0x004063F6: 85 C0                test eax, eax
0x004063F8: 74 0A                je 0x406404
0x004063FA: 83 C6 01             add esi, 1
0x004063FD: 83 FE 09             cmp esi, 9
0x00406400: 7C BE                jl 0x4063c0
0x00406402: EB 5C                jmp 0x406460
0x00406404: 89 35 9C DE C5 00    mov dword ptr [0xc5de9c], esi
0x0040640A: 83 C6 FF             add esi, -1
0x0040640D: 83 FE 07             cmp esi, 7
0x00406410: 77 16                ja 0x406428
0x00406412: 0F B6 96 98 64 40 00 movzx edx, byte ptr [esi + 0x406498]
0x00406419: FF 24 95 8C 64 40 00 jmp dword ptr [edx*4 + 0x40648c]
0x00406420: 6A 01                push 1
0x00406422: EB 06                jmp 0x40642a
0x00406424: 6A 02                push 2
0x00406426: EB 02                jmp 0x40642a
0x00406428: 6A 00                push 0
0x0040642A: E8 D1 18 41 00       call 0x817d00
0x0040642F: 83 C4 04             add esp, 4
0x00406432: F6 45 EC 01          test byte ptr [ebp - 0x14], 1
0x00406436: 74 28                je 0x406460
0x00406438: 68 00 1F 9E 00       push 0x9e1f00
0x0040643D: E8 FE 0F 36 00       call 0x767440
0x00406442: 83 C4 04             add esp, 4
0x00406445: 6A 01                push 1
0x00406447: 6A 00                push 0
0x00406449: 6A 00                push 0
0x0040644B: 6A 01                push 1
0x0040644D: 68 48 FE B2 00       push 0xb2fe48
0x00406452: 8B C8                mov ecx, eax
0x00406454: E8 67 04 36 00       call 0x7668c0
0x00406459: C7 45 FC 48 FE B2 00 mov dword ptr [ebp - 4], 0xb2fe48
0x00406460: 57                   push edi
0x00406461: E8 DA 58 0B 00       call 0x4bbd40
0x00406466: 8B 75 FC             mov esi, dword ptr [ebp - 4]
0x00406469: 56                   push esi
0x0040646A: 6A 01                push 1
0x0040646C: E8 7F A7 2A 00       call 0x6b0bf0
0x00406471: 56                   push esi
0x00406472: E8 E9 CA FF FF       call 0x402f60
0x00406477: 83 C4 10             add esp, 0x10
0x0040647A: 8D 4D D4             lea ecx, [ebp - 0x2c]
0x0040647D: E8 EE F8 FF FF       call 0x405d70
0x00406482: 5F                   pop edi
0x00406483: 5E                   pop esi
0x00406484: 5B                   pop ebx
0x00406485: 8B E5                mov esp, ebp
0x00406487: 5D                   pop ebp
0x00406488: C3                   ret
0x00406489: 8D 49 00             lea ecx, [ecx]
0x0040648C: 20 64 40 00          and byte ptr [eax + eax*2], ah
0x00406490: 24 64                and al, 0x64
0x00406492: 40                   inc eax
0x00406493: 00 28                add byte ptr [eax], ch
0x00406495: 64 40                inc eax
0x00406497: 00 00                add byte ptr [eax], al
0x00406499: 00 02                add byte ptr [edx], al
0x0040649B: 00 00                add byte ptr [eax], al
0x0040649D: 02 02                add al, byte ptr [edx]
0x0040649F: 01 55 8B             add dword ptr [ebp - 0x75], edx
0x004064A2: EC                   in al, dx
0x004064A3: 56                   push esi
0x004064A4: 57                   push edi
0x004064A5: 8B 7D 0C             mov edi, dword ptr [ebp + 0xc]
0x004064A8: 8B 77 04             mov esi, dword ptr [edi + 4]
0x004064AB: 83 C6 01             add esi, 1
0x004064AE: 3B 37                cmp esi, dword ptr [edi]
0x004064B0: 76 29                jbe 0x4064db
0x004064B2: 8B 4F 0C             mov ecx, dword ptr [edi + 0xc]
0x004064B5: 85 C9                test ecx, ecx
0x004064B7: 75 0A                jne 0x4064c3
0x004064B9: 56                   push esi
0x004064BA: 8B CF                mov ecx, edi
0x004064BC: E8 7F 9B 1C 00       call 0x5d0040
0x004064C1: 8B C8                mov ecx, eax
0x004064C3: 33 D2                xor edx, edx
0x004064C5: 8B C6                mov eax, esi
0x004064C7: F7 F1                div ecx
0x004064C9: 85 D2                test edx, edx
0x004064CB: 74 06                je 0x4064d3
0x004064CD: 2B CA                sub ecx, edx
0x004064CF: 03 CE                add ecx, esi
0x004064D1: 8B F1                mov esi, ecx
0x004064D3: 56                   push esi
0x004064D4: 8B CF                mov ecx, edi
0x004064D6: E8 85 D2 FF FF       call 0x403760
0x004064DB: 8B 47 04             mov eax, dword ptr [edi + 4]
0x004064DE: 8B 4F 08             mov ecx, dword ptr [edi + 8]
0x004064E1: 8B 55 08             mov edx, dword ptr [ebp + 8]
0x004064E4: 68 2E 12 00 00       push 0x122e
0x004064E9: 8D 34 81             lea esi, [ecx + eax*4]
0x004064EC: 68 94 0E 9E 00       push 0x9e0e94
0x004064F1: 83 C2 08             add edx, 8
0x004064F4: 83 C0 01             add eax, 1
0x004064F7: 52                   push edx
0x004064F8: 89 47 04             mov dword ptr [edi + 4], eax
0x004064FB: E8 E0 94 36 00       call 0x76f9e0
0x00406500: 89 06                mov dword ptr [esi], eax
0x00406502: 5F                   pop edi
0x00406503: 33 C0                xor eax, eax
0x00406505: 5E                   pop esi
0x00406506: 5D                   pop ebp
0x00406507: C3                   ret
0x00406508: CC                   int3
0x00406509: CC                   int3
0x0040650A: CC                   int3
0x0040650B: CC                   int3
0x0040650C: CC                   int3
0x0040650D: CC                   int3
0x0040650E: CC                   int3
0x0040650F: CC                   int3
0x00406510: 55                   push ebp
0x00406511: 8B EC                mov ebp, esp
0x00406513: 53                   push ebx
0x00406514: 33 DB                xor ebx, ebx
0x00406516: 39 1D A0 F9 B2 00    cmp dword ptr [0xb2f9a0], ebx
0x0040651C: 0F 84 A0 01 00 00    je 0x4066c2
0x00406522: 68 40 33 40 00       push 0x403340
0x00406527: 6A 06                push 6
0x00406529: 88 1D E0 F9 B2 00    mov byte ptr [0xb2f9e0], bl
0x0040652F: E8 5C 72 07 00       call 0x47d790
0x00406534: 68 CB 01 00 00       push 0x1cb
0x00406539: E8 82 A6 2A 00       call 0x6b0bc0
0x0040653E: 68 CD 01 00 00       push 0x1cd
0x00406543: E8 78 A6 2A 00       call 0x6b0bc0
0x00406548: 6A 3E                push 0x3e
0x0040654A: E8 71 A6 2A 00       call 0x6b0bc0
0x0040654F: 6A 3F                push 0x3f
0x00406551: E8 6A A6 2A 00       call 0x6b0bc0
0x00406556: 6A 40                push 0x40
0x00406558: E8 63 A6 2A 00       call 0x6b0bc0
0x0040655D: 68 99 00 00 00       push 0x99
0x00406562: E8 59 A6 2A 00       call 0x6b0bc0
0x00406567: 68 9B 00 00 00       push 0x9b
0x0040656C: E8 4F A6 2A 00       call 0x6b0bc0
0x00406571: 68 36 02 00 00       push 0x236
0x00406576: E8 45 A6 2A 00       call 0x6b0bc0
0x0040657B: 68 C5 03 00 00       push 0x3c5
0x00406580: E8 3B A6 2A 00       call 0x6b0bc0
0x00406585: 8B 0D 50 FE B2 00    mov ecx, dword ptr [0xb2fe50]
0x0040658B: 83 C4 2C             add esp, 0x2c
0x0040658E: 3B CB                cmp ecx, ebx
0x00406590: 74 1D                je 0x4065af
0x00406592: 56                   push esi
0x00406593: 8B F1                mov esi, ecx
0x00406595: E8 86 AC FF FF       call 0x401220
0x0040659A: 53                   push ebx
0x0040659B: 6A FF                push -1
0x0040659D: 68 0C 0E 9E 00       push 0x9e0e0c
0x004065A2: 56                   push esi
0x004065A3: E8 F8 7F 36 00       call 0x76e5a0
0x004065A8: 89 1D 50 FE B2 00    mov dword ptr [0xb2fe50], ebx
0x004065AE: 5E                   pop esi
0x004065AF: E8 1C D7 2F 00       call 0x703cd0
0x004065B4: E8 F7 EB 2A 00       call 0x6b51b0
0x004065B9: E8 A2 83 38 00       call 0x78e960
0x004065BE: E8 4D 34 30 00       call 0x709a10
0x004065C3: E8 B8 E1 2D 00       call 0x6e4780
0x004065C8: E8 33 9D 2D 00       call 0x6e0300
0x004065CD: E8 FE 19 3E 00       call 0x7e7fd0
0x004065D2: E8 49 A3 40 00       call 0x810920
0x004065D7: E8 D4 C5 33 00       call 0x742bb0
0x004065DC: E8 6F DB 30 00       call 0x714150
0x004065E1: E8 6A E8 33 00       call 0x744e50
0x004065E6: E8 45 A6 2E 00       call 0x6f0c30
0x004065EB: E8 C0 49 2F 00       call 0x6fafb0
0x004065F0: 68 90 14 6F 00       push 0x6f1490
0x004065F5: 6A 06                push 6
0x004065F7: E8 94 71 07 00       call 0x47d790
0x004065FC: E8 5F 34 40 00       call 0x809a60
0x00406601: E8 4A 01 0D 00       call 0x4d6750
0x00406606: E8 95 E8 31 00       call 0x724ea0
0x0040660B: E8 E0 63 3F 00       call 0x7fc9f0
0x00406610: E8 AB 3D 2F 00       call 0x6fa3c0
0x00406615: 53                   push ebx
0x00406616: E8 05 0A 0F 00       call 0x4f7020
0x0040661B: 8B 0D 6C 43 B7 00    mov ecx, dword ptr [0xb7436c]
0x00406621: 83 C4 0C             add esp, 0xc
0x00406624: 3B CB                cmp ecx, ebx
0x00406626: 74 05                je 0x40662d
0x00406628: E8 A3 3F 0F 00       call 0x4fa5d0
0x0040662D: E8 4E CB 37 00       call 0x783180
0x00406632: E8 89 E5 3D 00       call 0x7e4bc0
0x00406637: E8 64 ED 3D 00       call 0x7e53a0
0x0040663C: E8 EF 03 3E 00       call 0x7e6a30
0x00406641: E8 1A 2B 12 00       call 0x529160
0x00406646: E8 C5 C1 3D 00       call 0x7e2810
0x0040664B: E8 A0 35 0C 00       call 0x4c9bf0
0x00406650: E8 2B F5 0B 00       call 0x4c5b80
0x00406655: E8 C6 2D 0C 00       call 0x4c9420
0x0040665A: E8 51 4D 0C 00       call 0x4cb3b0
0x0040665F: E8 1C F6 0C 00       call 0x4d5c80
0x00406664: 53                   push ebx
0x00406665: E8 B6 29 2B 00       call 0x6b9020
0x0040666A: 83 C4 04             add esp, 4
0x0040666D: 89 1D A0 F9 B2 00    mov dword ptr [0xb2f9a0], ebx
0x00406673: E8 D8 2E 00 00       call 0x409550
0x00406678: 39 1D AC F9 B2 00    cmp dword ptr [0xb2f9ac], ebx
0x0040667E: 74 0C                je 0x40668c
0x00406680: 89 1D AC F9 B2 00    mov dword ptr [0xb2f9ac], ebx
0x00406686: 89 1D A8 F9 B2 00    mov dword ptr [0xb2f9a8], ebx
0x0040668C: E8 FF C1 12 00       call 0x532890
0x00406691: 39 5D 0C             cmp dword ptr [ebp + 0xc], ebx
0x00406694: 74 2C                je 0x4066c2
0x00406696: E8 55 3F 0D 00       call 0x4da5f0
0x0040669B: 39 5D 10             cmp dword ptr [ebp + 0x10], ebx
0x0040669E: 74 0A                je 0x4066aa
0x004066A0: C7 05 38 AA B6 00 0B 00 00 00 mov dword ptr [0xb6aa38], 0xb
0x004066AA: 39 5D 08             cmp dword ptr [ebp + 8], ebx
0x004066AD: B8 78 28 9E 00       mov eax, 0x9e2878
0x004066B2: 75 05                jne 0x4066b9
0x004066B4: B8 74 21 9E 00       mov eax, 0x9e2174
0x004066B9: 50                   push eax
0x004066BA: E8 E1 1B 0D 00       call 0x4d82a0
0x004066BF: 83 C4 04             add esp, 4
0x004066C2: 5B                   pop ebx
0x004066C3: 5D                   pop ebp
0x004066C4: C3                   ret
0x004066C5: CC                   int3
0x004066C6: CC                   int3
0x004066C7: CC                   int3
0x004066C8: CC                   int3
0x004066C9: CC                   int3
0x004066CA: CC                   int3
0x004066CB: CC                   int3
0x004066CC: CC                   int3
0x004066CD: CC                   int3
0x004066CE: CC                   int3
0x004066CF: CC                   int3
0x004066D0: 68 30 25 40 00       push 0x402530
0x004066D5: E8 16 44 36 00       call 0x76aaf0
0x004066DA: 6A 00                push 0
0x004066DC: 6A 00                push 0
0x004066DE: 6A 00                push 0
0x004066E0: E8 2B FE FF FF       call 0x406510
0x004066E5: E8 26 C2 FF FF       call 0x402910
0x004066EA: 68 FD 00 00 00       push 0xfd
0x004066EF: E8 CC A4 2A 00       call 0x6b0bc0
0x004066F4: 83 C4 14             add esp, 0x14
0x004066F7: E8 B4 B4 2A 00       call 0x6b1bb0
0x004066FC: E8 7F C5 3D 00       call 0x7e2c80
0x00406701: E8 EA D0 37 00       call 0x7837f0
0x00406706: E8 95 FB 35 00       call 0x7662a0
0x0040670B: E8 00 26 0A 00       call 0x4a8d10
0x00406710: E8 3B 60 41 00       call 0x81c750
0x00406715: E8 A6 4A 0B 00       call 0x4bb1c0
0x0040671A: E8 01 1D 0B 00       call 0x4b8420
0x0040671F: E8 2C 45 0B 00       call 0x4bac50
0x00406724: FF 15 38 98 AD 00    call dword ptr [0xad9838]
0x0040672A: E8 A1 C0 0C 00       call 0x4d27d0
0x0040672F: E8 4C CE 0C 00       call 0x4d3580
0x00406734: E8 27 50 07 00       call 0x47b760
0x00406739: B8 01 00 00 00       mov eax, 1
0x0040673E: C3                   ret
0x0040673F: CC                   int3
0x00406740: 55                   push ebp
0x00406741: 8B EC                mov ebp, esp
0x00406743: 81 EC 08 02 00 00    sub esp, 0x208
0x00406749: 53                   push ebx
0x0040674A: 56                   push esi
0x0040674B: 57                   push edi
0x0040674C: 68 04 01 00 00       push 0x104
0x00406751: 8D 85 FC FE FF FF    lea eax, [ebp - 0x104]
0x00406757: 50                   push eax
0x00406758: 8B F9                mov edi, ecx
0x0040675A: E8 21 B1 01 00       call 0x421880
0x0040675F: 8D 8D FC FE FF FF    lea ecx, [ebp - 0x104]
0x00406765: 51                   push ecx
0x00406766: 68 94 28 9E 00       push 0x9e2894
0x0040676B: 8D 95 F8 FD FF FF    lea edx, [ebp - 0x208]
0x00406771: 68 04 01 00 00       push 0x104
0x00406776: 52                   push edx
0x00406777: E8 F4 88 36 00       call 0x76f070
0x0040677C: 6A 01                push 1
0x0040677E: 57                   push edi
0x0040677F: 68 A0 64 40 00       push 0x4064a0
0x00406784: 8D 85 F8 FD FF FF    lea eax, [ebp - 0x208]
0x0040678A: 68 84 28 9E 00       push 0x9e2884
0x0040678F: 50                   push eax
0x00406790: E8 6B B8 05 00       call 0x462000
0x00406795: 8B 5F 04             mov ebx, dword ptr [edi + 4]
0x00406798: 8B 4F 08             mov ecx, dword ptr [edi + 8]
0x0040679B: 68 00 33 40 00       push 0x403300
0x004067A0: 6A 04                push 4
0x004067A2: 53                   push ebx
0x004067A3: 51                   push ecx
0x004067A4: E8 A7 56 00 00       call 0x40be50
0x004067A9: 83 C4 34             add esp, 0x34
0x004067AC: 33 F6                xor esi, esi
0x004067AE: 85 DB                test ebx, ebx
0x004067B0: 7E 2C                jle 0x4067de
0x004067B2: 8B 57 08             mov edx, dword ptr [edi + 8]
0x004067B5: 8B 04 B2             mov eax, dword ptr [edx + esi*4]
0x004067B8: 50                   push eax
0x004067B9: FF 55 08             call dword ptr [ebp + 8]
0x004067BC: 8B 4F 08             mov ecx, dword ptr [edi + 8]
0x004067BF: 8B 14 B1             mov edx, dword ptr [ecx + esi*4]
0x004067C2: 83 C4 04             add esp, 4
0x004067C5: 6A 00                push 0
0x004067C7: 68 26 12 00 00       push 0x1226
0x004067CC: 68 94 0E 9E 00       push 0x9e0e94
0x004067D1: 52                   push edx
0x004067D2: E8 C9 7D 36 00       call 0x76e5a0
0x004067D7: 83 C6 01             add esi, 1
0x004067DA: 3B F3                cmp esi, ebx
0x004067DC: 7C D4                jl 0x4067b2
0x004067DE: 5F                   pop edi
0x004067DF: 5E                   pop esi
0x004067E0: 5B                   pop ebx
0x004067E1: 8B E5                mov esp, ebp
0x004067E3: 5D                   pop ebp
0x004067E4: C2 04 00             ret 4
0x004067E7: CC                   int3
0x004067E8: CC                   int3
0x004067E9: CC                   int3
0x004067EA: CC                   int3
0x004067EB: CC                   int3
0x004067EC: CC                   int3
0x004067ED: CC                   int3
0x004067EE: CC                   int3
0x004067EF: CC                   int3
0x004067F0: 55                   push ebp
0x004067F1: 8B EC                mov ebp, esp
0x004067F3: 81 EC 38 02 00 00    sub esp, 0x238
0x004067F9: 6A 11                push 0x11
0x004067FB: 68 E0 1B 9E 00       push 0x9e1be0
0x00406800: E8 8B CD 36 00       call 0x773590
0x00406805: E8 16 4F 07 00       call 0x47b720
0x0040680A: B8 FC 29 9E 00       mov eax, 0x9e29fc
0x0040680F: E8 EC CD FF FF       call 0x403600
0x00406814: 83 3D 10 FA B2 00 02 cmp dword ptr [0xb2fa10], 2
0x0040681B: 74 05                je 0x406822
0x0040681D: E8 3E CD FF FF       call 0x403560
0x00406822: 53                   push ebx
0x00406823: 33 DB                xor ebx, ebx
0x00406825: 88 5D FC             mov byte ptr [ebp - 4], bl
0x00406828: E8 13 B9 01 00       call 0x422140
0x0040682D: 85 C0                test eax, eax
0x0040682F: 74 15                je 0x406846
0x00406831: 68 F0 29 9E 00       push 0x9e29f0
0x00406836: E8 F5 B2 05 00       call 0x461b30
0x0040683B: 83 C4 04             add esp, 4
0x0040683E: 85 C0                test eax, eax
0x00406840: 0F 94 C0             sete al
0x00406843: 88 45 FC             mov byte ptr [ebp - 4], al
0x00406846: E8 45 99 2A 00       call 0x6b0190
0x0040684B: E8 70 29 36 00       call 0x7691c0
0x00406850: 68 E4 29 9E 00       push 0x9e29e4
0x00406855: E8 E6 1A 36 00       call 0x768340
0x0040685A: 83 C4 04             add esp, 4
0x0040685D: E8 8E FB 35 00       call 0x7663f0
0x00406862: 68 30 65 76 00       push 0x766530
0x00406867: 8D 4D E0             lea ecx, [ebp - 0x20]
0x0040686A: 89 5D E0             mov dword ptr [ebp - 0x20], ebx
0x0040686D: 89 5D E4             mov dword ptr [ebp - 0x1c], ebx
0x00406870: 89 5D E8             mov dword ptr [ebp - 0x18], ebx
0x00406873: 89 5D EC             mov dword ptr [ebp - 0x14], ebx
0x00406876: E8 C5 FE FF FF       call 0x406740
0x0040687B: 8B 45 E8             mov eax, dword ptr [ebp - 0x18]
0x0040687E: 3B C3                cmp eax, ebx
0x00406880: 74 0E                je 0x406890
0x00406882: 53                   push ebx
0x00406883: 6A FE                push -2
0x00406885: 68 7C 63 AB 00       push 0xab637c
0x0040688A: 50                   push eax
0x0040688B: E8 10 7D 36 00       call 0x76e5a0
0x00406890: 56                   push esi
0x00406891: 53                   push ebx
0x00406892: 53                   push ebx
0x00406893: 53                   push ebx
0x00406894: 6A 05                push 5
0x00406896: 53                   push ebx
0x00406897: 68 A8 11 9E 00       push 0x9e11a8
0x0040689C: 53                   push ebx
0x0040689D: 68 CC 29 9E 00       push 0x9e29cc
0x004068A2: 68 C0 29 9E 00       push 0x9e29c0
0x004068A7: E8 14 17 36 00       call 0x767fc0
0x004068AC: 53                   push ebx
0x004068AD: 53                   push ebx
0x004068AE: 53                   push ebx
0x004068AF: 6A 05                push 5
0x004068B1: 68 20 33 40 00       push 0x403320
0x004068B6: 68 C8 1A 9E 00       push 0x9e1ac8
0x004068BB: 53                   push ebx
0x004068BC: 68 AC 29 9E 00       push 0x9e29ac
0x004068C1: 68 00 1F 9E 00       push 0x9e1f00
0x004068C6: E8 F5 16 36 00       call 0x767fc0
0x004068CB: 83 C4 48             add esp, 0x48
0x004068CE: 68 FF FF FF 7F       push 0x7fffffff
0x004068D3: 8B F0                mov esi, eax
0x004068D5: 8B 46 28             mov eax, dword ptr [esi + 0x28]
0x004068D8: 68 C8 1A 9E 00       push 0x9e1ac8
0x004068DD: 50                   push eax
0x004068DE: E8 7D 7E 36 00       call 0x76e760
0x004068E3: 85 C0                test eax, eax
0x004068E5: 75 12                jne 0x4068f9
0x004068E7: 6A 01                push 1
0x004068E9: 53                   push ebx
0x004068EA: 53                   push ebx
0x004068EB: 6A 01                push 1
0x004068ED: 68 44 27 9E 00       push 0x9e2744
0x004068F2: 8B CE                mov ecx, esi
0x004068F4: E8 C7 FF 35 00       call 0x7668c0
0x004068F9: 53                   push ebx
0x004068FA: 53                   push ebx
0x004068FB: 53                   push ebx
0x004068FC: 6A 05                push 5
0x004068FE: 53                   push ebx
0x004068FF: 68 A0 14 9E 00       push 0x9e14a0
0x00406904: 53                   push ebx
0x00406905: 68 80 29 9E 00       push 0x9e2980
0x0040690A: 68 70 29 9E 00       push 0x9e2970
0x0040690F: E8 AC 16 36 00       call 0x767fc0
0x00406914: 83 C4 24             add esp, 0x24
0x00406917: E8 24 B8 01 00       call 0x422140
0x0040691C: 85 C0                test eax, eax
0x0040691E: 74 0C                je 0x40692c
0x00406920: 8B 4D FC             mov ecx, dword ptr [ebp - 4]
0x00406923: 51                   push ecx
0x00406924: E8 87 CD FF FF       call 0x4036b0
0x00406929: 83 C4 04             add esp, 4
0x0040692C: 8B 56 28             mov edx, dword ptr [esi + 0x28]
0x0040692F: 6A 05                push 5
0x00406931: 52                   push edx
0x00406932: 8D 45 F0             lea eax, [ebp - 0x10]
0x00406935: 50                   push eax
0x00406936: E8 E5 83 36 00       call 0x76ed20
0x0040693B: 8D 4D F0             lea ecx, [ebp - 0x10]
0x0040693E: 51                   push ecx
0x0040693F: E8 0C C4 FF FF       call 0x402d50
0x00406944: 83 C4 04             add esp, 4
0x00406947: 6A 01                push 1
0x00406949: 53                   push ebx
0x0040694A: 53                   push ebx
0x0040694B: 6A 01                push 1
0x0040694D: 8D 55 F0             lea edx, [ebp - 0x10]
0x00406950: 52                   push edx
0x00406951: 8B CE                mov ecx, esi
0x00406953: E8 68 FF 35 00       call 0x7668c0
0x00406958: 8B 46 28             mov eax, dword ptr [esi + 0x28]
0x0040695B: 8B 0D 58 61 AB 00    mov ecx, dword ptr [0xab6158]
0x00406961: 50                   push eax
0x00406962: 51                   push ecx
0x00406963: 68 D0 1A 9E 00       push 0x9e1ad0
0x00406968: 8D 95 CC FE FF FF    lea edx, [ebp - 0x134]
0x0040696E: 68 04 01 00 00       push 0x104
0x00406973: 52                   push edx
0x00406974: E8 F7 86 36 00       call 0x76f070
0x00406979: 83 C4 14             add esp, 0x14
0x0040697C: 8D 85 CC FE FF FF    lea eax, [ebp - 0x134]
0x00406982: 50                   push eax
0x00406983: E8 C8 B1 01 00       call 0x421b50
0x00406988: E8 E3 D3 01 00       call 0x423d70
0x0040698D: E8 3E F4 FF FF       call 0x405dd0
0x00406992: 53                   push ebx
0x00406993: 53                   push ebx
0x00406994: 53                   push ebx
0x00406995: 53                   push ebx
0x00406996: 68 E0 22 40 00       push 0x4022e0
0x0040699B: 68 A0 14 9E 00       push 0x9e14a0
0x004069A0: 6A 02                push 2
0x004069A2: 68 20 29 9E 00       push 0x9e2920
0x004069A7: 68 08 29 9E 00       push 0x9e2908
0x004069AC: E8 0F 16 36 00       call 0x767fc0
0x004069B1: 68 F4 28 9E 00       push 0x9e28f4
0x004069B6: 8B F0                mov esi, eax
0x004069B8: E8 83 0A 36 00       call 0x767440
0x004069BD: 83 C4 28             add esp, 0x28
0x004069C0: 3B C3                cmp eax, ebx
0x004069C2: 74 06                je 0x4069ca
0x004069C4: 83 78 30 03          cmp dword ptr [eax + 0x30], 3
0x004069C8: 7D 2C                jge 0x4069f6
0x004069CA: 53                   push ebx
0x004069CB: 68 F0 28 9E 00       push 0x9e28f0
0x004069D0: 8D 4D F8             lea ecx, [ebp - 8]
0x004069D3: 6A 08                push 8
0x004069D5: 51                   push ecx
0x004069D6: E8 95 86 36 00       call 0x76f070
0x004069DB: 83 C4 10             add esp, 0x10
0x004069DE: 6A 01                push 1
0x004069E0: 53                   push ebx
0x004069E1: 53                   push ebx
0x004069E2: 6A 01                push 1
0x004069E4: 8D 55 F8             lea edx, [ebp - 8]
0x004069E7: 52                   push edx
0x004069E8: 8B CE                mov ecx, esi
0x004069EA: E8 D1 FE 35 00       call 0x7668c0
0x004069EF: 8B CE                mov ecx, esi
0x004069F1: E8 BA 00 36 00       call 0x766ab0
0x004069F6: 8B 76 30             mov esi, dword ptr [esi + 0x30]
0x004069F9: 3B F3                cmp esi, ebx
0x004069FB: 74 06                je 0x406a03
0x004069FD: 56                   push esi
0x004069FE: E8 FD 93 36 00       call 0x76fe00
0x00406A03: E8 38 4D 07 00       call 0x47b740
0x00406A08: 53                   push ebx
0x00406A09: 6A 01                push 1
0x00406A0B: E8 E0 65 07 00       call 0x47cff0
0x00406A10: 53                   push ebx
0x00406A11: 53                   push ebx
0x00406A12: 53                   push ebx
0x00406A13: 6A 05                push 5
0x00406A15: 53                   push ebx
0x00406A16: 68 A0 14 9E 00       push 0x9e14a0
0x00406A1B: 6A 06                push 6
0x00406A1D: 68 C0 28 9E 00       push 0x9e28c0
0x00406A22: 68 30 1E 9E 00       push 0x9e1e30
0x00406A27: E8 94 15 36 00       call 0x767fc0
0x00406A2C: 53                   push ebx
0x00406A2D: 8B F0                mov esi, eax
0x00406A2F: 56                   push esi
0x00406A30: 53                   push ebx
0x00406A31: 6A 05                push 5
0x00406A33: 68 00 32 40 00       push 0x403200
0x00406A38: 68 A0 14 9E 00       push 0x9e14a0
0x00406A3D: 6A 02                push 2
0x00406A3F: 68 A0 28 9E 00       push 0x9e28a0
0x00406A44: 68 40 1E 9E 00       push 0x9e1e40
0x00406A49: E8 72 15 36 00       call 0x767fc0
0x00406A4E: 8B 40 30             mov eax, dword ptr [eax + 0x30]
0x00406A51: 83 C4 50             add esp, 0x50
0x00406A54: 50                   push eax
0x00406A55: E8 D6 69 46 00       call 0x86d430
0x00406A5A: 53                   push ebx
0x00406A5B: 53                   push ebx
0x00406A5C: 68 A0 32 40 00       push 0x4032a0
0x00406A61: 68 14 15 9E 00       push 0x9e1514
0x00406A66: E8 95 26 36 00       call 0x769100
0x00406A6B: 83 C4 14             add esp, 0x14
0x00406A6E: E8 DD 42 46 00       call 0x86ad50
0x00406A73: 3B 46 30             cmp eax, dword ptr [esi + 0x30]
0x00406A76: A3 D8 F9 B2 00       mov dword ptr [0xb2f9d8], eax
0x00406A7B: 74 49                je 0x406ac6
0x00406A7D: 50                   push eax
0x00406A7E: 8D 4D D0             lea ecx, [ebp - 0x30]
0x00406A81: 68 9C 28 9E 00       push 0x9e289c
0x00406A86: 51                   push ecx
0x00406A87: E8 6B 56 00 00       call 0x40c0f7
0x00406A8C: 83 C4 0C             add esp, 0xc
0x00406A8F: 53                   push ebx
0x00406A90: 8B CE                mov ecx, esi
0x00406A92: E8 69 FC 35 00       call 0x766700
0x00406A97: 6A 01                push 1
0x00406A99: 53                   push ebx
0x00406A9A: 53                   push ebx
0x00406A9B: 6A 01                push 1
0x00406A9D: 8D 55 D0             lea edx, [ebp - 0x30]
0x00406AA0: 52                   push edx
0x00406AA1: 8B CE                mov ecx, esi
0x00406AA3: E8 18 FE 35 00       call 0x7668c0
0x00406AA8: 8B CE                mov ecx, esi
0x00406AAA: E8 01 00 36 00       call 0x766ab0
0x00406AAF: 6A 01                push 1
0x00406AB1: 8B CE                mov ecx, esi
0x00406AB3: E8 48 FC 35 00       call 0x766700
0x00406AB8: 56                   push esi
0x00406AB9: 68 D8 1D 9E 00       push 0x9e1dd8
0x00406ABE: E8 ED E8 35 00       call 0x7653b0
0x00406AC3: 83 C4 08             add esp, 8
0x00406AC6: 68 E3 12 00 00       push 0x12e3
0x00406ACB: 68 94 0E 9E 00       push 0x9e0e94
0x00406AD0: B9 50 63 AB 00       mov ecx, 0xab6350
0x00406AD5: E8 16 E8 FF FF       call 0x4052f0
0x00406ADA: A1 60 63 AB 00       mov eax, dword ptr [0xab6360]
0x00406ADF: 83 F8 01             cmp eax, 1
0x00406AE2: 5E                   pop esi
0x00406AE3: 7F 21                jg 0x406b06
0x00406AE5: 83 3D 5C 63 AB 00 01 cmp dword ptr [0xab635c], 1
0x00406AEC: 7C 18                jl 0x406b06
0x00406AEE: 8B 0D 70 63 AB 00    mov ecx, dword ptr [0xab6370]
0x00406AF4: 03 C0                add eax, eax
0x00406AF6: 03 C0                add eax, eax
0x00406AF8: 2B C8                sub ecx, eax
0x00406AFA: 8B 41 04             mov eax, dword ptr [ecx + 4]
0x00406AFD: 3B C3                cmp eax, ebx
0x00406AFF: 74 05                je 0x406b06
0x00406B01: 8B 40 08             mov eax, dword ptr [eax + 8]
0x00406B04: EB 05                jmp 0x406b0b
0x00406B06: B8 88 1A 9E 00       mov eax, 0x9e1a88
0x00406B0B: 68 FF FF FF 7F       push 0x7fffffff
0x00406B10: 50                   push eax
0x00406B11: 8D 95 C8 FD FF FF    lea edx, [ebp - 0x238]
0x00406B17: 52                   push edx
0x00406B18: E8 03 82 36 00       call 0x76ed20
0x00406B1D: 6A 01                push 1
0x00406B1F: 8D 85 C8 FD FF FF    lea eax, [ebp - 0x238]
0x00406B25: 6A 01                push 1
0x00406B27: 50                   push eax
0x00406B28: E8 53 40 36 00       call 0x76ab80
0x00406B2D: 83 C4 0C             add esp, 0xc
0x00406B30: E8 6B 65 46 00       call 0x86d0a0
0x00406B35: E8 E6 42 46 00       call 0x86ae20
0x00406B3A: 50                   push eax
0x00406B3B: B9 30 FA B2 00       mov ecx, 0xb2fa30
0x00406B40: E8 CB A9 0B 00       call 0x4c1510
0x00406B45: 53                   push ebx
0x00406B46: 53                   push ebx
0x00406B47: 68 D0 66 40 00       push 0x4066d0
0x00406B4C: 68 E0 47 40 00       push 0x4047e0
0x00406B51: 6A 01                push 1
0x00406B53: E8 28 65 07 00       call 0x47d080
0x00406B58: 83 C4 14             add esp, 0x14
0x00406B5B: A3 94 F9 B2 00       mov dword ptr [0xb2f994], eax
0x00406B60: B0 01                mov al, 1
0x00406B62: 5B                   pop ebx
0x00406B63: 8B E5                mov esp, ebp
0x00406B65: 5D                   pop ebp
0x00406B66: C3                   ret
0x00406B67: CC                   int3
0x00406B68: CC                   int3
0x00406B69: CC                   int3
0x00406B6A: CC                   int3
0x00406B6B: CC                   int3
0x00406B6C: CC                   int3
0x00406B6D: CC                   int3
0x00406B6E: CC                   int3
0x00406B6F: CC                   int3
0x00406B70: 55                   push ebp
0x00406B71: 8B EC                mov ebp, esp
0x00406B73: 83 EC 10             sub esp, 0x10
0x00406B76: 53                   push ebx
0x00406B77: 6A 08                push 8
0x00406B79: 33 DB                xor ebx, ebx
0x00406B7B: 53                   push ebx
0x00406B7C: E8 1F 79 36 00       call 0x76e4a0
0x00406B81: E8 3A 65 46 00       call 0x86d0c0
0x00406B86: E8 B5 68 46 00       call 0x86d440
0x00406B8B: E8 A0 64 07 00       call 0x47d030
0x00406B90: E8 AB 31 36 00       call 0x769d40
0x00406B95: 68 D0 65 76 00       push 0x7665d0
0x00406B9A: 8D 4D F0             lea ecx, [ebp - 0x10]
0x00406B9D: 89 5D F0             mov dword ptr [ebp - 0x10], ebx
0x00406BA0: 89 5D F4             mov dword ptr [ebp - 0xc], ebx
0x00406BA3: 89 5D F8             mov dword ptr [ebp - 8], ebx
0x00406BA6: 89 5D FC             mov dword ptr [ebp - 4], ebx
0x00406BA9: E8 92 FB FF FF       call 0x406740
0x00406BAE: 8B 45 F8             mov eax, dword ptr [ebp - 8]
0x00406BB1: 3B C3                cmp eax, ebx
0x00406BB3: 74 0E                je 0x406bc3
0x00406BB5: 53                   push ebx
0x00406BB6: 6A FE                push -2
0x00406BB8: 68 7C 63 AB 00       push 0xab637c
0x00406BBD: 50                   push eax
0x00406BBE: E8 DD 79 36 00       call 0x76e5a0
0x00406BC3: E8 28 08 36 00       call 0x7673f0
0x00406BC8: E8 F3 19 36 00       call 0x7685c0
0x00406BCD: E8 7E 4B 07 00       call 0x47b750
0x00406BD2: E8 F9 DE FF FF       call 0x404ad0
0x00406BD7: E8 54 9D 01 00       call 0x420930
0x00406BDC: E8 9F 0A 05 00       call 0x457680
0x00406BE1: A1 A4 F9 B2 00       mov eax, dword ptr [0xb2f9a4]
0x00406BE6: 3B C3                cmp eax, ebx
0x00406BE8: 74 76                je 0x406c60
0x00406BEA: 8B 0D 60 63 AB 00    mov ecx, dword ptr [0xab6360]
0x00406BF0: 83 F9 01             cmp ecx, 1
0x00406BF3: 56                   push esi
0x00406BF4: 8B 35 70 63 AB 00    mov esi, dword ptr [0xab6370]
0x00406BFA: 57                   push edi
0x00406BFB: 8B 3D 5C 63 AB 00    mov edi, dword ptr [0xab635c]
0x00406C01: 7F 1E                jg 0x406c21
0x00406C03: 83 FF 01             cmp edi, 1
0x00406C06: 7C 19                jl 0x406c21
0x00406C08: 8D 14 8D 00 00 00 00 lea edx, [ecx*4]
0x00406C0F: 8B DE                mov ebx, esi
0x00406C11: 2B DA                sub ebx, edx
0x00406C13: 8B 53 04             mov edx, dword ptr [ebx + 4]
0x00406C16: 33 DB                xor ebx, ebx
0x00406C18: 3B D3                cmp edx, ebx
0x00406C1A: 74 05                je 0x406c21
0x00406C1C: 8B 52 08             mov edx, dword ptr [edx + 8]
0x00406C1F: EB 05                jmp 0x406c26
0x00406C21: BA 88 1A 9E 00       mov edx, 0x9e1a88
0x00406C26: 3B C1                cmp eax, ecx
0x00406C28: 7C 23                jl 0x406c4d
0x00406C2A: 3B C7                cmp eax, edi
0x00406C2C: 7F 1F                jg 0x406c4d
0x00406C2E: 2B C1                sub eax, ecx
0x00406C30: 8B 04 86             mov eax, dword ptr [esi + eax*4]
0x00406C33: 3B C3                cmp eax, ebx
0x00406C35: 74 16                je 0x406c4d
0x00406C37: 8B 40 08             mov eax, dword ptr [eax + 8]
0x00406C3A: 52                   push edx
0x00406C3B: 50                   push eax
0x00406C3C: 53                   push ebx
0x00406C3D: 53                   push ebx
0x00406C3E: E8 9D 5A 46 00       call 0x86c6e0
0x00406C43: 83 C4 10             add esp, 0x10
0x00406C46: 5F                   pop edi
0x00406C47: 5E                   pop esi
0x00406C48: 5B                   pop ebx
0x00406C49: 8B E5                mov esp, ebp
0x00406C4B: 5D                   pop ebp
0x00406C4C: C3                   ret
0x00406C4D: 52                   push edx
0x00406C4E: B8 08 2A 9E 00       mov eax, 0x9e2a08
0x00406C53: 50                   push eax
0x00406C54: 53                   push ebx
0x00406C55: 53                   push ebx
0x00406C56: E8 85 5A 46 00       call 0x86c6e0
0x00406C5B: 83 C4 10             add esp, 0x10
0x00406C5E: 5F                   pop edi
0x00406C5F: 5E                   pop esi
0x00406C60: 5B                   pop ebx
0x00406C61: 8B E5                mov esp, ebp
0x00406C63: 5D                   pop ebp
0x00406C64: C3                   ret
0x00406C65: CC                   int3
0x00406C66: CC                   int3
0x00406C67: CC                   int3
0x00406C68: CC                   int3
0x00406C69: CC                   int3
0x00406C6A: CC                   int3
0x00406C6B: CC                   int3
0x00406C6C: CC                   int3
0x00406C6D: CC                   int3
0x00406C6E: CC                   int3
0x00406C6F: CC                   int3
0x00406C70: 55                   push ebp
0x00406C71: 8B EC                mov ebp, esp
0x00406C73: 83 EC 08             sub esp, 8
0x00406C76: 56                   push esi
0x00406C77: E8 64 CD 36 00       call 0x7739e0
0x00406C7C: E8 9F BE 36 00       call 0x772b20
0x00406C81: 6A 00                push 0
0x00406C83: 68 C8 1E 9E 00       push 0x9e1ec8
0x00406C88: E8 63 48 46 00       call 0x86b4f0
0x00406C8D: 83 C4 08             add esp, 8
0x00406C90: 6A 04                push 4
0x00406C92: 8D 45 FC             lea eax, [ebp - 4]
0x00406C95: 50                   push eax
0x00406C96: BE 01 00 00 00       mov esi, 1
0x00406C9B: 6A 0A                push 0xa
0x00406C9D: 89 75 FC             mov dword ptr [ebp - 4], esi
0x00406CA0: E8 DB CD 36 00       call 0x773a80
0x00406CA5: 6A 04                push 4
0x00406CA7: 8D 4D FC             lea ecx, [ebp - 4]
0x00406CAA: 51                   push ecx
0x00406CAB: 6A 0B                push 0xb
0x00406CAD: 89 75 FC             mov dword ptr [ebp - 4], esi
0x00406CB0: E8 CB CD 36 00       call 0x773a80
0x00406CB5: E8 06 44 46 00       call 0x86b0c0
0x00406CBA: E8 61 BE FF FF       call 0x402b20
0x00406CBF: 8D 55 F8             lea edx, [ebp - 8]
0x00406CC2: 52                   push edx
0x00406CC3: 6A 00                push 0
0x00406CC5: 68 38 2A 9E 00       push 0x9e2a38
0x00406CCA: 68 E0 0E 9E 00       push 0x9e0ee0
0x00406CCF: 89 75 F8             mov dword ptr [ebp - 8], esi
0x00406CD2: E8 69 9B 36 00       call 0x770840
0x00406CD7: 85 C0                test eax, eax
0x00406CD9: 75 14                jne 0x406cef
0x00406CDB: 56                   push esi
0x00406CDC: 50                   push eax
0x00406CDD: 68 38 2A 9E 00       push 0x9e2a38
0x00406CE2: 68 E0 0E 9E 00       push 0x9e0ee0
0x00406CE7: 89 75 F8             mov dword ptr [ebp - 8], esi
0x00406CEA: E8 B1 9C 36 00       call 0x7709a0
0x00406CEF: 68 18 2A 9E 00       push 0x9e2a18
0x00406CF4: E8 97 AB 36 00       call 0x771890
0x00406CF9: 68 80 4B 40 00       push 0x404b80
0x00406CFE: E8 FD AB 36 00       call 0x771900
0x00406D03: 83 7D F8 00          cmp dword ptr [ebp - 8], 0
0x00406D07: 5E                   pop esi
0x00406D08: 74 0A                je 0x406d14
0x00406D0A: 68 F0 34 40 00       push 0x4034f0
0x00406D0F: E8 6C AE 36 00       call 0x771b80
0x00406D14: E8 D7 FA FF FF       call 0x4067f0
0x00406D19: 84 C0                test al, al
0x00406D1B: 74 0A                je 0x406d27
0x00406D1D: E8 3E 63 07 00       call 0x47d060
0x00406D22: E8 49 FE FF FF       call 0x406b70
0x00406D27: E8 D4 CC 36 00       call 0x773a00
0x00406D2C: E8 0F B4 01 00       call 0x422140
0x00406D31: 85 C0                test eax, eax
0x00406D33: 74 05                je 0x406d3a
0x00406D35: E8 76 63 01 00       call 0x41d0b0
0x00406D3A: 6A 00                push 0
0x00406D3C: E8 BF 0C 03 00       call 0x437a00
0x00406D41: 83 C4 04             add esp, 4
0x00406D44: E8 F7 B3 01 00       call 0x422140
0x00406D49: 85 C0                test eax, eax
0x00406D4B: 74 0C                je 0x406d59
0x00406D4D: 6A 00                push 0
0x00406D4F: 6A 00                push 0
0x00406D51: E8 9A C1 05 00       call 0x462ef0
0x00406D56: 83 C4 08             add esp, 8
0x00406D59: E8 12 7E 1E 00       call 0x5eeb70
0x00406D5E: 33 C0                xor eax, eax
0x00406D60: 8B E5                mov esp, ebp
0x00406D62: 5D                   pop ebp
0x00406D63: C3                   ret
0x00406D64: CC                   int3
0x00406D65: CC                   int3
0x00406D66: CC                   int3
0x00406D67: CC                   int3
0x00406D68: CC                   int3
0x00406D69: CC                   int3
0x00406D6A: CC                   int3
0x00406D6B: CC                   int3
0x00406D6C: CC                   int3
0x00406D6D: CC                   int3
0x00406D6E: CC                   int3
0x00406D6F: CC                   int3
0x00406D70: 68 70 EB 5E 00       push 0x5eeb70
0x00406D75: E8 06 5A 00 00       call 0x40c780
0x00406D7A: E8 21 55 00 00       call 0x40c2a0
0x00406D7F: 6A FF                push -1
0x00406D81: 68 1F 00 09 00       push 0x9001f
0x00406D86: E8 EC 55 00 00       call 0x40c377
0x00406D8B: 83 C4 0C             add esp, 0xc
0x00406D8E: E8 FD 0C 02 00       call 0x427a90
0x00406D93: E9 D8 FE FF FF       jmp 0x406c70
0x00406D98: CC                   int3
0x00406D99: CC                   int3
0x00406D9A: CC                   int3
0x00406D9B: CC                   int3
0x00406D9C: CC                   int3
0x00406D9D: CC                   int3
0x00406D9E: CC                   int3
0x00406D9F: CC                   int3
0x00406DA0: 55                   push ebp
0x00406DA1: 8B EC                mov ebp, esp
0x00406DA3: 56                   push esi
0x00406DA4: 8B 75 08             mov esi, dword ptr [ebp + 8]
0x00406DA7: 57                   push edi
0x00406DA8: 8B 7D 0C             mov edi, dword ptr [ebp + 0xc]
0x00406DAB: D9 07                fld dword ptr [edi]
0x00406DAD: 51                   push ecx
0x00406DAE: 8B CE                mov ecx, esi
0x00406DB0: D9 1C 24             fstp dword ptr [esp]
0x00406DB3: E8 A8 43 07 00       call 0x47b160
0x00406DB8: D9 47 04             fld dword ptr [edi + 4]
0x00406DBB: 51                   push ecx
0x00406DBC: 8B CE                mov ecx, esi
0x00406DBE: D9 1C 24             fstp dword ptr [esp]
0x00406DC1: E8 9A 43 07 00       call 0x47b160
0x00406DC6: D9 47 08             fld dword ptr [edi + 8]
0x00406DC9: 51                   push ecx
0x00406DCA: 8B CE                mov ecx, esi
0x00406DCC: D9 1C 24             fstp dword ptr [esp]
0x00406DCF: E8 8C 43 07 00       call 0x47b160
0x00406DD4: 5F                   pop edi
0x00406DD5: 8B C6                mov eax, esi
0x00406DD7: 5E                   pop esi
0x00406DD8: 5D                   pop ebp
0x00406DD9: C3                   ret
0x00406DDA: CC                   int3
0x00406DDB: CC                   int3
0x00406DDC: CC                   int3
0x00406DDD: CC                   int3
0x00406DDE: CC                   int3
0x00406DDF: CC                   int3
0x00406DE0: 55                   push ebp
0x00406DE1: 8B EC                mov ebp, esp
0x00406DE3: D9 45 08             fld dword ptr [ebp + 8]
0x00406DE6: 83 EC 08             sub esp, 8
0x00406DE9: DD 1C 24             fstp qword ptr [esp]
0x00406DEC: E8 41 5B 00 00       call 0x40c932
0x00406DF1: 83 C4 08             add esp, 8
0x00406DF4: 85 C0                test eax, eax
0x00406DF6: 0F 84 8A 00 00 00    je 0x406e86
0x00406DFC: D9 45 0C             fld dword ptr [ebp + 0xc]
0x00406DFF: 83 EC 08             sub esp, 8
0x00406E02: DD 1C 24             fstp qword ptr [esp]
0x00406E05: E8 28 5B 00 00       call 0x40c932
0x00406E0A: 83 C4 08             add esp, 8
0x00406E0D: 85 C0                test eax, eax
0x00406E0F: 74 75                je 0x406e86
0x00406E11: D9 45 10             fld dword ptr [ebp + 0x10]
0x00406E14: 83 EC 08             sub esp, 8
0x00406E17: DD 1C 24             fstp qword ptr [esp]
0x00406E1A: E8 13 5B 00 00       call 0x40c932
0x00406E1F: 83 C4 08             add esp, 8
0x00406E22: 85 C0                test eax, eax
0x00406E24: 74 60                je 0x406e86
0x00406E26: D9 45 0C             fld dword ptr [ebp + 0xc]
0x00406E29: D9 05 CC 2A 9E 00    fld dword ptr [0x9e2acc]
0x00406E2F: DC E9                fsub st(1), st(0)
0x00406E31: D9 C9                fxch st(1)
0x00406E33: D9 E0                fchs
0x00406E35: D9 45 08             fld dword ptr [ebp + 8]
0x00406E38: DE E2                fsubrp st(2)
0x00406E3A: D9 C9                fxch st(1)
0x00406E3C: D9 E0                fchs
0x00406E3E: D9 45 14             fld dword ptr [ebp + 0x14]
0x00406E41: D8 D2                fcom st(2)
0x00406E43: DF E0                fnstsw ax
0x00406E45: F6 C4 41             test ah, 0x41
0x00406E48: 7A 2C                jp 0x406e76
0x00406E4A: D9 05 C8 2A 9E 00    fld dword ptr [0x9e2ac8]
0x00406E50: D8 E1                fsub st(1)
0x00406E52: D8 D3                fcom st(3)
0x00406E54: DF E0                fnstsw ax
0x00406E56: DD DB                fstp st(3)
0x00406E58: F6 C4 41             test ah, 0x41
0x00406E5B: 75 23                jne 0x406e80
0x00406E5D: D8 D9                fcomp st(1)
0x00406E5F: DF E0                fnstsw ax
0x00406E61: F6 C4 41             test ah, 0x41
0x00406E64: 7A 1C                jp 0x406e82
0x00406E66: DE D9                fcompp
0x00406E68: DF E0                fnstsw ax
0x00406E6A: F6 C4 05             test ah, 5
0x00406E6D: 7A 17                jp 0x406e86
0x00406E6F: B8 01 00 00 00       mov eax, 1
0x00406E74: 5D                   pop ebp
0x00406E75: C3                   ret
0x00406E76: DD DA                fstp st(2)
0x00406E78: 33 C0                xor eax, eax
0x00406E7A: DD D9                fstp st(1)
0x00406E7C: DD D8                fstp st(0)
0x00406E7E: 5D                   pop ebp
0x00406E7F: C3                   ret
0x00406E80: DD D8                fstp st(0)
0x00406E82: DD D8                fstp st(0)
0x00406E84: DD D8                fstp st(0)
0x00406E86: 33 C0                xor eax, eax
0x00406E88: 5D                   pop ebp
0x00406E89: C3                   ret
0x00406E8A: CC                   int3
0x00406E8B: CC                   int3
0x00406E8C: CC                   int3
0x00406E8D: CC                   int3
0x00406E8E: CC                   int3
0x00406E8F: CC                   int3
0x00406E90: 55                   push ebp
0x00406E91: 8B EC                mov ebp, esp
0x00406E93: 8B 45 08             mov eax, dword ptr [ebp + 8]
0x00406E96: D9 45 0C             fld dword ptr [ebp + 0xc]
0x00406E99: 83 EC 10             sub esp, 0x10
0x00406E9C: D9 5C 24 0C          fstp dword ptr [esp + 0xc]
0x00406EA0: D9 40 08             fld dword ptr [eax + 8]
0x00406EA3: D9 5C 24 08          fstp dword ptr [esp + 8]
0x00406EA7: D9 40 04             fld dword ptr [eax + 4]
0x00406EAA: D9 5C 24 04          fstp dword ptr [esp + 4]
0x00406EAE: D9 00                fld dword ptr [eax]
0x00406EB0: D9 1C 24             fstp dword ptr [esp]
0x00406EB3: E8 28 FF FF FF       call 0x406de0
0x00406EB8: 83 C4 10             add esp, 0x10
0x00406EBB: 5D                   pop ebp
0x00406EBC: C3                   ret
0x00406EBD: CC                   int3
0x00406EBE: CC                   int3
0x00406EBF: CC                   int3
0x00406EC0: 83 3D 6C 43 B7 00 00 cmp dword ptr [0xb7436c], 0
0x00406EC7: 74 1E                je 0x406ee7
0x00406EC9: E8 62 7F 2C 00       call 0x6cee30
0x00406ECE: 85 C0                test eax, eax
0x00406ED0: B8 E0 2A 9E 00       mov eax, 0x9e2ae0
0x00406ED5: 75 05                jne 0x406edc
0x00406ED7: B8 D0 2A 9E 00       mov eax, 0x9e2ad0
0x00406EDC: 6A 00                push 0
0x00406EDE: 50                   push eax
0x00406EDF: E8 8C E3 35 00       call 0x765270
0x00406EE4: 83 C4 08             add esp, 8
0x00406EE7: B8 01 00 00 00       mov eax, 1
0x00406EEC: C3                   ret
0x00406EED: CC                   int3
0x00406EEE: CC                   int3
0x00406EEF: CC                   int3
0x00406EF0: 68 38 2B 9E 00       push 0x9e2b38
0x00406EF5: E8 E6 1A 36 00       call 0x7689e0
0x00406EFA: 68 2C 2B 9E 00       push 0x9e2b2c
0x00406EFF: E8 DC 1A 36 00       call 0x7689e0
0x00406F04: 68 20 2B 9E 00       push 0x9e2b20
0x00406F09: E8 D2 1A 36 00       call 0x7689e0
0x00406F0E: 68 14 2B 9E 00       push 0x9e2b14
0x00406F13: E8 C8 1A 36 00       call 0x7689e0
0x00406F18: 68 08 2B 9E 00       push 0x9e2b08
0x00406F1D: E8 BE 1A 36 00       call 0x7689e0
0x00406F22: 68 FC 2A 9E 00       push 0x9e2afc
0x00406F27: E8 B4 1A 36 00       call 0x7689e0
0x00406F2C: 68 F0 2A 9E 00       push 0x9e2af0
0x00406F31: E8 AA 1A 36 00       call 0x7689e0
0x00406F36: 83 C4 1C             add esp, 0x1c
0x00406F39: C3                   ret
0x00406F3A: CC                   int3
0x00406F3B: CC                   int3
0x00406F3C: CC                   int3
0x00406F3D: CC                   int3
0x00406F3E: CC                   int3
0x00406F3F: CC                   int3
0x00406F40: 55                   push ebp
0x00406F41: 8B EC                mov ebp, esp
0x00406F43: A1 50 FE B2 00       mov eax, dword ptr [0xb2fe50]
0x00406F48: 85 C0                test eax, eax
0x00406F4A: 75 34                jne 0x406f80
0x00406F4C: 50                   push eax
0x00406F4D: 6A FF                push -1
0x00406F4F: 68 14 0E 9E 00       push 0x9e0e14
0x00406F54: 6A 28                push 0x28
0x00406F56: E8 E5 75 36 00       call 0x76e540
0x00406F5B: 85 C0                test eax, eax
0x00406F5D: 74 1A                je 0x406f79
0x00406F5F: 8B 4D 08             mov ecx, dword ptr [ebp + 8]
0x00406F62: C7 40 20 00 00 00 00 mov dword ptr [eax + 0x20], 0
0x00406F69: A3 50 FE B2 00       mov dword ptr [0xb2fe50], eax
0x00406F6E: 51                   push ecx
0x00406F6F: 8B 48 24             mov ecx, dword ptr [eax + 0x24]
0x00406F72: E8 D9 BB 22 00       call 0x632b50
0x00406F77: 5D                   pop ebp
0x00406F78: C3                   ret
0x00406F79: 33 C0                xor eax, eax
0x00406F7B: A3 50 FE B2 00       mov dword ptr [0xb2fe50], eax
0x00406F80: 8B 4D 08             mov ecx, dword ptr [ebp + 8]
0x00406F83: 51                   push ecx
0x00406F84: 8B 48 24             mov ecx, dword ptr [eax + 0x24]
0x00406F87: E8 C4 BB 22 00       call 0x632b50
0x00406F8C: 5D                   pop ebp
0x00406F8D: C3                   ret
0x00406F8E: CC                   int3
0x00406F8F: CC                   int3
0x00406F90: 55                   push ebp
0x00406F91: 8B EC                mov ebp, esp
0x00406F93: 83 EC 7C             sub esp, 0x7c
0x00406F96: D9 EE                fldz
0x00406F98: 66 8B 0D 84 2B 9E 00 mov cx, word ptr [0x9e2b84]
0x00406F9F: 8A 15 86 2B 9E 00    mov dl, byte ptr [0x9e2b86]
0x00406FA5: D9 55 E8             fst dword ptr [ebp - 0x18]
0x00406FA8: 53                   push ebx
0x00406FA9: D9 55 EC             fst dword ptr [ebp - 0x14]
0x00406FAC: 56                   push esi
0x00406FAD: D9 5D F0             fstp dword ptr [ebp - 0x10]
0x00406FB0: 8B F0                mov esi, eax
0x00406FB2: A1 80 2B 9E 00       mov eax, dword ptr [0x9e2b80]
0x00406FB7: 57                   push edi
0x00406FB8: 89 45 F4             mov dword ptr [ebp - 0xc], eax
0x00406FBB: 66 89 4D F8          mov word ptr [ebp - 8], cx
0x00406FBF: 88 55 FA             mov byte ptr [ebp - 6], dl
0x00406FC2: E8 C9 C7 0C 00       call 0x4d3790
0x00406FC7: 68 A0 00 00 00       push 0xa0
0x00406FCC: 68 18 1F 9E 00       push 0x9e1f18
0x00406FD1: 6A 10                push 0x10
0x00406FD3: 52                   push edx
0x00406FD4: 50                   push eax
0x00406FD5: E8 D6 DD 0C 00       call 0x4d4db0
0x00406FDA: 8B F8                mov edi, eax
0x00406FDC: 33 DB                xor ebx, ebx
0x00406FDE: 83 C4 14             add esp, 0x14
0x00406FE1: 3B FB                cmp edi, ebx
0x00406FE3: 0F 84 D8 01 00 00    je 0x4071c1
0x00406FE9: 8B 45 08             mov eax, dword ptr [ebp + 8]
0x00406FEC: 8A 00                mov al, byte ptr [eax]
0x00406FEE: 3A C3                cmp al, bl
0x00406FF0: 74 6A                je 0x40705c
0x00406FF2: 66 0F BE C8          movsx cx, al
0x00406FF6: 51                   push ecx
0x00406FF7: E8 14 9F 3D 00       call 0x7e0f10
0x00406FFC: 83 C4 04             add esp, 4
0x00406FFF: 84 C0                test al, al
0x00407001: 75 59                jne 0x40705c
0x00407003: 8B 55 08             mov edx, dword ptr [ebp + 8]
0x00407006: 80 3A 2D             cmp byte ptr [edx], 0x2d
0x00407009: 74 51                je 0x40705c
0x0040700B: 6A 09                push 9
0x0040700D: 8D 4D DC             lea ecx, [ebp - 0x24]
0x00407010: C7 45 DC 24 0E 9E 00 mov dword ptr [ebp - 0x24], 0x9e0e24
0x00407017: 89 5D E0             mov dword ptr [ebp - 0x20], ebx
0x0040701A: 89 5D E4             mov dword ptr [ebp - 0x1c], ebx
0x0040701D: 89 5D E8             mov dword ptr [ebp - 0x18], ebx
0x00407020: 89 5D EC             mov dword ptr [ebp - 0x14], ebx
0x00407023: C7 45 F0 FF FF FF FF mov dword ptr [ebp - 0x10], 0xffffffff
0x0040702A: E8 71 40 07 00       call 0x47b0a0
0x0040702F: 8B 45 08             mov eax, dword ptr [ebp + 8]
0x00407032: 50                   push eax
0x00407033: 8D 4D DC             lea ecx, [ebp - 0x24]
0x00407036: E8 C5 42 07 00       call 0x47b300
0x0040703B: 8D 4D DC             lea ecx, [ebp - 0x24]
0x0040703E: 51                   push ecx
0x0040703F: 89 5D F0             mov dword ptr [ebp - 0x10], ebx
0x00407042: E8 F9 FE FF FF       call 0x406f40
0x00407047: 8D 4D DC             lea ecx, [ebp - 0x24]
0x0040704A: 83 C4 04             add esp, 4
0x0040704D: E8 2E C8 FF FF       call 0x403880
0x00407052: 5F                   pop edi
0x00407053: 5E                   pop esi
0x00407054: 8D 43 01             lea eax, [ebx + 1]
0x00407057: 5B                   pop ebx
0x00407058: 8B E5                mov esp, ebp
0x0040705A: 5D                   pop ebp
0x0040705B: C3                   ret
0x0040705C: 53                   push ebx
0x0040705D: 8D 55 F4             lea edx, [ebp - 0xc]
0x00407060: 52                   push edx
0x00407061: 6A 40                push 0x40
0x00407063: 8D 45 84             lea eax, [ebp - 0x7c]
0x00407066: 50                   push eax
0x00407067: 8D 4D 08             lea ecx, [ebp + 8]
0x0040706A: 51                   push ecx
0x0040706B: E8 70 81 36 00       call 0x76f1e0
0x00407070: 38 5D 84             cmp byte ptr [ebp - 0x7c], bl
0x00407073: 75 18                jne 0x40708d
0x00407075: 6A 04                push 4
0x00407077: 68 60 2B 9E 00       push 0x9e2b60
0x0040707C: E8 EF E1 35 00       call 0x765270
0x00407081: 83 C4 08             add esp, 8
0x00407084: 5F                   pop edi
0x00407085: 5E                   pop esi
0x00407086: 33 C0                xor eax, eax
0x00407088: 5B                   pop ebx
0x00407089: 8B E5                mov esp, ebp
0x0040708B: 5D                   pop ebp
0x0040708C: C3                   ret
0x0040708D: 8D 55 84             lea edx, [ebp - 0x7c]
0x00407090: 52                   push edx
0x00407091: E8 EA 8A 36 00       call 0x76fb80
0x00407096: D9 5D E8             fstp dword ptr [ebp - 0x18]
0x00407099: 53                   push ebx
0x0040709A: 8D 45 F4             lea eax, [ebp - 0xc]
0x0040709D: 50                   push eax
0x0040709E: 6A 40                push 0x40
0x004070A0: 8D 4D 84             lea ecx, [ebp - 0x7c]
0x004070A3: 51                   push ecx
0x004070A4: 8D 55 08             lea edx, [ebp + 8]
0x004070A7: 52                   push edx
0x004070A8: E8 33 81 36 00       call 0x76f1e0
0x004070AD: 38 5D 84             cmp byte ptr [ebp - 0x7c], bl
0x004070B0: 74 D2                je 0x407084
0x004070B2: 8D 45 84             lea eax, [ebp - 0x7c]
0x004070B5: 50                   push eax
0x004070B6: E8 C5 8A 36 00       call 0x76fb80
0x004070BB: D9 5D EC             fstp dword ptr [ebp - 0x14]
0x004070BE: 53                   push ebx
0x004070BF: 8D 4D F4             lea ecx, [ebp - 0xc]
0x004070C2: 51                   push ecx
0x004070C3: 6A 40                push 0x40
0x004070C5: 8D 55 84             lea edx, [ebp - 0x7c]
0x004070C8: 52                   push edx
0x004070C9: 8D 45 08             lea eax, [ebp + 8]
0x004070CC: 50                   push eax
0x004070CD: E8 0E 81 36 00       call 0x76f1e0
0x004070D2: 38 5D 84             cmp byte ptr [ebp - 0x7c], bl
0x004070D5: 74 0B                je 0x4070e2
0x004070D7: 8D 4D 84             lea ecx, [ebp - 0x7c]
0x004070DA: 51                   push ecx
0x004070DB: E8 A0 8A 36 00       call 0x76fb80
0x004070E0: EB 02                jmp 0x4070e4
0x004070E2: D9 EE                fldz
0x004070E4: D9 55 F0             fst dword ptr [ebp - 0x10]
0x004070E7: 83 EC 10             sub esp, 0x10
0x004070EA: D9 EE                fldz
0x004070EC: D9 5C 24 0C          fstp dword ptr [esp + 0xc]
0x004070F0: D9 5C 24 08          fstp dword ptr [esp + 8]
0x004070F4: D9 45 EC             fld dword ptr [ebp - 0x14]
0x004070F7: D9 5C 24 04          fstp dword ptr [esp + 4]
0x004070FB: D9 45 E8             fld dword ptr [ebp - 0x18]
0x004070FE: D9 1C 24             fstp dword ptr [esp]
0x00407101: E8 DA FC FF FF       call 0x406de0
0x00407106: 83 C4 10             add esp, 0x10
0x00407109: 85 C0                test eax, eax
0x0040710B: 53                   push ebx
0x0040710C: 75 19                jne 0x407127
0x0040710E: 68 44 2B 9E 00       push 0x9e2b44
0x00407113: E8 58 E1 35 00       call 0x765270
0x00407118: 83 C4 08             add esp, 8
0x0040711B: 5F                   pop edi
0x0040711C: 5E                   pop esi
0x0040711D: B8 01 00 00 00       mov eax, 1
0x00407122: 5B                   pop ebx
0x00407123: 8B E5                mov esp, ebp
0x00407125: 5D                   pop ebp
0x00407126: C3                   ret
0x00407127: 8D 55 F4             lea edx, [ebp - 0xc]
0x0040712A: 52                   push edx
0x0040712B: 6A 40                push 0x40
0x0040712D: 8D 45 84             lea eax, [ebp - 0x7c]
0x00407130: 50                   push eax
0x00407131: 8D 4D 08             lea ecx, [ebp + 8]
0x00407134: 51                   push ecx
0x00407135: E8 A6 80 36 00       call 0x76f1e0
0x0040713A: 38 5D 84             cmp byte ptr [ebp - 0x7c], bl
0x0040713D: 74 11                je 0x407150
0x0040713F: 8D 55 84             lea edx, [ebp - 0x7c]
0x00407142: 52                   push edx
0x00407143: E8 38 8A 36 00       call 0x76fb80
0x00407148: D8 0D 40 2B 9E 00    fmul dword ptr [0x9e2b40]
0x0040714E: EB 09                jmp 0x407159
0x00407150: 8B 07                mov eax, dword ptr [edi]
0x00407152: 8B 50 34             mov edx, dword ptr [eax + 0x34]
0x00407155: 8B CF                mov ecx, edi
0x00407157: FF D2                call edx
0x00407159: F7 DE                neg esi
0x0040715B: D9 5D FC             fstp dword ptr [ebp - 4]
0x0040715E: 1B F6                sbb esi, esi
0x00407160: 83 E6 1A             and esi, 0x1a
0x00407163: 81 C6 C6 00 00 00    add esi, 0xc6
0x00407169: 56                   push esi
0x0040716A: 8D 4D C4             lea ecx, [ebp - 0x3c]
0x0040716D: C7 45 C4 24 0E 9E 00 mov dword ptr [ebp - 0x3c], 0x9e0e24
0x00407174: 89 5D C8             mov dword ptr [ebp - 0x38], ebx
0x00407177: 89 5D CC             mov dword ptr [ebp - 0x34], ebx
0x0040717A: 89 5D D0             mov dword ptr [ebp - 0x30], ebx
0x0040717D: 89 5D D4             mov dword ptr [ebp - 0x2c], ebx
0x00407180: C7 45 D8 FF FF FF FF mov dword ptr [ebp - 0x28], 0xffffffff
0x00407187: E8 14 3F 07 00       call 0x47b0a0
0x0040718C: 8D 45 E8             lea eax, [ebp - 0x18]
0x0040718F: 50                   push eax
0x00407190: 8D 4D C4             lea ecx, [ebp - 0x3c]
0x00407193: 51                   push ecx
0x00407194: E8 07 FC FF FF       call 0x406da0
0x00407199: D9 45 FC             fld dword ptr [ebp - 4]
0x0040719C: 83 C4 04             add esp, 4
0x0040719F: 8D 4D C4             lea ecx, [ebp - 0x3c]
0x004071A2: D9 1C 24             fstp dword ptr [esp]
0x004071A5: E8 B6 3F 07 00       call 0x47b160
0x004071AA: 8D 55 C4             lea edx, [ebp - 0x3c]
0x004071AD: 52                   push edx
0x004071AE: 89 5D D8             mov dword ptr [ebp - 0x28], ebx
0x004071B1: E8 8A FD FF FF       call 0x406f40
0x004071B6: 8D 4D C4             lea ecx, [ebp - 0x3c]
0x004071B9: 83 C4 04             add esp, 4
0x004071BC: E8 BF C6 FF FF       call 0x403880
0x004071C1: 5F                   pop edi
0x004071C2: 5E                   pop esi
0x004071C3: B8 01 00 00 00       mov eax, 1
0x004071C8: 5B                   pop ebx
0x004071C9: 8B E5                mov esp, ebp
0x004071CB: 5D                   pop ebp
0x004071CC: C3                   ret
0x004071CD: CC                   int3
0x004071CE: CC                   int3
0x004071CF: CC                   int3
0x004071D0: 55                   push ebp
0x004071D1: 8B EC                mov ebp, esp
0x004071D3: 8B 45 0C             mov eax, dword ptr [ebp + 0xc]
0x004071D6: 50                   push eax
0x004071D7: 33 C0                xor eax, eax
0x004071D9: E8 B2 FD FF FF       call 0x406f90
0x004071DE: 83 C4 04             add esp, 4
0x004071E1: 5D                   pop ebp
0x004071E2: C3                   ret
0x004071E3: CC                   int3
0x004071E4: CC                   int3
0x004071E5: CC                   int3
0x004071E6: CC                   int3
0x004071E7: CC                   int3
0x004071E8: CC                   int3
0x004071E9: CC                   int3
0x004071EA: CC                   int3
0x004071EB: CC                   int3
0x004071EC: CC                   int3
0x004071ED: CC                   int3
0x004071EE: CC                   int3
0x004071EF: CC                   int3
0x004071F0: 55                   push ebp
0x004071F1: 8B EC                mov ebp, esp
0x004071F3: 8B 45 0C             mov eax, dword ptr [ebp + 0xc]
0x004071F6: 50                   push eax
0x004071F7: B8 01 00 00 00       mov eax, 1
0x004071FC: E8 8F FD FF FF       call 0x406f90
0x00407201: 83 C4 04             add esp, 4
0x00407204: 5D                   pop ebp
0x00407205: C3                   ret
0x00407206: CC                   int3
0x00407207: CC                   int3
0x00407208: CC                   int3
0x00407209: CC                   int3
0x0040720A: CC                   int3
0x0040720B: CC                   int3
0x0040720C: CC                   int3
0x0040720D: CC                   int3
0x0040720E: CC                   int3
0x0040720F: CC                   int3
0x00407210: 55                   push ebp
0x00407211: 8B EC                mov ebp, esp
0x00407213: 83 EC 7C             sub esp, 0x7c
0x00407216: A1 28 11 9E 00       mov eax, dword ptr [0x9e1128]
0x0040721B: 66 8B 0D 2C 11 9E 00 mov cx, word ptr [0x9e112c]
0x00407222: 53                   push ebx
0x00407223: 57                   push edi
0x00407224: 89 45 F4             mov dword ptr [ebp - 0xc], eax
0x00407227: 66 89 4D F8          mov word ptr [ebp - 8], cx
0x0040722B: E8 60 C5 0C 00       call 0x4d3790
0x00407230: 68 A0 00 00 00       push 0xa0
0x00407235: 68 18 1F 9E 00       push 0x9e1f18
0x0040723A: 6A 10                push 0x10
0x0040723C: 52                   push edx
0x0040723D: 50                   push eax
0x0040723E: E8 6D DB 0C 00       call 0x4d4db0
0x00407243: 8B D8                mov ebx, eax
0x00407245: 33 FF                xor edi, edi
0x00407247: 83 C4 14             add esp, 0x14
0x0040724A: 3B DF                cmp ebx, edi
0x0040724C: 89 5D FC             mov dword ptr [ebp - 4], ebx
0x0040724F: 75 09                jne 0x40725a
0x00407251: 8D 47 01             lea eax, [edi + 1]
0x00407254: 5F                   pop edi
0x00407255: 5B                   pop ebx
0x00407256: 8B E5                mov esp, ebp
0x00407258: 5D                   pop ebp
0x00407259: C3                   ret
0x0040725A: 8B 55 0C             mov edx, dword ptr [ebp + 0xc]
0x0040725D: 66 0F BE 02          movsx ax, byte ptr [edx]
0x00407261: 56                   push esi
0x00407262: 50                   push eax
0x00407263: E8 A8 9C 3D 00       call 0x7e0f10
0x00407268: 83 C4 04             add esp, 4
0x0040726B: 84 C0                test al, al
0x0040726D: 0F 84 09 01 00 00    je 0x40737c
0x00407273: 57                   push edi
0x00407274: 8D 4D F4             lea ecx, [ebp - 0xc]
0x00407277: 51                   push ecx
0x00407278: 6A 40                push 0x40
0x0040727A: 8D 55 84             lea edx, [ebp - 0x7c]
0x0040727D: 52                   push edx
0x0040727E: 8D 45 0C             lea eax, [ebp + 0xc]
0x00407281: 50                   push eax
0x00407282: E8 59 7F 36 00       call 0x76f1e0
0x00407287: 80 7D 84 00          cmp byte ptr [ebp - 0x7c], 0
0x0040728B: 75 18                jne 0x4072a5
0x0040728D: 6A 04                push 4
0x0040728F: 68 CC 2B 9E 00       push 0x9e2bcc
0x00407294: E8 D7 DF 35 00       call 0x765270
0x00407299: 83 C4 08             add esp, 8
0x0040729C: 5E                   pop esi
0x0040729D: 5F                   pop edi
0x0040729E: 33 C0                xor eax, eax
0x004072A0: 5B                   pop ebx
0x004072A1: 8B E5                mov esp, ebp
0x004072A3: 5D                   pop ebp
0x004072A4: C3                   ret
0x004072A5: 8D 4D 84             lea ecx, [ebp - 0x7c]
0x004072A8: 51                   push ecx
0x004072A9: E8 92 7E 36 00       call 0x76f140
0x004072AE: 8B 13                mov edx, dword ptr [ebx]
0x004072B0: 8B 52 2C             mov edx, dword ptr [edx + 0x2c]
0x004072B3: 8B F0                mov esi, eax
0x004072B5: 8D 45 DC             lea eax, [ebp - 0x24]
0x004072B8: 50                   push eax
0x004072B9: 8B CB                mov ecx, ebx
0x004072BB: FF D2                call edx
0x004072BD: 8B 08                mov ecx, dword ptr [eax]
0x004072BF: 8B 50 04             mov edx, dword ptr [eax + 4]
0x004072C2: 8B 40 08             mov eax, dword ptr [eax + 8]
0x004072C5: 57                   push edi
0x004072C6: 89 4D E8             mov dword ptr [ebp - 0x18], ecx
0x004072C9: 8D 4D F4             lea ecx, [ebp - 0xc]
0x004072CC: 51                   push ecx
0x004072CD: 89 55 EC             mov dword ptr [ebp - 0x14], edx
0x004072D0: 6A 40                push 0x40
0x004072D2: 8D 55 84             lea edx, [ebp - 0x7c]
0x004072D5: 89 45 F0             mov dword ptr [ebp - 0x10], eax
0x004072D8: 52                   push edx
0x004072D9: 8D 45 0C             lea eax, [ebp + 0xc]
0x004072DC: 50                   push eax
0x004072DD: E8 FE 7E 36 00       call 0x76f1e0
0x004072E2: 80 7D 84 00          cmp byte ptr [ebp - 0x7c], 0
0x004072E6: 74 0C                je 0x4072f4
0x004072E8: 8D 4D 84             lea ecx, [ebp - 0x7c]
0x004072EB: 51                   push ecx
0x004072EC: E8 8F 88 36 00       call 0x76fb80
0x004072F1: D9 5D E8             fstp dword ptr [ebp - 0x18]
0x004072F4: 57                   push edi
0x004072F5: 8D 55 F4             lea edx, [ebp - 0xc]
0x004072F8: 52                   push edx
0x004072F9: 6A 40                push 0x40
0x004072FB: 8D 45 84             lea eax, [ebp - 0x7c]
0x004072FE: 50                   push eax
0x004072FF: 8D 4D 0C             lea ecx, [ebp + 0xc]
0x00407302: 51                   push ecx
0x00407303: E8 D8 7E 36 00       call 0x76f1e0
0x00407308: 80 7D 84 00          cmp byte ptr [ebp - 0x7c], 0
0x0040730C: 74 0C                je 0x40731a
0x0040730E: 8D 55 84             lea edx, [ebp - 0x7c]
0x00407311: 52                   push edx
0x00407312: E8 69 88 36 00       call 0x76fb80
0x00407317: D9 5D EC             fstp dword ptr [ebp - 0x14]
0x0040731A: 57                   push edi
0x0040731B: 8D 45 F4             lea eax, [ebp - 0xc]
0x0040731E: 50                   push eax
0x0040731F: 6A 40                push 0x40
0x00407321: 8D 4D 84             lea ecx, [ebp - 0x7c]
0x00407324: 51                   push ecx
0x00407325: 8D 55 0C             lea edx, [ebp + 0xc]
0x00407328: 52                   push edx
0x00407329: E8 B2 7E 36 00       call 0x76f1e0
0x0040732E: 80 7D 84 00          cmp byte ptr [ebp - 0x7c], 0
0x00407332: 74 0C                je 0x407340
0x00407334: 8D 45 84             lea eax, [ebp - 0x7c]
0x00407337: 50                   push eax
0x00407338: E8 43 88 36 00       call 0x76fb80
0x0040733D: D9 5D F0             fstp dword ptr [ebp - 0x10]
0x00407340: 57                   push edi
0x00407341: 8D 4D F4             lea ecx, [ebp - 0xc]
0x00407344: 51                   push ecx
0x00407345: 6A 40                push 0x40
0x00407347: 8D 55 84             lea edx, [ebp - 0x7c]
0x0040734A: 52                   push edx
0x0040734B: 8D 45 0C             lea eax, [ebp + 0xc]
0x0040734E: 50                   push eax
0x0040734F: E8 8C 7E 36 00       call 0x76f1e0
0x00407354: 80 7D 84 00          cmp byte ptr [ebp - 0x7c], 0
0x00407358: 74 14                je 0x40736e
0x0040735A: 8D 4D 84             lea ecx, [ebp - 0x7c]
0x0040735D: 51                   push ecx
0x0040735E: E8 1D 88 36 00       call 0x76fb80
0x00407363: D8 0D 40 2B 9E 00    fmul dword ptr [0x9e2b40]
0x00407369: E9 A7 00 00 00       jmp 0x407415
0x0040736E: 8B 13                mov edx, dword ptr [ebx]
0x00407370: 8B 42 34             mov eax, dword ptr [edx + 0x34]
0x00407373: 8B CB                mov ecx, ebx
0x00407375: FF D0                call eax
0x00407377: E9 99 00 00 00       jmp 0x407415
0x0040737C: A1 54 4F AD 00       mov eax, dword ptr [0xad4f54]
0x00407381: 33 F6                xor esi, esi
0x00407383: 3B C7                cmp eax, edi
0x00407385: 7E 3F                jle 0x4073c6
0x00407387: 33 DB                xor ebx, ebx
0x00407389: EB 07                jmp 0x407392
0x0040738B: EB 03                jmp 0x407390
0x0040738D: 8D 49 00             lea ecx, [ecx]
0x00407390: 33 FF                xor edi, edi
0x00407392: 3B F7                cmp esi, edi
0x00407394: 7C 0D                jl 0x4073a3
0x00407396: 3B F0                cmp esi, eax
0x00407398: 7D 09                jge 0x4073a3
0x0040739A: 8B 0D 68 4F AD 00    mov ecx, dword ptr [0xad4f68]
0x004073A0: 8D 3C 0B             lea edi, [ebx + ecx]
0x004073A3: 8B 55 0C             mov edx, dword ptr [ebp + 0xc]
0x004073A6: 8B 47 14             mov eax, dword ptr [edi + 0x14]
0x004073A9: 52                   push edx
0x004073AA: 50                   push eax
0x004073AB: E8 C0 83 36 00       call 0x76f770
0x004073B0: 83 C4 08             add esp, 8
0x004073B3: 85 C0                test eax, eax
0x004073B5: 75 2C                jne 0x4073e3
0x004073B7: A1 54 4F AD 00       mov eax, dword ptr [0xad4f54]
0x004073BC: 83 C6 01             add esi, 1
0x004073BF: 83 C3 18             add ebx, 0x18
0x004073C2: 3B F0                cmp esi, eax
0x004073C4: 7C CA                jl 0x407390
0x004073C6: 8B 55 0C             mov edx, dword ptr [ebp + 0xc]
0x004073C9: 52                   push edx
0x004073CA: 68 B0 2B 9E 00       push 0x9e2bb0
0x004073CF: E8 DC DF 35 00       call 0x7653b0
0x004073D4: 83 C4 08             add esp, 8
0x004073D7: 5E                   pop esi
0x004073D8: 5F                   pop edi
0x004073D9: B8 01 00 00 00       mov eax, 1
0x004073DE: 5B                   pop ebx
0x004073DF: 8B E5                mov esp, ebp
0x004073E1: 5D                   pop ebp
0x004073E2: C3                   ret
0x004073E3: D9 47 08             fld dword ptr [edi + 8]
0x004073E6: 8B 4F 14             mov ecx, dword ptr [edi + 0x14]
0x004073E9: 8B 77 04             mov esi, dword ptr [edi + 4]
0x004073EC: D9 5D E8             fstp dword ptr [ebp - 0x18]
0x004073EF: D9 47 0C             fld dword ptr [edi + 0xc]
0x004073F2: 51                   push ecx
0x004073F3: D9 5D EC             fstp dword ptr [ebp - 0x14]
0x004073F6: 68 A0 2B 9E 00       push 0x9e2ba0
0x004073FB: D9 47 10             fld dword ptr [edi + 0x10]
0x004073FE: D9 5D F0             fstp dword ptr [ebp - 0x10]
0x00407401: E8 AA DF 35 00       call 0x7653b0
0x00407406: 8B 4D FC             mov ecx, dword ptr [ebp - 4]
0x00407409: 8B 01                mov eax, dword ptr [ecx]
0x0040740B: 8B 50 34             mov edx, dword ptr [eax + 0x34]
0x0040740E: 83 C4 08             add esp, 8
0x00407411: FF D2                call edx
0x00407413: 33 FF                xor edi, edi
0x00407415: A1 70 41 AD 00       mov eax, dword ptr [0xad4170]
0x0040741A: D9 5D FC             fstp dword ptr [ebp - 4]
0x0040741D: 3B F0                cmp esi, eax
0x0040741F: 7C 17                jl 0x407438
0x00407421: 3B 35 6C 41 AD 00    cmp esi, dword ptr [0xad416c]
0x00407427: 7F 0F                jg 0x407438
0x00407429: 8B 15 80 41 AD 00    mov edx, dword ptr [0xad4180]
0x0040742F: 8B CE                mov ecx, esi
0x00407431: 2B C8                sub ecx, eax
0x00407433: 39 3C 8A             cmp dword ptr [edx + ecx*4], edi
0x00407436: 75 19                jne 0x407451
0x00407438: 56                   push esi
0x00407439: 6A 03                push 3
0x0040743B: 68 88 2B 9E 00       push 0x9e2b88
0x00407440: E8 1B DF 35 00       call 0x765360
0x00407445: 83 C4 0C             add esp, 0xc
0x00407448: 5E                   pop esi
0x00407449: 5F                   pop edi
0x0040744A: 33 C0                xor eax, eax
0x0040744C: 5B                   pop ebx
0x0040744D: 8B E5                mov esp, ebp
0x0040744F: 5D                   pop ebp
0x00407450: C3                   ret
0x00407451: E8 CA 39 46 00       call 0x86ae20
0x00407456: 6A 08                push 8
0x00407458: 8D 4D C4             lea ecx, [ebp - 0x3c]
0x0040745B: 8B D8                mov ebx, eax
0x0040745D: C7 45 C4 24 0E 9E 00 mov dword ptr [ebp - 0x3c], 0x9e0e24
0x00407464: 89 7D C8             mov dword ptr [ebp - 0x38], edi
0x00407467: 89 7D CC             mov dword ptr [ebp - 0x34], edi
0x0040746A: 89 7D D0             mov dword ptr [ebp - 0x30], edi
0x0040746D: 89 7D D4             mov dword ptr [ebp - 0x2c], edi
0x00407470: C7 45 D8 FF FF FF FF mov dword ptr [ebp - 0x28], 0xffffffff
0x00407477: E8 24 3C 07 00       call 0x47b0a0
0x0040747C: 53                   push ebx
0x0040747D: 8D 4D C4             lea ecx, [ebp - 0x3c]
0x00407480: E8 1B 3C 07 00       call 0x47b0a0
0x00407485: 56                   push esi
0x00407486: 8D 4D C4             lea ecx, [ebp - 0x3c]
0x00407489: E8 12 3C 07 00       call 0x47b0a0
0x0040748E: 57                   push edi
0x0040748F: 57                   push edi
0x00407490: 8D 4D C4             lea ecx, [ebp - 0x3c]
0x00407493: E8 68 3C 07 00       call 0x47b100
0x00407498: D9 45 E8             fld dword ptr [ebp - 0x18]
0x0040749B: 51                   push ecx
0x0040749C: 8D 4D C4             lea ecx, [ebp - 0x3c]
0x0040749F: D9 1C 24             fstp dword ptr [esp]
0x004074A2: E8 B9 3C 07 00       call 0x47b160
0x004074A7: D9 45 EC             fld dword ptr [ebp - 0x14]
0x004074AA: 51                   push ecx
0x004074AB: 8D 4D C4             lea ecx, [ebp - 0x3c]
0x004074AE: D9 1C 24             fstp dword ptr [esp]
0x004074B1: E8 AA 3C 07 00       call 0x47b160
0x004074B6: D9 45 F0             fld dword ptr [ebp - 0x10]
0x004074B9: 51                   push ecx
0x004074BA: 8D 4D C4             lea ecx, [ebp - 0x3c]
0x004074BD: D9 1C 24             fstp dword ptr [esp]
0x004074C0: E8 9B 3C 07 00       call 0x47b160
0x004074C5: D9 45 FC             fld dword ptr [ebp - 4]
0x004074C8: 51                   push ecx
0x004074C9: 8D 4D C4             lea ecx, [ebp - 0x3c]
0x004074CC: D9 1C 24             fstp dword ptr [esp]
0x004074CF: E8 8C 3C 07 00       call 0x47b160
0x004074D4: 8D 45 C4             lea eax, [ebp - 0x3c]
0x004074D7: 50                   push eax
0x004074D8: 89 7D D8             mov dword ptr [ebp - 0x28], edi
0x004074DB: E8 60 FA FF FF       call 0x406f40
0x004074E0: 83 C4 04             add esp, 4
0x004074E3: 83 7D D0 FF          cmp dword ptr [ebp - 0x30], -1
0x004074E7: C7 45 C4 24 0E 9E 00 mov dword ptr [ebp - 0x3c], 0x9e0e24
0x004074EE: 74 15                je 0x407505
0x004074F0: 8D 4D D0             lea ecx, [ebp - 0x30]
0x004074F3: 51                   push ecx
0x004074F4: 8D 55 CC             lea edx, [ebp - 0x34]
0x004074F7: 52                   push edx
0x004074F8: 8D 45 C8             lea eax, [ebp - 0x38]
0x004074FB: 50                   push eax
0x004074FC: 8D 4D C4             lea ecx, [ebp - 0x3c]
0x004074FF: FF 15 28 0E 9E 00    call dword ptr [0x9e0e28]
0x00407505: 5E                   pop esi
0x00407506: 5F                   pop edi
0x00407507: B8 01 00 00 00       mov eax, 1
0x0040750C: 5B                   pop ebx
0x0040750D: 8B E5                mov esp, ebp
0x0040750F: 5D                   pop ebp
0x00407510: C3                   ret
0x00407511: CC                   int3
0x00407512: CC                   int3
0x00407513: CC                   int3
0x00407514: CC                   int3
0x00407515: CC                   int3
0x00407516: CC                   int3
0x00407517: CC                   int3
0x00407518: CC                   int3
0x00407519: CC                   int3
0x0040751A: CC                   int3
0x0040751B: CC                   int3
0x0040751C: CC                   int3
0x0040751D: CC                   int3
0x0040751E: CC                   int3
0x0040751F: CC                   int3
0x00407520: 55                   push ebp
0x00407521: 8B EC                mov ebp, esp
0x00407523: 83 EC 7C             sub esp, 0x7c
0x00407526: D9 EE                fldz
0x00407528: A1 80 2B 9E 00       mov eax, dword ptr [0x9e2b80]
0x0040752D: 66 8B 0D 84 2B 9E 00 mov cx, word ptr [0x9e2b84]
0x00407534: D9 55 E8             fst dword ptr [ebp - 0x18]
0x00407537: 8A 15 86 2B 9E 00    mov dl, byte ptr [0x9e2b86]
0x0040753D: D9 55 EC             fst dword ptr [ebp - 0x14]
0x00407540: 56                   push esi
0x00407541: D9 5D F0             fstp dword ptr [ebp - 0x10]
0x00407544: 89 45 F4             mov dword ptr [ebp - 0xc], eax
0x00407547: 66 89 4D F8          mov word ptr [ebp - 8], cx
0x0040754B: 88 55 FA             mov byte ptr [ebp - 6], dl
0x0040754E: E8 3D C2 0C 00       call 0x4d3790
0x00407553: 68 A0 00 00 00       push 0xa0
0x00407558: 68 18 1F 9E 00       push 0x9e1f18
0x0040755D: 6A 10                push 0x10
0x0040755F: 52                   push edx
0x00407560: 50                   push eax
0x00407561: E8 4A D8 0C 00       call 0x4d4db0
0x00407566: 8B F0                mov esi, eax
0x00407568: 83 C4 14             add esp, 0x14
0x0040756B: 85 F6                test esi, esi
0x0040756D: 0F 84 E3 00 00 00    je 0x407656
0x00407573: 8B 45 0C             mov eax, dword ptr [ebp + 0xc]
0x00407576: 8A 00                mov al, byte ptr [eax]
0x00407578: 84 C0                test al, al
0x0040757A: 0F 84 6E 01 00 00    je 0x4076ee
0x00407580: 66 0F BE C8          movsx cx, al
0x00407584: 51                   push ecx
0x00407585: E8 86 99 3D 00       call 0x7e0f10
0x0040758A: 83 C4 04             add esp, 4
0x0040758D: 84 C0                test al, al
0x0040758F: 75 0C                jne 0x40759d
0x00407591: 8B 55 0C             mov edx, dword ptr [ebp + 0xc]
0x00407594: 80 3A 2D             cmp byte ptr [edx], 0x2d
0x00407597: 0F 85 51 01 00 00    jne 0x4076ee
0x0040759D: 6A 00                push 0
0x0040759F: 8D 45 F4             lea eax, [ebp - 0xc]
0x004075A2: 50                   push eax
0x004075A3: 6A 40                push 0x40
0x004075A5: 8D 4D 84             lea ecx, [ebp - 0x7c]
0x004075A8: 51                   push ecx
0x004075A9: 8D 55 0C             lea edx, [ebp + 0xc]
0x004075AC: 52                   push edx
0x004075AD: E8 2E 7C 36 00       call 0x76f1e0
0x004075B2: 80 7D 84 00          cmp byte ptr [ebp - 0x7c], 0
0x004075B6: 0F 84 41 01 00 00    je 0x4076fd
0x004075BC: 8D 45 84             lea eax, [ebp - 0x7c]
0x004075BF: 50                   push eax
0x004075C0: E8 BB 85 36 00       call 0x76fb80
0x004075C5: D9 5D E8             fstp dword ptr [ebp - 0x18]
0x004075C8: 6A 00                push 0
0x004075CA: 8D 4D F4             lea ecx, [ebp - 0xc]
0x004075CD: 51                   push ecx
0x004075CE: 6A 40                push 0x40
0x004075D0: 8D 55 84             lea edx, [ebp - 0x7c]
0x004075D3: 52                   push edx
0x004075D4: 8D 45 0C             lea eax, [ebp + 0xc]
0x004075D7: 50                   push eax
0x004075D8: E8 03 7C 36 00       call 0x76f1e0
0x004075DD: 80 7D 84 00          cmp byte ptr [ebp - 0x7c], 0
0x004075E1: 0F 84 16 01 00 00    je 0x4076fd
0x004075E7: 8D 4D 84             lea ecx, [ebp - 0x7c]
0x004075EA: 51                   push ecx
0x004075EB: E8 90 85 36 00       call 0x76fb80
0x004075F0: D9 5D EC             fstp dword ptr [ebp - 0x14]
0x004075F3: 6A 00                push 0
0x004075F5: 8D 55 F4             lea edx, [ebp - 0xc]
0x004075F8: 52                   push edx
0x004075F9: 6A 40                push 0x40
0x004075FB: 8D 45 84             lea eax, [ebp - 0x7c]
0x004075FE: 50                   push eax
0x004075FF: 8D 4D 0C             lea ecx, [ebp + 0xc]
0x00407602: 51                   push ecx
0x00407603: E8 D8 7B 36 00       call 0x76f1e0
0x00407608: 80 7D 84 00          cmp byte ptr [ebp - 0x7c], 0
0x0040760C: 74 0B                je 0x407619
0x0040760E: 8D 55 84             lea edx, [ebp - 0x7c]
0x00407611: 52                   push edx
0x00407612: E8 69 85 36 00       call 0x76fb80
0x00407617: EB 02                jmp 0x40761b
0x00407619: D9 EE                fldz
0x0040761B: 8D 45 E8             lea eax, [ebp - 0x18]
0x0040761E: D9 5D F0             fstp dword ptr [ebp - 0x10]
0x00407621: 50                   push eax
0x00407622: 8D 4D DC             lea ecx, [ebp - 0x24]
0x00407625: 51                   push ecx
0x00407626: 8B 8E D8 00 00 00    mov ecx, dword ptr [esi + 0xd8]
0x0040762C: E8 2F CE 0E 00       call 0x4f4460
0x00407631: D9 EE                fldz
0x00407633: 51                   push ecx
0x00407634: D9 1C 24             fstp dword ptr [esp]
0x00407637: 8D 55 DC             lea edx, [ebp - 0x24]
0x0040763A: 52                   push edx
0x0040763B: E8 50 F8 FF FF       call 0x406e90
0x00407640: 83 C4 08             add esp, 8
0x00407643: 85 C0                test eax, eax
0x00407645: 6A 00                push 0
0x00407647: 75 17                jne 0x407660
0x00407649: 68 44 2B 9E 00       push 0x9e2b44
0x0040764E: E8 1D DC 35 00       call 0x765270
0x00407653: 83 C4 08             add esp, 8
0x00407656: B8 01 00 00 00       mov eax, 1
0x0040765B: 5E                   pop esi
0x0040765C: 8B E5                mov esp, ebp
0x0040765E: 5D                   pop ebp
0x0040765F: C3                   ret
0x00407660: 8D 45 F4             lea eax, [ebp - 0xc]
0x00407663: 50                   push eax
0x00407664: 6A 40                push 0x40
0x00407666: 8D 4D 84             lea ecx, [ebp - 0x7c]
0x00407669: 51                   push ecx
0x0040766A: 8D 55 0C             lea edx, [ebp + 0xc]
0x0040766D: 52                   push edx
0x0040766E: E8 6D 7B 36 00       call 0x76f1e0
0x00407673: 80 7D 84 00          cmp byte ptr [ebp - 0x7c], 0
0x00407677: 74 11                je 0x40768a
0x00407679: 8D 45 84             lea eax, [ebp - 0x7c]
0x0040767C: 50                   push eax
0x0040767D: E8 FE 84 36 00       call 0x76fb80
0x00407682: D8 0D 40 2B 9E 00    fmul dword ptr [0x9e2b40]
0x00407688: EB 09                jmp 0x407693
0x0040768A: 8B 16                mov edx, dword ptr [esi]
0x0040768C: 8B 42 38             mov eax, dword ptr [edx + 0x38]
0x0040768F: 8B CE                mov ecx, esi
0x00407691: FF D0                call eax
0x00407693: 8D 4D C4             lea ecx, [ebp - 0x3c]
0x00407696: D9 5D FC             fstp dword ptr [ebp - 4]
0x00407699: E8 B2 99 FF FF       call 0x401050
0x0040769E: 68 E1 00 00 00       push 0xe1
0x004076A3: 8D 4D C4             lea ecx, [ebp - 0x3c]
0x004076A6: E8 F5 39 07 00       call 0x47b0a0
0x004076AB: 8D 4D E8             lea ecx, [ebp - 0x18]
0x004076AE: 51                   push ecx
0x004076AF: 8D 55 C4             lea edx, [ebp - 0x3c]
0x004076B2: 52                   push edx
0x004076B3: E8 E8 F6 FF FF       call 0x406da0
0x004076B8: D9 45 FC             fld dword ptr [ebp - 4]
0x004076BB: 83 C4 04             add esp, 4
0x004076BE: 8D 4D C4             lea ecx, [ebp - 0x3c]
0x004076C1: D9 1C 24             fstp dword ptr [esp]
0x004076C4: E8 97 3A 07 00       call 0x47b160
0x004076C9: 8D 45 C4             lea eax, [ebp - 0x3c]
0x004076CC: 50                   push eax
0x004076CD: C7 45 D8 00 00 00 00 mov dword ptr [ebp - 0x28], 0
0x004076D4: E8 67 F8 FF FF       call 0x406f40
0x004076D9: 83 C4 04             add esp, 4
0x004076DC: 8D 4D C4             lea ecx, [ebp - 0x3c]
0x004076DF: E8 9C C1 FF FF       call 0x403880
0x004076E4: B8 01 00 00 00       mov eax, 1
0x004076E9: 5E                   pop esi
0x004076EA: 8B E5                mov esp, ebp
0x004076EC: 5D                   pop ebp
0x004076ED: C3                   ret
0x004076EE: 6A 04                push 4
0x004076F0: 68 FC 2B 9E 00       push 0x9e2bfc
0x004076F5: E8 76 DB 35 00       call 0x765270
0x004076FA: 83 C4 08             add esp, 8
0x004076FD: 33 C0                xor eax, eax
0x004076FF: 5E                   pop esi
0x00407700: 8B E5                mov esp, ebp
0x00407702: 5D                   pop ebp
0x00407703: C3                   ret
0x00407704: CC                   int3
0x00407705: CC                   int3
0x00407706: CC                   int3
0x00407707: CC                   int3
0x00407708: CC                   int3
0x00407709: CC                   int3
0x0040770A: CC                   int3
0x0040770B: CC                   int3
0x0040770C: CC                   int3
0x0040770D: CC                   int3
0x0040770E: CC                   int3
0x0040770F: CC                   int3
0x00407710: 55                   push ebp
0x00407711: 8B EC                mov ebp, esp
0x00407713: 83 EC 18             sub esp, 0x18
0x00407716: 56                   push esi
0x00407717: 57                   push edi
0x00407718: E8 73 C0 0C 00       call 0x4d3790
0x0040771D: 68 A0 00 00 00       push 0xa0
0x00407722: 68 18 1F 9E 00       push 0x9e1f18
0x00407727: 6A 10                push 0x10
0x00407729: 52                   push edx
0x0040772A: 50                   push eax
0x0040772B: E8 80 D6 0C 00       call 0x4d4db0
0x00407730: 8B F0                mov esi, eax
0x00407732: 33 FF                xor edi, edi
0x00407734: 83 C4 14             add esp, 0x14
0x00407737: 3B F7                cmp esi, edi
0x00407739: 74 73                je 0x4077ae
0x0040773B: 68 B9 02 00 00       push 0x2b9
0x00407740: 8D 4D E8             lea ecx, [ebp - 0x18]
0x00407743: C7 45 E8 24 0E 9E 00 mov dword ptr [ebp - 0x18], 0x9e0e24
0x0040774A: 89 7D EC             mov dword ptr [ebp - 0x14], edi
0x0040774D: 89 7D F0             mov dword ptr [ebp - 0x10], edi
0x00407750: 89 7D F4             mov dword ptr [ebp - 0xc], edi
0x00407753: 89 7D F8             mov dword ptr [ebp - 8], edi
0x00407756: C7 45 FC FF FF FF FF mov dword ptr [ebp - 4], 0xffffffff
0x0040775D: E8 3E 39 07 00       call 0x47b0a0
0x00407762: 8B 86 08 10 00 00    mov eax, dword ptr [esi + 0x1008]
0x00407768: 8B 48 08             mov ecx, dword ptr [eax + 8]
0x0040776B: C1 E9 0A             shr ecx, 0xa
0x0040776E: 81 E1 01 FF FF FF    and ecx, 0xffffff01
0x00407774: 51                   push ecx
0x00407775: 8D 4D E8             lea ecx, [ebp - 0x18]
0x00407778: E8 63 38 07 00       call 0x47afe0
0x0040777D: 8D 55 E8             lea edx, [ebp - 0x18]
0x00407780: 52                   push edx
0x00407781: 89 7D FC             mov dword ptr [ebp - 4], edi
0x00407784: E8 B7 F7 FF FF       call 0x406f40
0x00407789: 83 C4 04             add esp, 4
0x0040778C: 83 7D F4 FF          cmp dword ptr [ebp - 0xc], -1
0x00407790: C7 45 E8 24 0E 9E 00 mov dword ptr [ebp - 0x18], 0x9e0e24
0x00407797: 74 15                je 0x4077ae
0x00407799: 8D 45 F4             lea eax, [ebp - 0xc]
0x0040779C: 50                   push eax
0x0040779D: 8D 4D F0             lea ecx, [ebp - 0x10]
0x004077A0: 51                   push ecx
0x004077A1: 8D 55 EC             lea edx, [ebp - 0x14]
0x004077A4: 52                   push edx
0x004077A5: 8D 4D E8             lea ecx, [ebp - 0x18]
0x004077A8: FF 15 28 0E 9E 00    call dword ptr [0x9e0e28]
0x004077AE: 5F                   pop edi
0x004077AF: B8 01 00 00 00       mov eax, 1
0x004077B4: 5E                   pop esi
0x004077B5: 8B E5                mov esp, ebp
0x004077B7: 5D                   pop ebp
0x004077B8: C3                   ret
0x004077B9: CC                   int3
0x004077BA: CC                   int3
0x004077BB: CC                   int3
0x004077BC: CC                   int3
0x004077BD: CC                   int3
0x004077BE: CC                   int3
0x004077BF: CC                   int3
0x004077C0: 55                   push ebp
0x004077C1: 8B EC                mov ebp, esp
0x004077C3: 83 EC 18             sub esp, 0x18
0x004077C6: 56                   push esi
0x004077C7: 57                   push edi
0x004077C8: E8 C3 BF 0C 00       call 0x4d3790
0x004077CD: 68 A0 00 00 00       push 0xa0
0x004077D2: 68 18 1F 9E 00       push 0x9e1f18
0x004077D7: 6A 10                push 0x10
0x004077D9: 52                   push edx
0x004077DA: 50                   push eax
0x004077DB: E8 D0 D5 0C 00       call 0x4d4db0
0x004077E0: 8B F0                mov esi, eax
0x004077E2: 33 FF                xor edi, edi
0x004077E4: 83 C4 14             add esp, 0x14
0x004077E7: 3B F7                cmp esi, edi
0x004077E9: 74 73                je 0x40785e
0x004077EB: 68 BA 02 00 00       push 0x2ba
0x004077F0: 8D 4D E8             lea ecx, [ebp - 0x18]
0x004077F3: C7 45 E8 24 0E 9E 00 mov dword ptr [ebp - 0x18], 0x9e0e24
0x004077FA: 89 7D EC             mov dword ptr [ebp - 0x14], edi
0x004077FD: 89 7D F0             mov dword ptr [ebp - 0x10], edi
0x00407800: 89 7D F4             mov dword ptr [ebp - 0xc], edi
0x00407803: 89 7D F8             mov dword ptr [ebp - 8], edi
0x00407806: C7 45 FC FF FF FF FF mov dword ptr [ebp - 4], 0xffffffff
0x0040780D: E8 8E 38 07 00       call 0x47b0a0
0x00407812: 8B 86 08 10 00 00    mov eax, dword ptr [esi + 0x1008]
0x00407818: 8B 48 08             mov ecx, dword ptr [eax + 8]
0x0040781B: C1 E9 0B             shr ecx, 0xb
0x0040781E: 81 E1 01 FF FF FF    and ecx, 0xffffff01
0x00407824: 51                   push ecx
0x00407825: 8D 4D E8             lea ecx, [ebp - 0x18]
0x00407828: E8 B3 37 07 00       call 0x47afe0
0x0040782D: 8D 55 E8             lea edx, [ebp - 0x18]
0x00407830: 52                   push edx
0x00407831: 89 7D FC             mov dword ptr [ebp - 4], edi
0x00407834: E8 07 F7 FF FF       call 0x406f40
0x00407839: 83 C4 04             add esp, 4
0x0040783C: 83 7D F4 FF          cmp dword ptr [ebp - 0xc], -1
0x00407840: C7 45 E8 24 0E 9E 00 mov dword ptr [ebp - 0x18], 0x9e0e24
0x00407847: 74 15                je 0x40785e
0x00407849: 8D 45 F4             lea eax, [ebp - 0xc]
0x0040784C: 50                   push eax
0x0040784D: 8D 4D F0             lea ecx, [ebp - 0x10]
0x00407850: 51                   push ecx
0x00407851: 8D 55 EC             lea edx, [ebp - 0x14]
0x00407854: 52                   push edx
0x00407855: 8D 4D E8             lea ecx, [ebp - 0x18]
0x00407858: FF 15 28 0E 9E 00    call dword ptr [0x9e0e28]
0x0040785E: 5F                   pop edi
0x0040785F: B8 01 00 00 00       mov eax, 1
0x00407864: 5E                   pop esi
0x00407865: 8B E5                mov esp, ebp
0x00407867: 5D                   pop ebp
0x00407868: C3                   ret
0x00407869: CC                   int3
0x0040786A: CC                   int3
0x0040786B: CC                   int3
0x0040786C: CC                   int3
0x0040786D: CC                   int3
0x0040786E: CC                   int3
0x0040786F: CC                   int3
0x00407870: 6A 00                push 0
0x00407872: 6A 00                push 0
0x00407874: 68 D0 71 40 00       push 0x4071d0
0x00407879: 68 38 2B 9E 00       push 0x9e2b38
0x0040787E: E8 7D 18 36 00       call 0x769100
0x00407883: 6A 00                push 0
0x00407885: 6A 00                push 0
0x00407887: 68 F0 71 40 00       push 0x4071f0
0x0040788C: 68 2C 2B 9E 00       push 0x9e2b2c
0x00407891: E8 6A 18 36 00       call 0x769100
0x00407896: 6A 00                push 0
0x00407898: 6A 00                push 0
0x0040789A: 68 10 72 40 00       push 0x407210
0x0040789F: 68 20 2B 9E 00       push 0x9e2b20
0x004078A4: E8 57 18 36 00       call 0x769100
0x004078A9: 6A 00                push 0
0x004078AB: 6A 00                push 0
0x004078AD: 68 20 75 40 00       push 0x407520
0x004078B2: 68 14 2B 9E 00       push 0x9e2b14
0x004078B7: E8 44 18 36 00       call 0x769100
0x004078BC: 83 C4 40             add esp, 0x40
0x004078BF: 6A 00                push 0
0x004078C1: 6A 01                push 1
0x004078C3: 68 C0 6E 40 00       push 0x406ec0
0x004078C8: 68 08 2B 9E 00       push 0x9e2b08
0x004078CD: E8 2E 18 36 00       call 0x769100
0x004078D2: 6A 00                push 0
0x004078D4: 6A 04                push 4
0x004078D6: 68 10 77 40 00       push 0x407710
0x004078DB: 68 FC 2A 9E 00       push 0x9e2afc
0x004078E0: E8 1B 18 36 00       call 0x769100
0x004078E5: 6A 00                push 0
0x004078E7: 6A 04                push 4
0x004078E9: 68 C0 77 40 00       push 0x4077c0
0x004078EE: 68 F0 2A 9E 00       push 0x9e2af0
0x004078F3: E8 08 18 36 00       call 0x769100
0x004078F8: 83 C4 30             add esp, 0x30
0x004078FB: C3                   ret
0x004078FC: CC                   int3
0x004078FD: CC                   int3
0x004078FE: CC                   int3
0x004078FF: CC                   int3
0x00407900: 55                   push ebp
0x00407901: 8B EC                mov ebp, esp
0x00407903: 8B 45 08             mov eax, dword ptr [ebp + 8]
0x00407906: A8 01                test al, 1
0x00407908: 75 08                jne 0x407912
0x0040790A: 85 C0                test eax, eax
0x0040790C: 74 04                je 0x407912
0x0040790E: 33 C0                xor eax, eax
0x00407910: 5D                   pop ebp
0x00407911: C3                   ret
0x00407912: B8 01 00 00 00       mov eax, 1
0x00407917: 5D                   pop ebp
0x00407918: C3                   ret
0x00407919: CC                   int3
0x0040791A: CC                   int3
0x0040791B: CC                   int3
0x0040791C: CC                   int3
0x0040791D: CC                   int3
0x0040791E: CC                   int3
0x0040791F: CC                   int3
0x00407920: 85 C9                test ecx, ecx
0x00407922: 74 09                je 0x40792d
0x00407924: 8B 01                mov eax, dword ptr [ecx]
0x00407926: 8B 50 04             mov edx, dword ptr [eax + 4]
0x00407929: 6A 01                push 1
0x0040792B: FF D2                call edx
0x0040792D: C3                   ret
0x0040792E: CC                   int3
0x0040792F: CC                   int3
0x00407930: 55                   push ebp
0x00407931: 8B EC                mov ebp, esp
0x00407933: D9 EE                fldz
0x00407935: 83 EC 08             sub esp, 8
0x00407938: D9 45 08             fld dword ptr [ebp + 8]
0x0040793B: D8 D1                fcom st(1)
0x0040793D: DF E0                fnstsw ax
0x0040793F: DD D9                fstp st(1)
0x00407941: F6 C4 41             test ah, 0x41
0x00407944: 75 1F                jne 0x407965
0x00407946: D9 7D 0A             fnstcw word ptr [ebp + 0xa]
0x00407949: 0F B7 45 0A          movzx eax, word ptr [ebp + 0xa]
0x0040794D: 0D 00 0C 00 00       or eax, 0xc00
0x00407952: 89 45 FC             mov dword ptr [ebp - 4], eax
0x00407955: D9 6D FC             fldcw word ptr [ebp - 4]
0x00407958: DF 7D F8             fistp qword ptr [ebp - 8]
0x0040795B: 8B 45 F8             mov eax, dword ptr [ebp - 8]
0x0040795E: D9 6D 0A             fldcw word ptr [ebp + 0xa]
0x00407961: 8B E5                mov esp, ebp
0x00407963: 5D                   pop ebp
0x00407964: C3                   ret
0x00407965: D9 7D 0A             fnstcw word ptr [ebp + 0xa]
0x00407968: 0F B7 45 0A          movzx eax, word ptr [ebp + 0xa]
0x0040796C: 0D 00 0C 00 00       or eax, 0xc00
0x00407971: 89 45 FC             mov dword ptr [ebp - 4], eax
0x00407974: D9 6D FC             fldcw word ptr [ebp - 4]
0x00407977: DF 7D F8             fistp qword ptr [ebp - 8]
0x0040797A: 8B 45 F8             mov eax, dword ptr [ebp - 8]
0x0040797D: D9 6D 0A             fldcw word ptr [ebp + 0xa]
0x00407980: 8B E5                mov esp, ebp
0x00407982: 5D                   pop ebp
0x00407983: C3                   ret
0x00407984: CC                   int3
0x00407985: CC                   int3
0x00407986: CC                   int3
0x00407987: CC                   int3
0x00407988: CC                   int3
0x00407989: CC                   int3
0x0040798A: CC                   int3
0x0040798B: CC                   int3
0x0040798C: CC                   int3
0x0040798D: CC                   int3
0x0040798E: CC                   int3
0x0040798F: CC                   int3
0x00407990: 55                   push ebp
0x00407991: 8B EC                mov ebp, esp
0x00407993: 8B 4D 0C             mov ecx, dword ptr [ebp + 0xc]
0x00407996: 8B 55 10             mov edx, dword ptr [ebp + 0x10]
0x00407999: D9 01                fld dword ptr [ecx]
0x0040799B: D8 02                fadd dword ptr [edx]
0x0040799D: 8B 45 08             mov eax, dword ptr [ebp + 8]
0x004079A0: D9 18                fstp dword ptr [eax]
0x004079A2: D9 41 04             fld dword ptr [ecx + 4]
0x004079A5: D8 42 04             fadd dword ptr [edx + 4]
0x004079A8: D9 58 04             fstp dword ptr [eax + 4]
0x004079AB: D9 41 08             fld dword ptr [ecx + 8]
0x004079AE: D8 42 08             fadd dword ptr [edx + 8]
0x004079B1: D9 58 08             fstp dword ptr [eax + 8]
0x004079B4: 5D                   pop ebp
0x004079B5: C3                   ret
0x004079B6: CC                   int3
0x004079B7: CC                   int3
0x004079B8: CC                   int3
0x004079B9: CC                   int3
0x004079BA: CC                   int3
0x004079BB: CC                   int3
0x004079BC: CC                   int3
0x004079BD: CC                   int3
0x004079BE: CC                   int3
0x004079BF: CC                   int3
0x004079C0: D9 EE                fldz
0x004079C2: D9 11                fst dword ptr [ecx]
0x004079C4: D9 59 04             fstp dword ptr [ecx + 4]
0x004079C7: C3                   ret
0x004079C8: CC                   int3
0x004079C9: CC                   int3
0x004079CA: CC                   int3
0x004079CB: CC                   int3
0x004079CC: CC                   int3
0x004079CD: CC                   int3
0x004079CE: CC                   int3
0x004079CF: CC                   int3
0x004079D0: D9 EE                fldz
0x004079D2: D9 C0                fld st(0)
0x004079D4: D9 E8                fld1
0x004079D6: D9 C0                fld st(0)
0x004079D8: D9 C3                fld st(3)
0x004079DA: D9 05 B8 FE B2 00    fld dword ptr [0xb2feb8]
0x004079E0: DD E1                fucom st(1)
0x004079E2: DF E0                fnstsw ax
0x004079E4: DD D9                fstp st(1)
0x004079E6: F6 C4 44             test ah, 0x44
0x004079E9: 0F 8B 8B 00 00 00    jnp 0x407a7a
0x004079EF: 80 3D BC FE B2 00 00 cmp byte ptr [0xb2febc], 0
0x004079F6: DD DB                fstp st(3)
0x004079F8: 74 10                je 0x407a0a
0x004079FA: DD D8                fstp st(0)
0x004079FC: D9 05 C4 2E 9E 00    fld dword ptr [0x9e2ec4]
0x00407A02: D9 C0                fld st(0)
0x00407A04: D9 CB                fxch st(3)
0x00407A06: DE C9                fmulp st(1)
0x00407A08: D9 CA                fxch st(2)
0x00407A0A: D9 05 B4 FE B2 00    fld dword ptr [0xb2feb4]
0x00407A10: D8 CC                fmul st(4)
0x00407A12: DE C3                faddp st(3)
0x00407A14: D8 0D B0 FE B2 00    fmul dword ptr [0xb2feb0]
0x00407A1A: DE C2                faddp st(2)
0x00407A1C: D9 C9                fxch st(1)
0x00407A1E: D9 15 AC FE B2 00    fst dword ptr [0xb2feac]
0x00407A24: D8 D2                fcom st(2)
0x00407A26: DF E0                fnstsw ax
0x00407A28: F6 C4 05             test ah, 5
0x00407A2B: 7B 51                jnp 0x407a7e
0x00407A2D: D8 D1                fcom st(1)
0x00407A2F: DF E0                fnstsw ax
0x00407A31: F6 C4 05             test ah, 5
0x00407A34: 7A 54                jp 0x407a8a
0x00407A36: DD D9                fstp st(1)
0x00407A38: D8 D9                fcomp st(1)
0x00407A3A: DF E0                fnstsw ax
0x00407A3C: F6 C4 05             test ah, 5
0x00407A3F: 7B 41                jnp 0x407a82
0x00407A41: DD D8                fstp st(0)
0x00407A43: E8 F8 A6 01 00       call 0x422140
0x00407A48: 85 C0                test eax, eax
0x00407A4A: 74 62                je 0x407aae
0x00407A4C: 80 3D D9 FE B2 00 00 cmp byte ptr [0xb2fed9], 0
0x00407A53: 74 59                je 0x407aae
0x00407A55: E8 76 9B 01 00       call 0x4215d0
0x00407A5A: 50                   push eax
0x00407A5B: E8 40 9B 01 00       call 0x4215a0
0x00407A60: 83 C4 04             add esp, 4
0x00407A63: 84 C0                test al, al
0x00407A65: 75 2F                jne 0x407a96
0x00407A67: D9 05 DC FE B2 00    fld dword ptr [0xb2fedc]
0x00407A6D: D8 0D C0 2E 9E 00    fmul dword ptr [0x9e2ec0]
0x00407A73: D9 1D AC FE B2 00    fstp dword ptr [0xb2feac]
0x00407A79: C3                   ret
0x00407A7A: DD D8                fstp st(0)
0x00407A7C: EB 8C                jmp 0x407a0a
0x00407A7E: DD D8                fstp st(0)
0x00407A80: DD D8                fstp st(0)
0x00407A82: D9 1D AC FE B2 00    fstp dword ptr [0xb2feac]
0x00407A88: EB B9                jmp 0x407a43
0x00407A8A: DD DA                fstp st(2)
0x00407A8C: DD D9                fstp st(1)
0x00407A8E: D9 1D AC FE B2 00    fstp dword ptr [0xb2feac]
0x00407A94: EB AD                jmp 0x407a43
0x00407A96: D9 05 AC FE B2 00    fld dword ptr [0xb2feac]
0x00407A9C: D8 0D BC 2E 9E 00    fmul dword ptr [0x9e2ebc]
0x00407AA2: D8 05 C0 2E 9E 00    fadd dword ptr [0x9e2ec0]
0x00407AA8: D9 1D AC FE B2 00    fstp dword ptr [0xb2feac]
0x00407AAE: C3                   ret
0x00407AAF: CC                   int3
0x00407AB0: 55                   push ebp
0x00407AB1: 8B EC                mov ebp, esp
0x00407AB3: 8B 45 08             mov eax, dword ptr [ebp + 8]
0x00407AB6: 8B 08                mov ecx, dword ptr [eax]
0x00407AB8: 89 0D 70 64 AB 00    mov dword ptr [0xab6470], ecx
0x00407ABE: 8B 50 04             mov edx, dword ptr [eax + 4]
0x00407AC1: 89 15 74 64 AB 00    mov dword ptr [0xab6474], edx
0x00407AC7: 8B 48 08             mov ecx, dword ptr [eax + 8]
0x00407ACA: 89 0D 78 64 AB 00    mov dword ptr [0xab6478], ecx
0x00407AD0: 8B 50 0C             mov edx, dword ptr [eax + 0xc]
0x00407AD3: 89 15 7C 64 AB 00    mov dword ptr [0xab647c], edx
0x00407AD9: 8B 48 10             mov ecx, dword ptr [eax + 0x10]
0x00407ADC: 89 0D 80 64 AB 00    mov dword ptr [0xab6480], ecx
0x00407AE2: 8B 50 14             mov edx, dword ptr [eax + 0x14]
0x00407AE5: 89 15 84 64 AB 00    mov dword ptr [0xab6484], edx
0x00407AEB: C7 05 F0 FE B2 00 01 00 00 00 mov dword ptr [0xb2fef0], 1
0x00407AF5: 33 C0                xor eax, eax
0x00407AF7: 5D                   pop ebp
0x00407AF8: C3                   ret
0x00407AF9: CC                   int3
0x00407AFA: CC                   int3
0x00407AFB: CC                   int3
0x00407AFC: CC                   int3
0x00407AFD: CC                   int3
0x00407AFE: CC                   int3
0x00407AFF: CC                   int3
0x00407B00: D9 05 C8 2E 9E 00    fld dword ptr [0x9e2ec8]
0x00407B06: 51                   push ecx
0x00407B07: D9 1C 24             fstp dword ptr [esp]
0x00407B0A: 6A 00                push 0
0x00407B0C: 68 50 52 8E 00       push 0x8e5250
0x00407B11: 6A 01                push 1
0x00407B13: E8 A8 58 07 00       call 0x47d3c0
0x00407B18: D9 05 C8 2E 9E 00    fld dword ptr [0x9e2ec8]
0x00407B1E: 83 C4 0C             add esp, 0xc
0x00407B21: D9 1C 24             fstp dword ptr [esp]
0x00407B24: 6A 00                push 0
0x00407B26: 68 50 52 8E 00       push 0x8e5250
0x00407B2B: 6A 22                push 0x22
0x00407B2D: E8 8E 58 07 00       call 0x47d3c0
0x00407B32: D9 05 C8 2E 9E 00    fld dword ptr [0x9e2ec8]
0x00407B38: 83 C4 0C             add esp, 0xc
0x00407B3B: D9 1C 24             fstp dword ptr [esp]
0x00407B3E: 6A 00                push 0
0x00407B40: 68 50 52 8E 00       push 0x8e5250
0x00407B45: 6A 09                push 9
0x00407B47: E8 74 58 07 00       call 0x47d3c0
0x00407B4C: D9 05 C8 2E 9E 00    fld dword ptr [0x9e2ec8]
0x00407B52: 83 C4 0C             add esp, 0xc
0x00407B55: D9 1C 24             fstp dword ptr [esp]
0x00407B58: 6A 00                push 0
0x00407B5A: 68 50 52 8E 00       push 0x8e5250
0x00407B5F: 6A 0B                push 0xb
0x00407B61: E8 5A 58 07 00       call 0x47d3c0
0x00407B66: D9 05 C8 2E 9E 00    fld dword ptr [0x9e2ec8]
0x00407B6C: 83 C4 0C             add esp, 0xc
0x00407B6F: D9 1C 24             fstp dword ptr [esp]
0x00407B72: 6A 00                push 0
0x00407B74: 68 50 52 8E 00       push 0x8e5250
0x00407B79: 6A 0C                push 0xc
0x00407B7B: E8 40 58 07 00       call 0x47d3c0
0x00407B80: D9 05 C8 2E 9E 00    fld dword ptr [0x9e2ec8]
0x00407B86: 83 C4 0C             add esp, 0xc
0x00407B89: D9 1C 24             fstp dword ptr [esp]
0x00407B8C: 6A 00                push 0
0x00407B8E: 68 50 52 8E 00       push 0x8e5250
0x00407B93: 6A 0D                push 0xd
0x00407B95: E8 26 58 07 00       call 0x47d3c0
0x00407B9A: D9 05 C8 2E 9E 00    fld dword ptr [0x9e2ec8]
0x00407BA0: 83 C4 0C             add esp, 0xc
0x00407BA3: D9 1C 24             fstp dword ptr [esp]
0x00407BA6: 6A 00                push 0
0x00407BA8: 68 B0 7A 40 00       push 0x407ab0
0x00407BAD: 6A 23                push 0x23
0x00407BAF: E8 0C 58 07 00       call 0x47d3c0
0x00407BB4: 83 C4 10             add esp, 0x10
0x00407BB7: C7 05 F0 FE B2 00 00 00 00 00 mov dword ptr [0xb2fef0], 0
0x00407BC1: C3                   ret
0x00407BC2: CC                   int3
0x00407BC3: CC                   int3
0x00407BC4: CC                   int3
0x00407BC5: CC                   int3
0x00407BC6: CC                   int3
0x00407BC7: CC                   int3
0x00407BC8: CC                   int3
0x00407BC9: CC                   int3
0x00407BCA: CC                   int3
0x00407BCB: CC                   int3
0x00407BCC: CC                   int3
0x00407BCD: CC                   int3
0x00407BCE: CC                   int3
0x00407BCF: CC                   int3
0x00407BD0: 68 50 52 8E 00       push 0x8e5250
0x00407BD5: 6A 01                push 1
0x00407BD7: E8 B4 5B 07 00       call 0x47d790
0x00407BDC: 68 50 52 8E 00       push 0x8e5250
0x00407BE1: 6A 22                push 0x22
0x00407BE3: E8 A8 5B 07 00       call 0x47d790
0x00407BE8: 68 50 52 8E 00       push 0x8e5250
0x00407BED: 6A 09                push 9
0x00407BEF: E8 9C 5B 07 00       call 0x47d790
0x00407BF4: 68 50 52 8E 00       push 0x8e5250
0x00407BF9: 6A 0B                push 0xb
0x00407BFB: E8 90 5B 07 00       call 0x47d790
0x00407C00: 68 50 52 8E 00       push 0x8e5250
0x00407C05: 6A 0C                push 0xc
0x00407C07: E8 84 5B 07 00       call 0x47d790
0x00407C0C: 68 50 52 8E 00       push 0x8e5250
0x00407C11: 6A 0D                push 0xd
0x00407C13: E8 78 5B 07 00       call 0x47d790
0x00407C18: 68 B0 7A 40 00       push 0x407ab0
0x00407C1D: 6A 23                push 0x23
0x00407C1F: E8 6C 5B 07 00       call 0x47d790
0x00407C24: 83 C4 38             add esp, 0x38
0x00407C27: 83 3D F0 FE B2 00 00 cmp dword ptr [0xb2fef0], 0
0x00407C2E: 74 17                je 0x407c47
0x00407C30: 6A 18                push 0x18
0x00407C32: 68 70 64 AB 00       push 0xab6470
0x00407C37: 6A 23                push 0x23
0x00407C39: E8 92 54 07 00       call 0x47d0d0
0x00407C3E: 50                   push eax
0x00407C3F: E8 CC 56 07 00       call 0x47d310
0x00407C44: 83 C4 10             add esp, 0x10
0x00407C47: C3                   ret
0x00407C48: CC                   int3
0x00407C49: CC                   int3
0x00407C4A: CC                   int3
0x00407C4B: CC                   int3
0x00407C4C: CC                   int3
0x00407C4D: CC                   int3
0x00407C4E: CC                   int3
0x00407C4F: CC                   int3
0x00407C50: 55                   push ebp
0x00407C51: 8B EC                mov ebp, esp
0x00407C53: 83 EC 60             sub esp, 0x60
0x00407C56: D9 EE                fldz
0x00407C58: 53                   push ebx
0x00407C59: D9 55 CC             fst dword ptr [ebp - 0x34]
0x00407C5C: 56                   push esi
0x00407C5D: D9 55 C0             fst dword ptr [ebp - 0x40]
0x00407C60: 57                   push edi
0x00407C61: D9 55 B4             fst dword ptr [ebp - 0x4c]
0x00407C64: 33 FF                xor edi, edi
0x00407C66: D9 55 A8             fst dword ptr [ebp - 0x58]
0x00407C69: D9 55 E8             fst dword ptr [ebp - 0x18]
0x00407C6C: D9 55 D8             fst dword ptr [ebp - 0x28]
0x00407C6F: D9 55 DC             fst dword ptr [ebp - 0x24]
0x00407C72: D9 5D D4             fstp dword ptr [ebp - 0x2c]
0x00407C75: D9 05 D8 2E 9E 00    fld dword ptr [0x9e2ed8]
0x00407C7B: D9 05 D4 2E 9E 00    fld dword ptr [0x9e2ed4]
0x00407C81: D9 E8                fld1
0x00407C83: 8B C7                mov eax, edi
0x00407C85: 33 D2                xor edx, edx
0x00407C87: C1 E0 08             shl eax, 8
0x00407C8A: 89 45 F0             mov dword ptr [ebp - 0x10], eax
0x00407C8D: 8D B0 00 01 00 00    lea esi, [eax + 0x100]
0x00407C93: 8B C2                mov eax, edx
0x00407C95: C1 E0 08             shl eax, 8
0x00407C98: 8D 0C BA             lea ecx, [edx + edi*4]
0x00407C9B: 03 C9                add ecx, ecx
0x00407C9D: 89 45 F4             mov dword ptr [ebp - 0xc], eax
0x00407CA0: 05 00 01 00 00       add eax, 0x100
0x00407CA5: 03 C9                add ecx, ecx
0x00407CA7: 3D EA 03 00 00       cmp eax, 0x3ea
0x00407CAC: 89 45 FC             mov dword ptr [ebp - 4], eax
0x00407CAF: 89 75 F8             mov dword ptr [ebp - 8], esi
0x00407CB2: 7E 07                jle 0x407cbb
0x00407CB4: C7 45 FC EA 03 00 00 mov dword ptr [ebp - 4], 0x3ea
0x00407CBB: 81 FE 9C 02 00 00    cmp esi, 0x29c
0x00407CC1: 7E 07                jle 0x407cca
0x00407CC3: C7 45 F8 9C 02 00 00 mov dword ptr [ebp - 8], 0x29c
0x00407CCA: DB 45 F4             fild dword ptr [ebp - 0xc]
0x00407CCD: 8D 04 49             lea eax, [ecx + ecx*2]
0x00407CD0: 03 C0                add eax, eax
0x00407CD2: 03 C0                add eax, eax
0x00407CD4: 83 FA 03             cmp edx, 3
0x00407CD7: D8 CB                fmul st(3)
0x00407CD9: DB 45 FC             fild dword ptr [ebp - 4]
0x00407CDC: D8 CC                fmul st(4)
0x00407CDE: DB 45 F0             fild dword ptr [ebp - 0x10]
0x00407CE1: D8 CC                fmul st(4)
0x00407CE3: D8 EB                fsubr st(3)
0x00407CE5: DB 45 F8             fild dword ptr [ebp - 8]
0x00407CE8: D8 CD                fmul st(5)
0x00407CEA: D8 EC                fsubr st(4)
0x00407CEC: D9 CB                fxch st(3)
0x00407CEE: D9 55 C4             fst dword ptr [ebp - 0x3c]
0x00407CF1: 8B 5D C4             mov ebx, dword ptr [ebp - 0x3c]
0x00407CF4: 89 98 00 FF B2 00    mov dword ptr [eax + 0xb2ff00], ebx
0x00407CFA: D9 CB                fxch st(3)
0x00407CFC: D9 55 C8             fst dword ptr [ebp - 0x38]
0x00407CFF: 8B 5D C8             mov ebx, dword ptr [ebp - 0x38]
0x00407D02: 89 98 04 FF B2 00    mov dword ptr [eax + 0xb2ff04], ebx
0x00407D08: D9 CA                fxch st(2)
0x00407D0A: 8B 5D CC             mov ebx, dword ptr [ebp - 0x34]
0x00407D0D: D9 55 B8             fst dword ptr [ebp - 0x48]
0x00407D10: 89 98 08 FF B2 00    mov dword ptr [eax + 0xb2ff08], ebx
0x00407D16: D9 CA                fxch st(2)
0x00407D18: 8B 5D B8             mov ebx, dword ptr [ebp - 0x48]
0x00407D1B: D9 5D BC             fstp dword ptr [ebp - 0x44]
0x00407D1E: 89 98 0C FF B2 00    mov dword ptr [eax + 0xb2ff0c], ebx
0x00407D24: D9 CA                fxch st(2)
0x00407D26: 8B 5D BC             mov ebx, dword ptr [ebp - 0x44]
0x00407D29: D9 5D AC             fstp dword ptr [ebp - 0x54]
0x00407D2C: 89 98 10 FF B2 00    mov dword ptr [eax + 0xb2ff10], ebx
0x00407D32: D9 C9                fxch st(1)
0x00407D34: 8B 5D C0             mov ebx, dword ptr [ebp - 0x40]
0x00407D37: D9 55 B0             fst dword ptr [ebp - 0x50]
0x00407D3A: 89 98 14 FF B2 00    mov dword ptr [eax + 0xb2ff14], ebx
0x00407D40: D9 C9                fxch st(1)
0x00407D42: 8B 5D AC             mov ebx, dword ptr [ebp - 0x54]
0x00407D45: D9 5D A0             fstp dword ptr [ebp - 0x60]
0x00407D48: 89 98 18 FF B2 00    mov dword ptr [eax + 0xb2ff18], ebx
0x00407D4E: 8B 5D B0             mov ebx, dword ptr [ebp - 0x50]
0x00407D51: D9 5D A4             fstp dword ptr [ebp - 0x5c]
0x00407D54: 89 98 1C FF B2 00    mov dword ptr [eax + 0xb2ff1c], ebx
0x00407D5A: 8B 5D B4             mov ebx, dword ptr [ebp - 0x4c]
0x00407D5D: D9 C0                fld st(0)
0x00407D5F: 89 98 20 FF B2 00    mov dword ptr [eax + 0xb2ff20], ebx
0x00407D65: D9 C1                fld st(1)
0x00407D67: 8B 5D A0             mov ebx, dword ptr [ebp - 0x60]
0x00407D6A: 89 98 24 FF B2 00    mov dword ptr [eax + 0xb2ff24], ebx
0x00407D70: 8B 5D A4             mov ebx, dword ptr [ebp - 0x5c]
0x00407D73: 89 98 28 FF B2 00    mov dword ptr [eax + 0xb2ff28], ebx
0x00407D79: 8B 5D A8             mov ebx, dword ptr [ebp - 0x58]
0x00407D7C: 89 98 2C FF B2 00    mov dword ptr [eax + 0xb2ff2c], ebx
0x00407D82: 75 08                jne 0x407d8c
0x00407D84: DD D8                fstp st(0)
0x00407D86: D9 05 D0 2E 9E 00    fld dword ptr [0x9e2ed0]
0x00407D8C: 83 FF 02             cmp edi, 2
0x00407D8F: 75 0A                jne 0x407d9b
0x00407D91: DD D9                fstp st(1)
0x00407D93: D9 05 CC 2E 9E 00    fld dword ptr [0x9e2ecc]
0x00407D99: D9 C9                fxch st(1)
0x00407D9B: 8B 45 E8             mov eax, dword ptr [ebp - 0x18]
0x00407D9E: D9 C9                fxch st(1)
0x00407DA0: 89 04 CD 40 01 B3 00 mov dword ptr [ecx*8 + 0xb30140], eax
0x00407DA7: D9 55 EC             fst dword ptr [ebp - 0x14]
0x00407DAA: 8B 45 EC             mov eax, dword ptr [ebp - 0x14]
0x00407DAD: D9 C9                fxch st(1)
0x00407DAF: 89 04 CD 44 01 B3 00 mov dword ptr [ecx*8 + 0xb30144], eax
0x00407DB6: D9 55 E0             fst dword ptr [ebp - 0x20]
0x00407DB9: 8B 45 E0             mov eax, dword ptr [ebp - 0x20]
0x00407DBC: D9 C9                fxch st(1)
0x00407DBE: 89 04 CD 48 01 B3 00 mov dword ptr [ecx*8 + 0xb30148], eax
0x00407DC5: D9 5D E4             fstp dword ptr [ebp - 0x1c]
0x00407DC8: 8B 45 E4             mov eax, dword ptr [ebp - 0x1c]
0x00407DCB: 89 04 CD 4C 01 B3 00 mov dword ptr [ecx*8 + 0xb3014c], eax
0x00407DD2: D9 5D D0             fstp dword ptr [ebp - 0x30]
0x00407DD5: 8B 45 D8             mov eax, dword ptr [ebp - 0x28]
0x00407DD8: 89 04 CD 50 01 B3 00 mov dword ptr [ecx*8 + 0xb30150], eax
0x00407DDF: 8B 45 DC             mov eax, dword ptr [ebp - 0x24]
0x00407DE2: 89 04 CD 54 01 B3 00 mov dword ptr [ecx*8 + 0xb30154], eax
0x00407DE9: 8B 45 D0             mov eax, dword ptr [ebp - 0x30]
0x00407DEC: 89 04 CD 58 01 B3 00 mov dword ptr [ecx*8 + 0xb30158], eax
0x00407DF3: 8B 45 D4             mov eax, dword ptr [ebp - 0x2c]
0x00407DF6: 83 C2 01             add edx, 1
0x00407DF9: 83 FA 04             cmp edx, 4
0x00407DFC: 89 04 CD 5C 01 B3 00 mov dword ptr [ecx*8 + 0xb3015c], eax
0x00407E03: 0F 8C 8A FE FF FF    jl 0x407c93
0x00407E09: 83 C7 01             add edi, 1
0x00407E0C: 83 FF 03             cmp edi, 3
0x00407E0F: 0F 8C 6E FE FF FF    jl 0x407c83
0x00407E15: DD D8                fstp st(0)
0x00407E17: 5F                   pop edi
0x00407E18: DD D9                fstp st(1)
0x00407E1A: 5E                   pop esi
0x00407E1B: DD D8                fstp st(0)
0x00407E1D: 5B                   pop ebx
0x00407E1E: 8B E5                mov esp, ebp
0x00407E20: 5D                   pop ebp
0x00407E21: C3                   ret
0x00407E22: CC                   int3
0x00407E23: CC                   int3
0x00407E24: CC                   int3
0x00407E25: CC                   int3
0x00407E26: CC                   int3
0x00407E27: CC                   int3
0x00407E28: CC                   int3
0x00407E29: CC                   int3
0x00407E2A: CC                   int3
0x00407E2B: CC                   int3
0x00407E2C: CC                   int3
0x00407E2D: CC                   int3
0x00407E2E: CC                   int3
0x00407E2F: CC                   int3
0x00407E30: 55                   push ebp
0x00407E31: 8B EC                mov ebp, esp
0x00407E33: 8B 45 08             mov eax, dword ptr [ebp + 8]
0x00407E36: A3 E8 FE B2 00       mov dword ptr [0xb2fee8], eax
0x00407E3B: 5D                   pop ebp
0x00407E3C: C3                   ret
0x00407E3D: CC                   int3
0x00407E3E: CC                   int3
0x00407E3F: CC                   int3
0x00407E40: 55                   push ebp
0x00407E41: 8B EC                mov ebp, esp
0x00407E43: 6A 00                push 0
0x00407E45: 6A FF                push -1
0x00407E47: 68 DC 2E 9E 00       push 0x9e2edc
0x00407E4C: E8 EF 1E 41 00       call 0x819d40
0x00407E51: D9 EE                fldz
0x00407E53: 8A 4D 08             mov cl, byte ptr [ebp + 8]
0x00407E56: D9 1D DC FE B2 00    fstp dword ptr [0xb2fedc]
0x00407E5C: 83 C4 0C             add esp, 0xc
0x00407E5F: 84 C9                test cl, cl
0x00407E61: 88 0D D9 FE B2 00    mov byte ptr [0xb2fed9], cl
0x00407E67: 74 1D                je 0x407e86
0x00407E69: 50                   push eax
0x00407E6A: 68 00 04 00 00       push 0x400
0x00407E6F: 68 F0 02 B3 00       push 0xb302f0
0x00407E74: E8 F7 71 36 00       call 0x76f070
0x00407E79: 83 C4 0C             add esp, 0xc
0x00407E7C: C7 05 E8 FE B2 00 F0 02 B3 00 mov dword ptr [0xb2fee8], 0xb302f0
0x00407E86: 5D                   pop ebp
0x00407E87: C3                   ret
0x00407E88: CC                   int3
0x00407E89: CC                   int3
0x00407E8A: CC                   int3
0x00407E8B: CC                   int3
0x00407E8C: CC                   int3
0x00407E8D: CC                   int3
0x00407E8E: CC                   int3
0x00407E8F: CC                   int3
0x00407E90: 33 C0                xor eax, eax
0x00407E92: 39 05 D4 FE B2 00    cmp dword ptr [0xb2fed4], eax
0x00407E98: 0F 95 C0             setne al
0x00407E9B: C3                   ret
0x00407E9C: CC                   int3
0x00407E9D: CC                   int3
0x00407E9E: CC                   int3
0x00407E9F: CC                   int3
0x00407EA0: 55                   push ebp
0x00407EA1: 8B EC                mov ebp, esp
0x00407EA3: A1 D4 FE B2 00       mov eax, dword ptr [0xb2fed4]
0x00407EA8: 85 C0                test eax, eax
0x00407EAA: 74 35                je 0x407ee1
0x00407EAC: 50                   push eax
0x00407EAD: E8 7E 06 0A 00       call 0x4a8530
0x00407EB2: 83 C4 04             add esp, 4
0x00407EB5: 80 7D 08 00          cmp byte ptr [ebp + 8], 0
0x00407EB9: 74 14                je 0x407ecf
0x00407EBB: 83 C8 01             or eax, 1
0x00407EBE: 50                   push eax
0x00407EBF: A1 D4 FE B2 00       mov eax, dword ptr [0xb2fed4]
0x00407EC4: 50                   push eax
0x00407EC5: E8 76 06 0A 00       call 0x4a8540
0x00407ECA: 83 C4 08             add esp, 8
0x00407ECD: 5D                   pop ebp
0x00407ECE: C3                   ret
0x00407ECF: 83 E0 FE             and eax, 0xfffffffe
0x00407ED2: 50                   push eax
0x00407ED3: A1 D4 FE B2 00       mov eax, dword ptr [0xb2fed4]
0x00407ED8: 50                   push eax
0x00407ED9: E8 62 06 0A 00       call 0x4a8540
0x00407EDE: 83 C4 08             add esp, 8
0x00407EE1: 5D                   pop ebp
0x00407EE2: C3                   ret
0x00407EE3: CC                   int3
0x00407EE4: CC                   int3
0x00407EE5: CC                   int3
0x00407EE6: CC                   int3
0x00407EE7: CC                   int3
0x00407EE8: CC                   int3
0x00407EE9: CC                   int3
0x00407EEA: CC                   int3
0x00407EEB: CC                   int3
0x00407EEC: CC                   int3
0x00407EED: CC                   int3
0x00407EEE: CC                   int3
0x00407EEF: CC                   int3
0x00407EF0: A1 C0 FE B2 00       mov eax, dword ptr [0xb2fec0]
0x00407EF5: 85 C0                test eax, eax
0x00407EF7: 74 09                je 0x407f02
0x00407EF9: 50                   push eax
0x00407EFA: E8 31 40 07 00       call 0x47bf30
0x00407EFF: 83 C4 04             add esp, 4
0x00407F02: 56                   push esi
0x00407F03: C7 05 C0 FE B2 00 00 00 00 00 mov dword ptr [0xb2fec0], 0
0x00407F0D: 33 F6                xor esi, esi
0x00407F0F: 90                   nop
0x00407F10: 8B 86 C4 FE B2 00    mov eax, dword ptr [esi + 0xb2fec4]
0x00407F16: 85 C0                test eax, eax
0x00407F18: 74 09                je 0x407f23
0x00407F1A: 50                   push eax
0x00407F1B: E8 10 40 07 00       call 0x47bf30
0x00407F20: 83 C4 04             add esp, 4
0x00407F23: C7 86 C4 FE B2 00 00 00 00 00 mov dword ptr [esi + 0xb2fec4], 0
0x00407F2D: 83 C6 04             add esi, 4
0x00407F30: 83 FE 08             cmp esi, 8
0x00407F33: 72 DB                jb 0x407f10
0x00407F35: 5E                   pop esi
0x00407F36: C3                   ret
0x00407F37: CC                   int3
0x00407F38: CC                   int3
0x00407F39: CC                   int3
0x00407F3A: CC                   int3
0x00407F3B: CC                   int3
0x00407F3C: CC                   int3
0x00407F3D: CC                   int3
0x00407F3E: CC                   int3
0x00407F3F: CC                   int3
0x00407F40: D9 E8                fld1
0x00407F42: 8B C1                mov eax, ecx
0x00407F44: D9 10                fst dword ptr [eax]
0x00407F46: D9 EE                fldz
0x00407F48: D9 50 04             fst dword ptr [eax + 4]
0x00407F4B: D9 50 08             fst dword ptr [eax + 8]
0x00407F4E: D9 50 0C             fst dword ptr [eax + 0xc]
0x00407F51: D9 50 10             fst dword ptr [eax + 0x10]
0x00407F54: D9 50 18             fst dword ptr [eax + 0x18]
0x00407F57: D9 50 1C             fst dword ptr [eax + 0x1c]
0x00407F5A: D9 50 20             fst dword ptr [eax + 0x20]
0x00407F5D: D9 50 24             fst dword ptr [eax + 0x24]
0x00407F60: D9 50 2C             fst dword ptr [eax + 0x2c]
0x00407F63: D9 50 30             fst dword ptr [eax + 0x30]
0x00407F66: D9 50 34             fst dword ptr [eax + 0x34]
0x00407F69: D9 58 38             fstp dword ptr [eax + 0x38]
0x00407F6C: D9 50 14             fst dword ptr [eax + 0x14]
0x00407F6F: D9 50 28             fst dword ptr [eax + 0x28]
0x00407F72: D9 58 3C             fstp dword ptr [eax + 0x3c]
0x00407F75: C3                   ret
0x00407F76: CC                   int3
0x00407F77: CC                   int3
0x00407F78: CC                   int3
0x00407F79: CC                   int3
0x00407F7A: CC                   int3
0x00407F7B: CC                   int3
0x00407F7C: CC                   int3
0x00407F7D: CC                   int3
0x00407F7E: CC                   int3
0x00407F7F: CC                   int3
0x00407F80: 55                   push ebp
0x00407F81: 8B EC                mov ebp, esp
0x00407F83: 8B C1                mov eax, ecx
0x00407F85: 8B 4D 08             mov ecx, dword ptr [ebp + 8]
0x00407F88: D9 01                fld dword ptr [ecx]
0x00407F8A: D9 18                fstp dword ptr [eax]
0x00407F8C: D9 41 04             fld dword ptr [ecx + 4]
0x00407F8F: D9 58 04             fstp dword ptr [eax + 4]
0x00407F92: D9 41 08             fld dword ptr [ecx + 8]
0x00407F95: D9 58 08             fstp dword ptr [eax + 8]
0x00407F98: D9 41 0C             fld dword ptr [ecx + 0xc]
0x00407F9B: D9 58 0C             fstp dword ptr [eax + 0xc]
0x00407F9E: D9 41 10             fld dword ptr [ecx + 0x10]
0x00407FA1: D9 58 10             fstp dword ptr [eax + 0x10]
0x00407FA4: D9 41 14             fld dword ptr [ecx + 0x14]
0x00407FA7: D9 58 14             fstp dword ptr [eax + 0x14]
0x00407FAA: D9 41 18             fld dword ptr [ecx + 0x18]
0x00407FAD: D9 58 18             fstp dword ptr [eax + 0x18]
0x00407FB0: D9 41 1C             fld dword ptr [ecx + 0x1c]
0x00407FB3: D9 58 1C             fstp dword ptr [eax + 0x1c]
0x00407FB6: D9 41 20             fld dword ptr [ecx + 0x20]
0x00407FB9: D9 58 20             fstp dword ptr [eax + 0x20]
0x00407FBC: D9 41 24             fld dword ptr [ecx + 0x24]
0x00407FBF: D9 58 24             fstp dword ptr [eax + 0x24]
0x00407FC2: D9 41 28             fld dword ptr [ecx + 0x28]
0x00407FC5: D9 58 28             fstp dword ptr [eax + 0x28]
0x00407FC8: D9 41 2C             fld dword ptr [ecx + 0x2c]
0x00407FCB: D9 58 2C             fstp dword ptr [eax + 0x2c]
0x00407FCE: D9 41 30             fld dword ptr [ecx + 0x30]
0x00407FD1: D9 58 30             fstp dword ptr [eax + 0x30]
0x00407FD4: D9 41 34             fld dword ptr [ecx + 0x34]
0x00407FD7: D9 58 34             fstp dword ptr [eax + 0x34]
0x00407FDA: D9 41 38             fld dword ptr [ecx + 0x38]
0x00407FDD: D9 58 38             fstp dword ptr [eax + 0x38]
0x00407FE0: D9 41 3C             fld dword ptr [ecx + 0x3c]
0x00407FE3: D9 58 3C             fstp dword ptr [eax + 0x3c]
0x00407FE6: 5D                   pop ebp
0x00407FE7: C2 04 00             ret 4
0x00407FEA: CC                   int3
0x00407FEB: CC                   int3
0x00407FEC: CC                   int3
0x00407FED: CC                   int3
0x00407FEE: CC                   int3
0x00407FEF: CC                   int3
0x00407FF0: 8B 0D 88 DF C5 00    mov ecx, dword ptr [0xc5df88]
0x00407FF6: 85 C9                test ecx, ecx
0x00407FF8: 75 03                jne 0x407ffd
0x00407FFA: 33 C0                xor eax, eax
0x00407FFC: C3                   ret
0x00407FFD: 6A FF                push -1
0x00407FFF: E8 BC AD 27 00       call 0x682dc0
0x00408004: C3                   ret
0x00408005: CC                   int3
0x00408006: CC                   int3
0x00408007: CC                   int3
0x00408008: CC                   int3
0x00408009: CC                   int3
0x0040800A: CC                   int3
0x0040800B: CC                   int3
0x0040800C: CC                   int3
0x0040800D: CC                   int3
0x0040800E: CC                   int3
0x0040800F: CC                   int3
0x00408010: 8B 0D 88 DF C5 00    mov ecx, dword ptr [0xc5df88]
0x00408016: 85 C9                test ecx, ecx
0x00408018: 75 03                jne 0x40801d
0x0040801A: 33 C0                xor eax, eax
0x0040801C: C3                   ret
0x0040801D: 6A FF                push -1
0x0040801F: E8 FC AD 27 00       call 0x682e20
0x00408024: C3                   ret
0x00408025: CC                   int3
0x00408026: CC                   int3
0x00408027: CC                   int3
0x00408028: CC                   int3
0x00408029: CC                   int3
0x0040802A: CC                   int3
0x0040802B: CC                   int3
0x0040802C: CC                   int3
0x0040802D: CC                   int3
0x0040802E: CC                   int3
0x0040802F: CC                   int3
0x00408030: 55                   push ebp
0x00408031: 8B EC                mov ebp, esp
0x00408033: 8B 0D 88 DF C5 00    mov ecx, dword ptr [0xc5df88]
0x00408039: 8B 01                mov eax, dword ptr [ecx]
0x0040803B: 8B 55 08             mov edx, dword ptr [ebp + 8]
0x0040803E: 8B 80 A0 00 00 00    mov eax, dword ptr [eax + 0xa0]
0x00408044: 52                   push edx
0x00408045: FF D0                call eax
0x00408047: 5D                   pop ebp
0x00408048: C3                   ret
0x00408049: CC                   int3
0x0040804A: CC                   int3
0x0040804B: CC                   int3
0x0040804C: CC                   int3
0x0040804D: CC                   int3
0x0040804E: CC                   int3
0x0040804F: CC                   int3
0x00408050: 55                   push ebp
0x00408051: 8B EC                mov ebp, esp
0x00408053: 8B 0D 88 DF C5 00    mov ecx, dword ptr [0xc5df88]
0x00408059: 8B 01                mov eax, dword ptr [ecx]
0x0040805B: 8B 55 08             mov edx, dword ptr [ebp + 8]
0x0040805E: 8B 80 A4 00 00 00    mov eax, dword ptr [eax + 0xa4]
0x00408064: 52                   push edx
0x00408065: FF D0                call eax
0x00408067: 5D                   pop ebp
0x00408068: C3                   ret
0x00408069: CC                   int3
0x0040806A: CC                   int3
0x0040806B: CC                   int3
0x0040806C: CC                   int3
0x0040806D: CC                   int3
0x0040806E: CC                   int3
0x0040806F: CC                   int3
0x00408070: 55                   push ebp
0x00408071: 8B EC                mov ebp, esp
0x00408073: A1 88 DF C5 00       mov eax, dword ptr [0xc5df88]
0x00408078: D9 80 70 0F 00 00    fld dword ptr [eax + 0xf70]
0x0040807E: 8B 4D 08             mov ecx, dword ptr [ebp + 8]
0x00408081: 8B 45 0C             mov eax, dword ptr [ebp + 0xc]
0x00408084: D9 19                fstp dword ptr [ecx]
0x00408086: 8B 15 88 DF C5 00    mov edx, dword ptr [0xc5df88]
0x0040808C: D9 82 74 0F 00 00    fld dword ptr [edx + 0xf74]
0x00408092: 8B 55 10             mov edx, dword ptr [ebp + 0x10]
0x00408095: D9 18                fstp dword ptr [eax]
0x00408097: 8B 0D 88 DF C5 00    mov ecx, dword ptr [0xc5df88]
0x0040809D: D9 81 78 0F 00 00    fld dword ptr [ecx + 0xf78]
0x004080A3: 8B 4D 14             mov ecx, dword ptr [ebp + 0x14]
0x004080A6: D9 1A                fstp dword ptr [edx]
0x004080A8: A1 88 DF C5 00       mov eax, dword ptr [0xc5df88]
0x004080AD: D9 80 7C 0F 00 00    fld dword ptr [eax + 0xf7c]
0x004080B3: 8B 45 18             mov eax, dword ptr [ebp + 0x18]
0x004080B6: D9 19                fstp dword ptr [ecx]
0x004080B8: 8B 15 88 DF C5 00    mov edx, dword ptr [0xc5df88]
0x004080BE: D9 82 80 0F 00 00    fld dword ptr [edx + 0xf80]
0x004080C4: 8B 55 1C             mov edx, dword ptr [ebp + 0x1c]
0x004080C7: D9 18                fstp dword ptr [eax]
0x004080C9: 8B 0D 88 DF C5 00    mov ecx, dword ptr [0xc5df88]
0x004080CF: D9 81 84 0F 00 00    fld dword ptr [ecx + 0xf84]
0x004080D5: D9 1A                fstp dword ptr [edx]
0x004080D7: 5D                   pop ebp
0x004080D8: C3                   ret
0x004080D9: CC                   int3
0x004080DA: CC                   int3
0x004080DB: CC                   int3
0x004080DC: CC                   int3
0x004080DD: CC                   int3
0x004080DE: CC                   int3
0x004080DF: CC                   int3
0x004080E0: 55                   push ebp
0x004080E1: 8B EC                mov ebp, esp
0x004080E3: A1 88 DF C5 00       mov eax, dword ptr [0xc5df88]
0x004080E8: 8B 88 F8 1A 00 00    mov ecx, dword ptr [eax + 0x1af8]
0x004080EE: C1 E1 06             shl ecx, 6
0x004080F1: 8D 94 01 00 1B 00 00 lea edx, [ecx + eax + 0x1b00]
0x004080F8: 8B 4D 08             mov ecx, dword ptr [ebp + 8]
0x004080FB: 52                   push edx
0x004080FC: E8 7F FE FF FF       call 0x407f80
0x00408101: 5D                   pop ebp
0x00408102: C3                   ret
0x00408103: CC                   int3
0x00408104: CC                   int3
0x00408105: CC                   int3
0x00408106: CC                   int3
0x00408107: CC                   int3
0x00408108: CC                   int3
0x00408109: CC                   int3
0x0040810A: CC                   int3
0x0040810B: CC                   int3
0x0040810C: CC                   int3
0x0040810D: CC                   int3
0x0040810E: CC                   int3
0x0040810F: CC                   int3
0x00408110: 55                   push ebp
0x00408111: 8B EC                mov ebp, esp
0x00408113: 81 EC 00 01 00 00    sub esp, 0x100
0x00408119: D9 E8                fld1
0x0040811B: 56                   push esi
0x0040811C: D9 55 80             fst dword ptr [ebp - 0x80]
0x0040811F: 8B 35 88 DF C5 00    mov esi, dword ptr [0xc5df88]
0x00408125: D9 EE                fldz
0x00408127: D9 55 84             fst dword ptr [ebp - 0x7c]
0x0040812A: D9 55 88             fst dword ptr [ebp - 0x78]
0x0040812D: D9 55 8C             fst dword ptr [ebp - 0x74]
0x00408130: D9 55 90             fst dword ptr [ebp - 0x70]
0x00408133: D9 55 98             fst dword ptr [ebp - 0x68]
0x00408136: D9 55 9C             fst dword ptr [ebp - 0x64]
0x00408139: D9 55 A0             fst dword ptr [ebp - 0x60]
0x0040813C: D9 55 A4             fst dword ptr [ebp - 0x5c]
0x0040813F: D9 55 AC             fst dword ptr [ebp - 0x54]
0x00408142: D9 55 B0             fst dword ptr [ebp - 0x50]
0x00408145: D9 55 B4             fst dword ptr [ebp - 0x4c]
0x00408148: D9 55 B8             fst dword ptr [ebp - 0x48]
0x0040814B: D9 55 C4             fst dword ptr [ebp - 0x3c]
0x0040814E: D9 55 C8             fst dword ptr [ebp - 0x38]
0x00408151: D9 55 CC             fst dword ptr [ebp - 0x34]
0x00408154: D9 55 D0             fst dword ptr [ebp - 0x30]
0x00408157: D9 55 D8             fst dword ptr [ebp - 0x28]
0x0040815A: D9 55 DC             fst dword ptr [ebp - 0x24]
0x0040815D: D9 55 E0             fst dword ptr [ebp - 0x20]
0x00408160: D9 55 E4             fst dword ptr [ebp - 0x1c]
0x00408163: D9 55 EC             fst dword ptr [ebp - 0x14]
0x00408166: D9 55 F0             fst dword ptr [ebp - 0x10]
0x00408169: D9 55 F4             fst dword ptr [ebp - 0xc]
0x0040816C: D9 5D F8             fstp dword ptr [ebp - 8]
0x0040816F: D9 55 94             fst dword ptr [ebp - 0x6c]
0x00408172: D9 55 A8             fst dword ptr [ebp - 0x58]
0x00408175: D9 55 BC             fst dword ptr [ebp - 0x44]
0x00408178: D9 55 C0             fst dword ptr [ebp - 0x40]
0x0040817B: D9 55 D4             fst dword ptr [ebp - 0x2c]
0x0040817E: D9 55 E8             fst dword ptr [ebp - 0x18]
0x00408181: D9 5D FC             fstp dword ptr [ebp - 4]
0x00408184: 8B 86 F8 1A 00 00    mov eax, dword ptr [esi + 0x1af8]
0x0040818A: C1 E0 06             shl eax, 6
0x0040818D: 8D 8C 30 00 1B 00 00 lea ecx, [eax + esi + 0x1b00]
0x00408194: 51                   push ecx
0x00408195: 8D 4D 80             lea ecx, [ebp - 0x80]
0x00408198: E8 E3 FD FF FF       call 0x407f80
0x0040819D: 8D 96 C8 0F 00 00    lea edx, [esi + 0xfc8]
0x004081A3: 52                   push edx
0x004081A4: 8D 4D C0             lea ecx, [ebp - 0x40]
0x004081A7: E8 D4 FD FF FF       call 0x407f80
0x004081AC: 8B CE                mov ecx, esi
0x004081AE: E8 6D AB 27 00       call 0x682d20
0x004081B3: 85 C0                test eax, eax
0x004081B5: 5E                   pop esi
0x004081B6: 75 26                jne 0x4081de
0x004081B8: D9 45 E0             fld dword ptr [ebp - 0x20]
0x004081BB: D9 05 F4 2E 9E 00    fld dword ptr [0x9e2ef4]
0x004081C1: DC C9                fmul st(1), st(0)
0x004081C3: D9 C9                fxch st(1)
0x004081C5: D9 5D E0             fstp dword ptr [ebp - 0x20]
0x004081C8: D9 45 E4             fld dword ptr [ebp - 0x1c]
0x004081CB: D8 C9                fmul st(1)
0x004081CD: D9 5D E4             fstp dword ptr [ebp - 0x1c]
0x004081D0: D9 45 E8             fld dword ptr [ebp - 0x18]
0x004081D3: D8 C9                fmul st(1)
0x004081D5: D9 5D E8             fstp dword ptr [ebp - 0x18]
0x004081D8: D8 4D EC             fmul dword ptr [ebp - 0x14]
0x004081DB: D9 5D EC             fstp dword ptr [ebp - 0x14]
0x004081DE: 8D 85 40 FF FF FF    lea eax, [ebp - 0xc0]
0x004081E4: 50                   push eax
0x004081E5: 8D 4D C0             lea ecx, [ebp - 0x40]
0x004081E8: 51                   push ecx
0x004081E9: 8D 55 80             lea edx, [ebp - 0x80]
0x004081EC: 52                   push edx
0x004081ED: 8D 85 00 FF FF FF    lea eax, [ebp - 0x100]
0x004081F3: 50                   push eax
0x004081F4: E8 07 9D 0B 00       call 0x4c1f00
0x004081F9: 83 C4 0C             add esp, 0xc
0x004081FC: 8B C8                mov ecx, eax
0x004081FE: E8 CD A1 0B 00       call 0x4c23d0
0x00408203: 8B 4D 08             mov ecx, dword ptr [ebp + 8]
0x00408206: 50                   push eax
0x00408207: E8 74 FD FF FF       call 0x407f80
0x0040820C: 8B E5                mov esp, ebp
0x0040820E: 5D                   pop ebp
0x0040820F: C3                   ret
0x00408210: 55                   push ebp
0x00408211: 8B EC                mov ebp, esp
0x00408213: 8B 45 10             mov eax, dword ptr [ebp + 0x10]
0x00408216: 85 C0                test eax, eax
0x00408218: 74 1F                je 0x408239
0x0040821A: 8B 0D 88 DF C5 00    mov ecx, dword ptr [0xc5df88]
0x00408220: 8B 11                mov edx, dword ptr [ecx]
0x00408222: 8B 92 18 01 00 00    mov edx, dword ptr [edx + 0x118]
0x00408228: 56                   push esi
0x00408229: 8B 75 14             mov esi, dword ptr [ebp + 0x14]
0x0040822C: 56                   push esi
0x0040822D: 50                   push eax
0x0040822E: 8B 45 0C             mov eax, dword ptr [ebp + 0xc]
0x00408231: 50                   push eax
0x00408232: 8B 45 08             mov eax, dword ptr [ebp + 8]
0x00408235: 50                   push eax
0x00408236: FF D2                call edx
0x00408238: 5E                   pop esi
0x00408239: 5D                   pop ebp
0x0040823A: C3                   ret
0x0040823B: CC                   int3
0x0040823C: CC                   int3
0x0040823D: CC                   int3
0x0040823E: CC                   int3
0x0040823F: CC                   int3
0x00408240: 55                   push ebp
0x00408241: 8B EC                mov ebp, esp
0x00408243: 8B 45 0C             mov eax, dword ptr [ebp + 0xc]
0x00408246: 8B 4D 08             mov ecx, dword ptr [ebp + 8]
0x00408249: 50                   push eax
0x0040824A: 51                   push ecx
0x0040824B: 8B 0D 88 DF C5 00    mov ecx, dword ptr [0xc5df88]
0x00408251: E8 FA DC 27 00       call 0x685f50
0x00408256: 5D                   pop ebp
0x00408257: C3                   ret
0x00408258: CC                   int3
0x00408259: CC                   int3
0x0040825A: CC                   int3
0x0040825B: CC                   int3
0x0040825C: CC                   int3
0x0040825D: CC                   int3
0x0040825E: CC                   int3
0x0040825F: CC                   int3
0x00408260: D9 EE                fldz
0x00408262: D9 11                fst dword ptr [ecx]
0x00408264: D9 51 04             fst dword ptr [ecx + 4]
0x00408267: D9 59 08             fstp dword ptr [ecx + 8]
0x0040826A: C3                   ret
0x0040826B: CC                   int3
0x0040826C: CC                   int3
0x0040826D: CC                   int3
0x0040826E: CC                   int3
0x0040826F: CC                   int3
0x00408270: 55                   push ebp
0x00408271: 8B EC                mov ebp, esp
0x00408273: 83 7D 10 00          cmp dword ptr [ebp + 0x10], 0
0x00408277: 8B C1                mov eax, ecx
0x00408279: 8B 4D 08             mov ecx, dword ptr [ebp + 8]
0x0040827C: 89 48 04             mov dword ptr [eax + 4], ecx
0x0040827F: 0F 84 A7 00 00 00    je 0x40832c
0x00408285: D9 EE                fldz
0x00408287: 53                   push ebx
0x00408288: 8B 5D 0C             mov ebx, dword ptr [ebp + 0xc]
0x0040828B: 33 D2                xor edx, edx
0x0040828D: 83 FB 04             cmp ebx, 4
0x00408290: 56                   push esi
0x00408291: 89 18                mov dword ptr [eax], ebx
0x00408293: 7C 69                jl 0x4082fe
0x00408295: 57                   push edi
0x00408296: 8D 7B FC             lea edi, [ebx - 4]
0x00408299: C1 EF 02             shr edi, 2
0x0040829C: 33 C9                xor ecx, ecx
0x0040829E: 83 C7 01             add edi, 1
0x004082A1: 8D 14 BD 00 00 00 00 lea edx, [edi*4]
0x004082A8: 89 55 08             mov dword ptr [ebp + 8], edx
0x004082AB: 8B 50 04             mov edx, dword ptr [eax + 4]
0x004082AE: 03 D1                add edx, ecx
0x004082B0: 74 08                je 0x4082ba
0x004082B2: D9 12                fst dword ptr [edx]
0x004082B4: D9 52 04             fst dword ptr [edx + 4]
0x004082B7: D9 52 08             fst dword ptr [edx + 8]
0x004082BA: 8B 50 04             mov edx, dword ptr [eax + 4]
0x004082BD: 8D 54 11 0C          lea edx, [ecx + edx + 0xc]
0x004082C1: 85 D2                test edx, edx
0x004082C3: 74 08                je 0x4082cd
0x004082C5: D9 12                fst dword ptr [edx]
0x004082C7: D9 52 04             fst dword ptr [edx + 4]
0x004082CA: D9 52 08             fst dword ptr [edx + 8]
0x004082CD: 8B 50 04             mov edx, dword ptr [eax + 4]
0x004082D0: 8D 71 24             lea esi, [ecx + 0x24]
0x004082D3: 8D 54 16 F4          lea edx, [esi + edx - 0xc]
0x004082D7: 85 D2                test edx, edx
0x004082D9: 74 08                je 0x4082e3
0x004082DB: D9 12                fst dword ptr [edx]
0x004082DD: D9 52 04             fst dword ptr [edx + 4]
0x004082E0: D9 52 08             fst dword ptr [edx + 8]
0x004082E3: 8B 50 04             mov edx, dword ptr [eax + 4]
0x004082E6: 03 D6                add edx, esi
0x004082E8: 74 08                je 0x4082f2
0x004082EA: D9 12                fst dword ptr [edx]
0x004082EC: D9 52 04             fst dword ptr [edx + 4]
0x004082EF: D9 52 08             fst dword ptr [edx + 8]
0x004082F2: 83 C1 30             add ecx, 0x30
0x004082F5: 83 EF 01             sub edi, 1
0x004082F8: 75 B1                jne 0x4082ab
0x004082FA: 8B 55 08             mov edx, dword ptr [ebp + 8]
0x004082FD: 5F                   pop edi
0x004082FE: 3B D3                cmp edx, ebx
0x00408300: 73 22                jae 0x408324
0x00408302: 8D 0C 52             lea ecx, [edx + edx*2]
0x00408305: 03 C9                add ecx, ecx
0x00408307: 03 C9                add ecx, ecx
0x00408309: 2B DA                sub ebx, edx
0x0040830B: 8B F3                mov esi, ebx
0x0040830D: 8B 50 04             mov edx, dword ptr [eax + 4]
0x00408310: 03 D1                add edx, ecx
0x00408312: 74 08                je 0x40831c
0x00408314: D9 12                fst dword ptr [edx]
0x00408316: D9 52 04             fst dword ptr [edx + 4]
0x00408319: D9 52 08             fst dword ptr [edx + 8]
0x0040831C: 83 C1 0C             add ecx, 0xc
0x0040831F: 83 EE 01             sub esi, 1
0x00408322: 75 E9                jne 0x40830d
0x00408324: 5E                   pop esi
0x00408325: DD D8                fstp st(0)
0x00408327: 5B                   pop ebx
0x00408328: 5D                   pop ebp
0x00408329: C2 0C 00             ret 0xc
0x0040832C: C7 00 00 00 00 00    mov dword ptr [eax], 0
0x00408332: 5D                   pop ebp
0x00408333: C2 0C 00             ret 0xc
0x00408336: CC                   int3
0x00408337: CC                   int3
0x00408338: CC                   int3
0x00408339: CC                   int3
0x0040833A: CC                   int3
0x0040833B: CC                   int3
0x0040833C: CC                   int3
0x0040833D: CC                   int3
0x0040833E: CC                   int3
0x0040833F: CC                   int3
0x00408340: 55                   push ebp
0x00408341: 8B EC                mov ebp, esp
0x00408343: 53                   push ebx
0x00408344: 56                   push esi
0x00408345: 57                   push edi
0x00408346: 8B 7D 08             mov edi, dword ptr [ebp + 8]
0x00408349: 8B D9                mov ebx, ecx
0x0040834B: 8B 73 08             mov esi, dword ptr [ebx + 8]
0x0040834E: 89 3B                mov dword ptr [ebx], edi
0x00408350: 8D 3C 7F             lea edi, [edi + edi*2]
0x00408353: 6A 10                push 0x10
0x00408355: 03 FF                add edi, edi
0x00408357: 6A FE                push -2
0x00408359: 03 FF                add edi, edi
0x0040835B: 68 90 64 AB 00       push 0xab6490
0x00408360: 03 FF                add edi, edi
0x00408362: 57                   push edi
0x00408363: 56                   push esi
0x00408364: E8 77 62 36 00       call 0x76e5e0
0x00408369: 85 C0                test eax, eax
0x0040836B: 89 43 08             mov dword ptr [ebx + 8], eax
0x0040836E: 75 76                jne 0x4083e6
0x00408370: 50                   push eax
0x00408371: 6A FE                push -2
0x00408373: 68 90 64 AB 00       push 0xab6490
0x00408378: 57                   push edi
0x00408379: E8 C2 61 36 00       call 0x76e540
0x0040837E: 85 F6                test esi, esi
0x00408380: 89 43 08             mov dword ptr [ebx + 8], eax
0x00408383: 74 61                je 0x4083e6
0x00408385: 8B 43 04             mov eax, dword ptr [ebx + 4]
0x00408388: 8B 4D 08             mov ecx, dword ptr [ebp + 8]
0x0040838B: 3B C8                cmp ecx, eax
0x0040838D: 73 02                jae 0x408391
0x0040838F: 8B C1                mov eax, ecx
0x00408391: 85 C0                test eax, eax
0x00408393: 76 42                jbe 0x4083d7
0x00408395: 33 C9                xor ecx, ecx
0x00408397: 8B D0                mov edx, eax
0x00408399: 8D A4 24 00 00 00 00 lea esp, [esp]
0x004083A0: 8B 43 08             mov eax, dword ptr [ebx + 8]
0x004083A3: 03 C1                add eax, ecx
0x004083A5: 74 28                je 0x4083cf
0x004083A7: 8B 3C 31             mov edi, dword ptr [ecx + esi]
0x004083AA: 89 38                mov dword ptr [eax], edi
0x004083AC: 8B 7C 31 04          mov edi, dword ptr [ecx + esi + 4]
0x004083B0: 89 78 04             mov dword ptr [eax + 4], edi
0x004083B3: 8B 7C 31 08          mov edi, dword ptr [ecx + esi + 8]
0x004083B7: 89 78 08             mov dword ptr [eax + 8], edi
0x004083BA: 8B 7C 31 0C          mov edi, dword ptr [ecx + esi + 0xc]
0x004083BE: 89 78 0C             mov dword ptr [eax + 0xc], edi
0x004083C1: 8B 7C 31 10          mov edi, dword ptr [ecx + esi + 0x10]
0x004083C5: 89 78 10             mov dword ptr [eax + 0x10], edi
0x004083C8: 8B 7C 31 14          mov edi, dword ptr [ecx + esi + 0x14]
0x004083CC: 89 78 14             mov dword ptr [eax + 0x14], edi
0x004083CF: 83 C1 18             add ecx, 0x18
0x004083D2: 83 EA 01             sub edx, 1
0x004083D5: 75 C9                jne 0x4083a0
0x004083D7: 6A 00                push 0
0x004083D9: 6A FE                push -2
0x004083DB: 68 90 64 AB 00       push 0xab6490
0x004083E0: 56                   push esi
0x004083E1: E8 BA 61 36 00       call 0x76e5a0
0x004083E6: 5F                   pop edi
0x004083E7: 5E                   pop esi
0x004083E8: 5B                   pop ebx
0x004083E9: 5D                   pop ebp
0x004083EA: C2 04 00             ret 4
0x004083ED: CC                   int3
0x004083EE: CC                   int3
0x004083EF: CC                   int3
0x004083F0: 55                   push ebp
0x004083F1: 8B EC                mov ebp, esp
0x004083F3: 8B 45 08             mov eax, dword ptr [ebp + 8]
0x004083F6: 53                   push ebx
0x004083F7: 56                   push esi
0x004083F8: 57                   push edi
0x004083F9: 6A 10                push 0x10
0x004083FB: 6A FE                push -2
0x004083FD: 8B F1                mov esi, ecx
0x004083FF: 8B 7E 08             mov edi, dword ptr [esi + 8]
0x00408402: 68 00 65 AB 00       push 0xab6500
0x00408407: 8D 1C C5 00 00 00 00 lea ebx, [eax*8]
0x0040840E: 53                   push ebx
0x0040840F: 57                   push edi
0x00408410: 89 06                mov dword ptr [esi], eax
0x00408412: E8 C9 61 36 00       call 0x76e5e0
0x00408417: 85 C0                test eax, eax
0x00408419: 89 46 08             mov dword ptr [esi + 8], eax
0x0040841C: 75 65                jne 0x408483
0x0040841E: 50                   push eax
0x0040841F: 6A FE                push -2
0x00408421: 68 00 65 AB 00       push 0xab6500
0x00408426: 53                   push ebx
0x00408427: E8 14 61 36 00       call 0x76e540
0x0040842C: 85 FF                test edi, edi
0x0040842E: 89 46 08             mov dword ptr [esi + 8], eax
0x00408431: 74 50                je 0x408483
0x00408433: 8B 46 04             mov eax, dword ptr [esi + 4]
0x00408436: 8B 5D 08             mov ebx, dword ptr [ebp + 8]
0x00408439: 3B D8                cmp ebx, eax
0x0040843B: 73 05                jae 0x408442
0x0040843D: 89 5D 08             mov dword ptr [ebp + 8], ebx
0x00408440: EB 05                jmp 0x408447
0x00408442: 8B D8                mov ebx, eax
0x00408444: 89 45 08             mov dword ptr [ebp + 8], eax
0x00408447: 33 D2                xor edx, edx
0x00408449: 85 DB                test ebx, ebx
0x0040844B: 76 27                jbe 0x408474
0x0040844D: 8D 49 00             lea ecx, [ecx]
0x00408450: 8B 46 08             mov eax, dword ptr [esi + 8]
0x00408453: 8D 0C D5 00 00 00 00 lea ecx, [edx*8]
0x0040845A: 03 C1                add eax, ecx
0x0040845C: 74 0F                je 0x40846d
0x0040845E: 8B 1C 39             mov ebx, dword ptr [ecx + edi]
0x00408461: 89 18                mov dword ptr [eax], ebx
0x00408463: 8B 4C 39 04          mov ecx, dword ptr [ecx + edi + 4]
0x00408467: 8B 5D 08             mov ebx, dword ptr [ebp + 8]
0x0040846A: 89 48 04             mov dword ptr [eax + 4], ecx
0x0040846D: 83 C2 01             add edx, 1
0x00408470: 3B D3                cmp edx, ebx
0x00408472: 72 DC                jb 0x408450
0x00408474: 6A 00                push 0
0x00408476: 6A FE                push -2
0x00408478: 68 00 65 AB 00       push 0xab6500
0x0040847D: 57                   push edi
0x0040847E: E8 1D 61 36 00       call 0x76e5a0
0x00408483: 5F                   pop edi
0x00408484: 5E                   pop esi
0x00408485: 5B                   pop ebx
0x00408486: 5D                   pop ebp
0x00408487: C2 04 00             ret 4
0x0040848A: CC                   int3
0x0040848B: CC                   int3
0x0040848C: CC                   int3
0x0040848D: CC                   int3
0x0040848E: CC                   int3
0x0040848F: CC                   int3
0x00408490: 55                   push ebp
0x00408491: 8B EC                mov ebp, esp
0x00408493: 8B 45 08             mov eax, dword ptr [ebp + 8]
0x00408496: 53                   push ebx
0x00408497: 56                   push esi
0x00408498: 57                   push edi
0x00408499: 6A 10                push 0x10
0x0040849B: 6A FE                push -2
0x0040849D: 8B F1                mov esi, ecx
0x0040849F: 8B 5E 08             mov ebx, dword ptr [esi + 8]
0x004084A2: 68 54 65 AB 00       push 0xab6554
0x004084A7: 8D 3C 85 00 00 00 00 lea edi, [eax*4]
0x004084AE: 57                   push edi
0x004084AF: 53                   push ebx
0x004084B0: 89 06                mov dword ptr [esi], eax
0x004084B2: E8 29 61 36 00       call 0x76e5e0
0x004084B7: 85 C0                test eax, eax
0x004084B9: 89 46 08             mov dword ptr [esi + 8], eax
0x004084BC: 75 5B                jne 0x408519
0x004084BE: 50                   push eax
0x004084BF: 6A FE                push -2
0x004084C1: 68 54 65 AB 00       push 0xab6554
0x004084C6: 57                   push edi
0x004084C7: E8 74 60 36 00       call 0x76e540
0x004084CC: 85 DB                test ebx, ebx
0x004084CE: 89 46 08             mov dword ptr [esi + 8], eax
0x004084D1: 74 46                je 0x408519
0x004084D3: 8B 46 04             mov eax, dword ptr [esi + 4]
0x004084D6: 8B 7D 08             mov edi, dword ptr [ebp + 8]
0x004084D9: 3B F8                cmp edi, eax
0x004084DB: 72 02                jb 0x4084df
0x004084DD: 8B F8                mov edi, eax
0x004084DF: 33 D2                xor edx, edx
0x004084E1: 85 FF                test edi, edi
0x004084E3: 76 25                jbe 0x40850a
0x004084E5: EB 09                jmp 0x4084f0
0x004084E7: 8D A4 24 00 00 00 00 lea esp, [esp]
0x004084EE: 8B FF                mov edi, edi
0x004084F0: 8B 46 08             mov eax, dword ptr [esi + 8]
0x004084F3: 8D 0C 95 00 00 00 00 lea ecx, [edx*4]
0x004084FA: 03 C1                add eax, ecx
0x004084FC: 74 05                je 0x408503
0x004084FE: 8B 0C 19             mov ecx, dword ptr [ecx + ebx]
0x00408501: 89 08                mov dword ptr [eax], ecx
0x00408503: 83 C2 01             add edx, 1
0x00408506: 3B D7                cmp edx, edi
0x00408508: 72 E6                jb 0x4084f0
0x0040850A: 6A 00                push 0
0x0040850C: 6A FE                push -2
0x0040850E: 68 54 65 AB 00       push 0xab6554
0x00408513: 53                   push ebx
0x00408514: E8 87 60 36 00       call 0x76e5a0
0x00408519: 5F                   pop edi
0x0040851A: 5E                   pop esi
0x0040851B: 5B                   pop ebx
0x0040851C: 5D                   pop ebp
0x0040851D: C2 04 00             ret 4
0x00408520: 55                   push ebp
0x00408521: 8B EC                mov ebp, esp
0x00408523: 83 EC 18             sub esp, 0x18
0x00408526: 57                   push edi
0x00408527: 8B F8                mov edi, eax
0x00408529: 2B 05 70 FE B2 00    sub eax, dword ptr [0xb2fe70]
0x0040852F: 78 68                js 0x408599
0x00408531: 56                   push esi
0x00408532: 33 F6                xor esi, esi
0x00408534: 68 07 04 00 00       push 0x407
0x00408539: 8D 4D E8             lea ecx, [ebp - 0x18]
0x0040853C: C7 45 E8 24 0E 9E 00 mov dword ptr [ebp - 0x18], 0x9e0e24
0x00408543: 89 75 EC             mov dword ptr [ebp - 0x14], esi
0x00408546: 89 75 F0             mov dword ptr [ebp - 0x10], esi
0x00408549: 89 75 F4             mov dword ptr [ebp - 0xc], esi
0x0040854C: 89 75 F8             mov dword ptr [ebp - 8], esi
0x0040854F: C7 45 FC FF FF FF FF mov dword ptr [ebp - 4], 0xffffffff
0x00408556: E8 45 2B 07 00       call 0x47b0a0
0x0040855B: 8D 4D E8             lea ecx, [ebp - 0x18]
0x0040855E: 51                   push ecx
0x0040855F: 89 75 FC             mov dword ptr [ebp - 4], esi
0x00408562: E8 E9 85 2A 00       call 0x6b0b50
0x00408567: 83 C4 04             add esp, 4
0x0040856A: 81 C7 30 75 00 00    add edi, 0x7530
0x00408570: 83 7D F4 FF          cmp dword ptr [ebp - 0xc], -1
0x00408574: 89 3D 70 FE B2 00    mov dword ptr [0xb2fe70], edi
0x0040857A: C7 45 E8 24 0E 9E 00 mov dword ptr [ebp - 0x18], 0x9e0e24
0x00408581: 5E                   pop esi
0x00408582: 74 15                je 0x408599
0x00408584: 8D 55 F4             lea edx, [ebp - 0xc]
0x00408587: 52                   push edx
0x00408588: 8D 45 F0             lea eax, [ebp - 0x10]
0x0040858B: 50                   push eax
0x0040858C: 8D 4D EC             lea ecx, [ebp - 0x14]
0x0040858F: 51                   push ecx
0x00408590: 8D 4D E8             lea ecx, [ebp - 0x18]
0x00408593: FF 15 28 0E 9E 00    call dword ptr [0x9e0e28]
0x00408599: 5F                   pop edi
0x0040859A: 8B E5                mov esp, ebp
0x0040859C: 5D                   pop ebp
0x0040859D: C3                   ret
0x0040859E: CC                   int3
0x0040859F: CC                   int3
0x004085A0: 55                   push ebp
0x004085A1: 8B EC                mov ebp, esp
0x004085A3: 51                   push ecx
0x004085A4: 83 3D A8 FE B2 00 00 cmp dword ptr [0xb2fea8], 0
0x004085AB: 75 06                jne 0x4085b3
0x004085AD: 32 C0                xor al, al
0x004085AF: 8B E5                mov esp, ebp
0x004085B1: 5D                   pop ebp
0x004085B2: C3                   ret
0x004085B3: F6 05 20 07 B3 00 01 test byte ptr [0xb30720], 1
0x004085BA: 75 53                jne 0x40860f
0x004085BC: D9 EE                fldz
0x004085BE: 83 0D 20 07 B3 00 01 or dword ptr [0xb30720], 1
0x004085C5: D9 15 F0 06 B3 00    fst dword ptr [0xb306f0]
0x004085CB: D9 15 F4 06 B3 00    fst dword ptr [0xb306f4]
0x004085D1: D9 15 F8 06 B3 00    fst dword ptr [0xb306f8]
0x004085D7: D9 E8                fld1
0x004085D9: D9 15 FC 06 B3 00    fst dword ptr [0xb306fc]
0x004085DF: D9 15 0C 07 B3 00    fst dword ptr [0xb3070c]
0x004085E5: D9 15 14 07 B3 00    fst dword ptr [0xb30714]
0x004085EB: D9 1D 18 07 B3 00    fstp dword ptr [0xb30718]
0x004085F1: D9 15 00 07 B3 00    fst dword ptr [0xb30700]
0x004085F7: D9 15 04 07 B3 00    fst dword ptr [0xb30704]
0x004085FD: D9 15 08 07 B3 00    fst dword ptr [0xb30708]
0x00408603: D9 15 10 07 B3 00    fst dword ptr [0xb30710]
0x00408609: D9 1D 1C 07 B3 00    fstp dword ptr [0xb3071c]
0x0040860F: 6A 00                push 0
0x00408611: 6A 00                push 0
0x00408613: 6A 08                push 8
0x00408615: 68 00 64 AB 00       push 0xab6400
0x0040861A: 6A 00                push 0
0x0040861C: 6A 00                push 0
0x0040861E: B0 FF                mov al, 0xff
0x00408620: 6A 00                push 0
0x00408622: 88 45 FC             mov byte ptr [ebp - 4], al
0x00408625: 88 45 FD             mov byte ptr [ebp - 3], al
0x00408628: 88 45 FE             mov byte ptr [ebp - 2], al
0x0040862B: 88 45 FF             mov byte ptr [ebp - 1], al
0x0040862E: 8D 45 FC             lea eax, [ebp - 4]
0x00408631: 50                   push eax
0x00408632: 6A 00                push 0
0x00408634: 6A 00                push 0
0x00408636: 6A 0C                push 0xc
0x00408638: 68 F0 06 B3 00       push 0xb306f0
0x0040863D: 6A 04                push 4
0x0040863F: E8 7C A2 27 00       call 0x6828c0
0x00408644: 8B 0D A8 FE B2 00    mov ecx, dword ptr [0xb2fea8]
0x0040864A: 6A 00                push 0
0x0040864C: 6A 01                push 1
0x0040864E: 51                   push ecx
0x0040864F: E8 5C E6 0A 00       call 0x4b6cb0
0x00408654: 8B 0D 88 DF C5 00    mov ecx, dword ptr [0xc5df88]
0x0040865A: 83 C4 40             add esp, 0x40
0x0040865D: 50                   push eax
0x0040865E: 6A 15                push 0x15
0x00408660: E8 EB D8 27 00       call 0x685f50
0x00408665: 68 C0 63 AB 00       push 0xab63c0
0x0040866A: 6A 04                push 4
0x0040866C: 6A 04                push 4
0x0040866E: E8 CD 9C 27 00       call 0x682340
0x00408673: E8 F8 64 1E 00       call 0x5eeb70
0x00408678: 8B 15 EC FE B2 00    mov edx, dword ptr [0xb2feec]
0x0040867E: 52                   push edx
0x0040867F: E8 BC 47 2B 00       call 0x6bce40
0x00408684: 83 C4 10             add esp, 0x10
0x00408687: B0 01                mov al, 1
0x00408689: 8B E5                mov esp, ebp
0x0040868B: 5D                   pop ebp
0x0040868C: C3                   ret
0x0040868D: CC                   int3
0x0040868E: CC                   int3
0x0040868F: CC                   int3
0x00408690: 55                   push ebp
0x00408691: 8B EC                mov ebp, esp
0x00408693: 83 EC 0C             sub esp, 0xc
0x00408696: D9 01                fld dword ptr [ecx]
0x00408698: 8B 15 C8 02 B3 00    mov edx, dword ptr [0xb302c8]
0x0040869E: D9 05 FC 2E 9E 00    fld dword ptr [0x9e2efc]
0x004086A4: 56                   push esi
0x004086A5: DC E9                fsub st(1), st(0)
0x004086A7: D9 C9                fxch st(1)
0x004086A9: D9 5D F4             fstp dword ptr [ebp - 0xc]
0x004086AC: 8B 75 F4             mov esi, dword ptr [ebp - 0xc]
0x004086AF: D9 41 04             fld dword ptr [ecx + 4]
0x004086B2: 89 32                mov dword ptr [edx], esi
0x004086B4: D9 05 F8 2E 9E 00    fld dword ptr [0x9e2ef8]
0x004086BA: DC E9                fsub st(1), st(0)
0x004086BC: D9 C9                fxch st(1)
0x004086BE: D9 5D F8             fstp dword ptr [ebp - 8]
0x004086C1: 8B 75 F8             mov esi, dword ptr [ebp - 8]
0x004086C4: 89 72 04             mov dword ptr [edx + 4], esi
0x004086C7: D9 EE                fldz
0x004086C9: D9 55 FC             fst dword ptr [ebp - 4]
0x004086CC: 8B 75 FC             mov esi, dword ptr [ebp - 4]
0x004086CF: D9 05 C4 2E 9E 00    fld dword ptr [0x9e2ec4]
0x004086D5: 89 72 08             mov dword ptr [edx + 8], esi
0x004086D8: D9 55 F8             fst dword ptr [ebp - 8]
0x004086DB: 8B 35 C8 02 B3 00    mov esi, dword ptr [0xb302c8]
0x004086E1: D9 55 FC             fst dword ptr [ebp - 4]
0x004086E4: 8B 55 F8             mov edx, dword ptr [ebp - 8]
0x004086E7: 89 56 0C             mov dword ptr [esi + 0xc], edx
0x004086EA: 8B 35 C8 02 B3 00    mov esi, dword ptr [0xb302c8]
0x004086F0: 8B 55 FC             mov edx, dword ptr [ebp - 4]
0x004086F3: 89 56 10             mov dword ptr [esi + 0x10], edx
0x004086F6: 8B 15 C8 02 B3 00    mov edx, dword ptr [0xb302c8]
0x004086FC: 8B 35 FC 63 AB 00    mov esi, dword ptr [0xab63fc]
0x00408702: 89 72 14             mov dword ptr [edx + 0x14], esi
0x00408705: D9 01                fld dword ptr [ecx]
0x00408707: 8B 15 C8 02 B3 00    mov edx, dword ptr [0xb302c8]
0x0040870D: D8 C4                fadd st(4)
0x0040870F: 83 C2 18             add edx, 0x18
0x00408712: D9 5D F4             fstp dword ptr [ebp - 0xc]
0x00408715: 8B 75 F4             mov esi, dword ptr [ebp - 0xc]
0x00408718: D9 41 04             fld dword ptr [ecx + 4]
0x0040871B: 89 32                mov dword ptr [edx], esi
0x0040871D: D8 E3                fsub st(3)
0x0040871F: D9 5D F8             fstp dword ptr [ebp - 8]
0x00408722: 8B 75 F8             mov esi, dword ptr [ebp - 8]
0x00408725: 89 72 04             mov dword ptr [edx + 4], esi
0x00408728: D9 C9                fxch st(1)
0x0040872A: D9 55 FC             fst dword ptr [ebp - 4]
0x0040872D: 8B 75 FC             mov esi, dword ptr [ebp - 4]
0x00408730: D9 E8                fld1
0x00408732: 89 72 08             mov dword ptr [edx + 8], esi
0x00408735: 8B 35 C8 02 B3 00    mov esi, dword ptr [0xb302c8]
0x0040873B: D9 55 F8             fst dword ptr [ebp - 8]
0x0040873E: 8B 55 F8             mov edx, dword ptr [ebp - 8]
0x00408741: D9 CA                fxch st(2)
0x00408743: 89 56 24             mov dword ptr [esi + 0x24], edx
0x00408746: D9 55 FC             fst dword ptr [ebp - 4]
0x00408749: 8B 35 C8 02 B3 00    mov esi, dword ptr [0xb302c8]
0x0040874F: 8B 55 FC             mov edx, dword ptr [ebp - 4]
0x00408752: 89 56 28             mov dword ptr [esi + 0x28], edx
0x00408755: 8B 15 C8 02 B3 00    mov edx, dword ptr [0xb302c8]
0x0040875B: 8B 35 FC 63 AB 00    mov esi, dword ptr [0xab63fc]
0x00408761: 89 72 2C             mov dword ptr [edx + 0x2c], esi
0x00408764: D9 01                fld dword ptr [ecx]
0x00408766: 8B 15 C8 02 B3 00    mov edx, dword ptr [0xb302c8]
0x0040876C: D8 E5                fsub st(5)
0x0040876E: 83 C2 30             add edx, 0x30
0x00408771: D9 5D F4             fstp dword ptr [ebp - 0xc]
0x00408774: 8B 75 F4             mov esi, dword ptr [ebp - 0xc]
0x00408777: D9 41 04             fld dword ptr [ecx + 4]
0x0040877A: 89 32                mov dword ptr [edx], esi
0x0040877C: D8 C4                fadd st(4)
0x0040877E: D9 5D F8             fstp dword ptr [ebp - 8]
0x00408781: 8B 75 F8             mov esi, dword ptr [ebp - 8]
0x00408784: D9 C9                fxch st(1)
0x00408786: 89 72 04             mov dword ptr [edx + 4], esi
0x00408789: D9 55 FC             fst dword ptr [ebp - 4]
0x0040878C: 8B 75 FC             mov esi, dword ptr [ebp - 4]
0x0040878F: D9 C9                fxch st(1)
0x00408791: 89 72 08             mov dword ptr [edx + 8], esi
0x00408794: D9 55 F8             fst dword ptr [ebp - 8]
0x00408797: D9 C9                fxch st(1)
0x00408799: D9 55 FC             fst dword ptr [ebp - 4]
0x0040879C: 8B 35 C8 02 B3 00    mov esi, dword ptr [0xb302c8]
0x004087A2: 8B 55 F8             mov edx, dword ptr [ebp - 8]
0x004087A5: 89 56 3C             mov dword ptr [esi + 0x3c], edx
0x004087A8: 8B 35 C8 02 B3 00    mov esi, dword ptr [0xb302c8]
0x004087AE: 8B 55 FC             mov edx, dword ptr [ebp - 4]
0x004087B1: 89 56 40             mov dword ptr [esi + 0x40], edx
0x004087B4: 8B 15 C8 02 B3 00    mov edx, dword ptr [0xb302c8]
0x004087BA: 8B 35 FC 63 AB 00    mov esi, dword ptr [0xab63fc]
0x004087C0: 89 72 44             mov dword ptr [edx + 0x44], esi
0x004087C3: D9 01                fld dword ptr [ecx]
0x004087C5: D8 C5                fadd st(5)
0x004087C7: D9 5D F4             fstp dword ptr [ebp - 0xc]
0x004087CA: 8B 55 F4             mov edx, dword ptr [ebp - 0xc]
0x004087CD: D9 41 04             fld dword ptr [ecx + 4]
0x004087D0: 8B 0D C8 02 B3 00    mov ecx, dword ptr [0xb302c8]
0x004087D6: 89 51 48             mov dword ptr [ecx + 0x48], edx
0x004087D9: D8 C4                fadd st(4)
0x004087DB: 83 C1 48             add ecx, 0x48
0x004087DE: D9 5D F8             fstp dword ptr [ebp - 8]
0x004087E1: 8B 55 F8             mov edx, dword ptr [ebp - 8]
0x004087E4: 89 51 04             mov dword ptr [ecx + 4], edx
0x004087E7: D9 55 FC             fst dword ptr [ebp - 4]
0x004087EA: 8B 55 FC             mov edx, dword ptr [ebp - 4]
0x004087ED: 89 51 08             mov dword ptr [ecx + 8], edx
0x004087F0: D9 CA                fxch st(2)
0x004087F2: 8B 15 C8 02 B3 00    mov edx, dword ptr [0xb302c8]
0x004087F8: D9 5D F8             fstp dword ptr [ebp - 8]
0x004087FB: 8B 4D F8             mov ecx, dword ptr [ebp - 8]
0x004087FE: D9 C9                fxch st(1)
0x00408800: 89 4A 54             mov dword ptr [edx + 0x54], ecx
0x00408803: D9 55 FC             fst dword ptr [ebp - 4]
0x00408806: 8B 15 C8 02 B3 00    mov edx, dword ptr [0xb302c8]
0x0040880C: 8B 4D FC             mov ecx, dword ptr [ebp - 4]
0x0040880F: 89 4A 58             mov dword ptr [edx + 0x58], ecx
0x00408812: 8B 0D C8 02 B3 00    mov ecx, dword ptr [0xb302c8]
0x00408818: 8B 15 FC 63 AB 00    mov edx, dword ptr [0xab63fc]
0x0040881E: 89 51 5C             mov dword ptr [ecx + 0x5c], edx
0x00408821: D9 00                fld dword ptr [eax]
0x00408823: 8B 0D C8 02 B3 00    mov ecx, dword ptr [0xb302c8]
0x00408829: D8 E4                fsub st(4)
0x0040882B: 83 C1 60             add ecx, 0x60
0x0040882E: D9 5D F4             fstp dword ptr [ebp - 0xc]
0x00408831: 8B 55 F4             mov edx, dword ptr [ebp - 0xc]
0x00408834: D9 40 04             fld dword ptr [eax + 4]
0x00408837: 89 11                mov dword ptr [ecx], edx
0x00408839: D8 E3                fsub st(3)
0x0040883B: D9 5D F8             fstp dword ptr [ebp - 8]
0x0040883E: 8B 55 F8             mov edx, dword ptr [ebp - 8]
0x00408841: 89 51 04             mov dword ptr [ecx + 4], edx
0x00408844: D9 55 FC             fst dword ptr [ebp - 4]
0x00408847: 8B 55 FC             mov edx, dword ptr [ebp - 4]
0x0040884A: 89 51 08             mov dword ptr [ecx + 8], edx
0x0040884D: D9 55 F8             fst dword ptr [ebp - 8]
0x00408850: 8B 15 C8 02 B3 00    mov edx, dword ptr [0xb302c8]
0x00408856: D9 C9                fxch st(1)
0x00408858: 8B 4D F8             mov ecx, dword ptr [ebp - 8]
0x0040885B: D9 55 FC             fst dword ptr [ebp - 4]
0x0040885E: 89 4A 6C             mov dword ptr [edx + 0x6c], ecx
0x00408861: 8B 15 C8 02 B3 00    mov edx, dword ptr [0xb302c8]
0x00408867: 8B 4D FC             mov ecx, dword ptr [ebp - 4]
0x0040886A: 89 4A 70             mov dword ptr [edx + 0x70], ecx
0x0040886D: 8B 0D C8 02 B3 00    mov ecx, dword ptr [0xb302c8]
0x00408873: 8B 15 FC 63 AB 00    mov edx, dword ptr [0xab63fc]
0x00408879: 89 51 74             mov dword ptr [ecx + 0x74], edx
0x0040887C: D9 00                fld dword ptr [eax]
0x0040887E: 8B 0D C8 02 B3 00    mov ecx, dword ptr [0xb302c8]
0x00408884: D8 C4                fadd st(4)
0x00408886: 83 C1 78             add ecx, 0x78
0x00408889: D9 5D F4             fstp dword ptr [ebp - 0xc]
0x0040888C: 8B 55 F4             mov edx, dword ptr [ebp - 0xc]
0x0040888F: D9 40 04             fld dword ptr [eax + 4]
0x00408892: 89 11                mov dword ptr [ecx], edx
0x00408894: D8 E3                fsub st(3)
0x00408896: D9 5D F8             fstp dword ptr [ebp - 8]
0x00408899: 8B 55 F8             mov edx, dword ptr [ebp - 8]
0x0040889C: D9 C9                fxch st(1)
0x0040889E: 89 51 04             mov dword ptr [ecx + 4], edx
0x004088A1: D9 55 FC             fst dword ptr [ebp - 4]
0x004088A4: 8B 55 FC             mov edx, dword ptr [ebp - 4]
0x004088A7: 89 51 08             mov dword ptr [ecx + 8], edx
0x004088AA: D9 C9                fxch st(1)
0x004088AC: 8B 15 C8 02 B3 00    mov edx, dword ptr [0xb302c8]
0x004088B2: D9 55 F8             fst dword ptr [ebp - 8]
0x004088B5: 8B 4D F8             mov ecx, dword ptr [ebp - 8]
0x004088B8: D9 55 FC             fst dword ptr [ebp - 4]
0x004088BB: 89 8A 84 00 00 00    mov dword ptr [edx + 0x84], ecx
0x004088C1: 8B 15 C8 02 B3 00    mov edx, dword ptr [0xb302c8]
0x004088C7: 8B 4D FC             mov ecx, dword ptr [ebp - 4]
0x004088CA: 89 8A 88 00 00 00    mov dword ptr [edx + 0x88], ecx
0x004088D0: 8B 0D C8 02 B3 00    mov ecx, dword ptr [0xb302c8]
0x004088D6: 8B 15 FC 63 AB 00    mov edx, dword ptr [0xab63fc]
0x004088DC: 89 91 8C 00 00 00    mov dword ptr [ecx + 0x8c], edx
0x004088E2: D9 00                fld dword ptr [eax]
0x004088E4: 8B 0D C8 02 B3 00    mov ecx, dword ptr [0xb302c8]
0x004088EA: D8 E4                fsub st(4)
0x004088EC: 81 C1 90 00 00 00    add ecx, 0x90
0x004088F2: 5E                   pop esi
0x004088F3: D9 5D F4             fstp dword ptr [ebp - 0xc]
0x004088F6: 8B 55 F4             mov edx, dword ptr [ebp - 0xc]
0x004088F9: D9 40 04             fld dword ptr [eax + 4]
0x004088FC: 89 11                mov dword ptr [ecx], edx
0x004088FE: D8 C3                fadd st(3)
0x00408900: D9 5D F8             fstp dword ptr [ebp - 8]
0x00408903: 8B 55 F8             mov edx, dword ptr [ebp - 8]
0x00408906: 89 51 04             mov dword ptr [ecx + 4], edx
0x00408909: D9 C9                fxch st(1)
0x0040890B: D9 55 FC             fst dword ptr [ebp - 4]
0x0040890E: 8B 55 FC             mov edx, dword ptr [ebp - 4]
0x00408911: 89 51 08             mov dword ptr [ecx + 8], edx
0x00408914: D9 55 F8             fst dword ptr [ebp - 8]
0x00408917: 8B 15 C8 02 B3 00    mov edx, dword ptr [0xb302c8]
0x0040891D: D9 55 FC             fst dword ptr [ebp - 4]
0x00408920: 8B 4D F8             mov ecx, dword ptr [ebp - 8]
0x00408923: 89 8A 9C 00 00 00    mov dword ptr [edx + 0x9c], ecx
0x00408929: 8B 15 C8 02 B3 00    mov edx, dword ptr [0xb302c8]
0x0040892F: 8B 4D FC             mov ecx, dword ptr [ebp - 4]
0x00408932: 89 8A A0 00 00 00    mov dword ptr [edx + 0xa0], ecx
0x00408938: 8B 0D C8 02 B3 00    mov ecx, dword ptr [0xb302c8]
0x0040893E: 8B 15 FC 63 AB 00    mov edx, dword ptr [0xab63fc]
0x00408944: 89 91 A4 00 00 00    mov dword ptr [ecx + 0xa4], edx
0x0040894A: D9 00                fld dword ptr [eax]
0x0040894C: DE C4                faddp st(4)
0x0040894E: D9 CB                fxch st(3)
0x00408950: D9 5D F4             fstp dword ptr [ebp - 0xc]
0x00408953: 8B 4D F4             mov ecx, dword ptr [ebp - 0xc]
0x00408956: D9 40 04             fld dword ptr [eax + 4]
0x00408959: A1 C8 02 B3 00       mov eax, dword ptr [0xb302c8]
0x0040895E: DE C2                faddp st(2)
0x00408960: 89 88 A8 00 00 00    mov dword ptr [eax + 0xa8], ecx
0x00408966: 05 A8 00 00 00       add eax, 0xa8
0x0040896B: D9 C9                fxch st(1)
0x0040896D: D9 5D F8             fstp dword ptr [ebp - 8]
0x00408970: 8B 55 F8             mov edx, dword ptr [ebp - 8]
0x00408973: 89 50 04             mov dword ptr [eax + 4], edx
0x00408976: D9 C9                fxch st(1)
0x00408978: D9 55 FC             fst dword ptr [ebp - 4]
0x0040897B: 8B 4D FC             mov ecx, dword ptr [ebp - 4]
0x0040897E: 89 48 08             mov dword ptr [eax + 8], ecx
0x00408981: D9 C9                fxch st(1)
0x00408983: A1 C8 02 B3 00       mov eax, dword ptr [0xb302c8]
0x00408988: D9 5D F8             fstp dword ptr [ebp - 8]
0x0040898B: 8B 55 F8             mov edx, dword ptr [ebp - 8]
0x0040898E: 89 90 B4 00 00 00    mov dword ptr [eax + 0xb4], edx
0x00408994: D9 5D FC             fstp dword ptr [ebp - 4]
0x00408997: 8B 4D FC             mov ecx, dword ptr [ebp - 4]
0x0040899A: 8B 15 C8 02 B3 00    mov edx, dword ptr [0xb302c8]
0x004089A0: 89 8A B8 00 00 00    mov dword ptr [edx + 0xb8], ecx
0x004089A6: A1 C8 02 B3 00       mov eax, dword ptr [0xb302c8]
0x004089AB: 8B 0D FC 63 AB 00    mov ecx, dword ptr [0xab63fc]
0x004089B1: 89 88 BC 00 00 00    mov dword ptr [eax + 0xbc], ecx
0x004089B7: 8B E5                mov esp, ebp
0x004089B9: 5D                   pop ebp
0x004089BA: C3                   ret
0x004089BB: CC                   int3
0x004089BC: CC                   int3
0x004089BD: CC                   int3
0x004089BE: CC                   int3
0x004089BF: CC                   int3
0x004089C0: 55                   push ebp
0x004089C1: 8B EC                mov ebp, esp
0x004089C3: 83 EC 20             sub esp, 0x20
0x004089C6: D9 EE                fldz
0x004089C8: 53                   push ebx
0x004089C9: D9 C0                fld st(0)
0x004089CB: 8B 5D 0C             mov ebx, dword ptr [ebp + 0xc]
0x004089CE: D9 55 FC             fst dword ptr [ebp - 4]
0x004089D1: 57                   push edi
0x004089D2: DB 45 0C             fild dword ptr [ebp + 0xc]
0x004089D5: 8B 3D C8 02 B3 00    mov edi, dword ptr [0xb302c8]
0x004089DB: D9 E8                fld1
0x004089DD: 83 C3 01             add ebx, 1
0x004089E0: D9 C0                fld st(0)
0x004089E2: 81 C7 C0 00 00 00    add edi, 0xc0
0x004089E8: 85 DB                test ebx, ebx
0x004089EA: DE F2                fdivrp st(2)
0x004089EC: D9 C9                fxch st(1)
0x004089EE: D9 5D F8             fstp dword ptr [ebp - 8]
0x004089F1: 0F 8E 9F 01 00 00    jle 0x408b96
0x004089F7: 56                   push esi
0x004089F8: 8D 77 18             lea esi, [edi + 0x18]
0x004089FB: EB 08                jmp 0x408a05
0x004089FD: D9 E8                fld1
0x004089FF: D9 EE                fldz
0x00408A01: D9 CA                fxch st(2)
0x00408A03: D9 C9                fxch st(1)
0x00408A05: D9 CA                fxch st(2)
0x00408A07: D8 D1                fcom st(1)
0x00408A09: DF E0                fnstsw ax
0x00408A0B: F6 C4 41             test ah, 0x41
0x00408A0E: 74 1C                je 0x408a2c
0x00408A10: D9 C9                fxch st(1)
0x00408A12: D8 D2                fcom st(2)
0x00408A14: DF E0                fnstsw ax
0x00408A16: F6 C4 05             test ah, 5
0x00408A19: 7A 19                jp 0x408a34
0x00408A1B: DD DA                fstp st(2)
0x00408A1D: D8 D1                fcom st(1)
0x00408A1F: DF E0                fnstsw ax
0x00408A21: F6 C4 41             test ah, 0x41
0x00408A24: 75 17                jne 0x408a3d
0x00408A26: DD D9                fstp st(1)
0x00408A28: D9 C0                fld st(0)
0x00408A2A: EB 0C                jmp 0x408a38
0x00408A2C: DD D9                fstp st(1)
0x00408A2E: DD D9                fstp st(1)
0x00408A30: D9 C0                fld st(0)
0x00408A32: EB 04                jmp 0x408a38
0x00408A34: DD D8                fstp st(0)
0x00408A36: D9 C9                fxch st(1)
0x00408A38: D9 55 FC             fst dword ptr [ebp - 4]
0x00408A3B: D9 C9                fxch st(1)
0x00408A3D: D9 55 E0             fst dword ptr [ebp - 0x20]
0x00408A40: 6A 01                push 1
0x00408A42: 8D 45 E0             lea eax, [ebp - 0x20]
0x00408A45: D9 55 E4             fst dword ptr [ebp - 0x1c]
0x00408A48: 50                   push eax
0x00408A49: D9 5D E8             fstp dword ptr [ebp - 0x18]
0x00408A4C: 51                   push ecx
0x00408A4D: 8B 4D 08             mov ecx, dword ptr [ebp + 8]
0x00408A50: D9 1C 24             fstp dword ptr [esp]
0x00408A53: E8 18 AE 0B 00       call 0x4c3870
0x00408A58: D9 05 20 64 AB 00    fld dword ptr [0xab6420]
0x00408A5E: D9 45 E0             fld dword ptr [ebp - 0x20]
0x00408A61: DC C1                fadd st(1), st(0)
0x00408A63: D9 C9                fxch st(1)
0x00408A65: D9 5D EC             fstp dword ptr [ebp - 0x14]
0x00408A68: 8B 4D EC             mov ecx, dword ptr [ebp - 0x14]
0x00408A6B: D9 05 24 64 AB 00    fld dword ptr [0xab6424]
0x00408A71: D9 45 E4             fld dword ptr [ebp - 0x1c]
0x00408A74: DC C1                fadd st(1), st(0)
0x00408A76: D9 C9                fxch st(1)
0x00408A78: D9 5D F0             fstp dword ptr [ebp - 0x10]
0x00408A7B: 8B 55 F0             mov edx, dword ptr [ebp - 0x10]
0x00408A7E: D9 05 28 64 AB 00    fld dword ptr [0xab6428]
0x00408A84: 89 0F                mov dword ptr [edi], ecx
0x00408A86: D9 45 E8             fld dword ptr [ebp - 0x18]
0x00408A89: 89 57 04             mov dword ptr [edi + 4], edx
0x00408A8C: DC C1                fadd st(1), st(0)
0x00408A8E: D9 C9                fxch st(1)
0x00408A90: D9 5D F4             fstp dword ptr [ebp - 0xc]
0x00408A93: 8B 45 F4             mov eax, dword ptr [ebp - 0xc]
0x00408A96: 89 47 08             mov dword ptr [edi + 8], eax
0x00408A99: 8B 0D 50 64 AB 00    mov ecx, dword ptr [0xab6450]
0x00408A9F: 89 4E F4             mov dword ptr [esi - 0xc], ecx
0x00408AA2: 8B 15 54 64 AB 00    mov edx, dword ptr [0xab6454]
0x00408AA8: 89 56 F8             mov dword ptr [esi - 8], edx
0x00408AAB: D9 05 2C 64 AB 00    fld dword ptr [0xab642c]
0x00408AB1: D8 C3                fadd st(3)
0x00408AB3: D9 5D EC             fstp dword ptr [ebp - 0x14]
0x00408AB6: 8B 45 EC             mov eax, dword ptr [ebp - 0x14]
0x00408AB9: D9 05 30 64 AB 00    fld dword ptr [0xab6430]
0x00408ABF: D8 C2                fadd st(2)
0x00408AC1: D9 5D F0             fstp dword ptr [ebp - 0x10]
0x00408AC4: 8B 4D F0             mov ecx, dword ptr [ebp - 0x10]
0x00408AC7: D9 05 34 64 AB 00    fld dword ptr [0xab6434]
0x00408ACD: 89 06                mov dword ptr [esi], eax
0x00408ACF: D8 C1                fadd st(1)
0x00408AD1: 89 4E 04             mov dword ptr [esi + 4], ecx
0x00408AD4: D9 5D F4             fstp dword ptr [ebp - 0xc]
0x00408AD7: 8B 55 F4             mov edx, dword ptr [ebp - 0xc]
0x00408ADA: 89 56 08             mov dword ptr [esi + 8], edx
0x00408ADD: A1 58 64 AB 00       mov eax, dword ptr [0xab6458]
0x00408AE2: 89 46 0C             mov dword ptr [esi + 0xc], eax
0x00408AE5: 8B 0D 5C 64 AB 00    mov ecx, dword ptr [0xab645c]
0x00408AEB: 89 4E 10             mov dword ptr [esi + 0x10], ecx
0x00408AEE: D9 05 38 64 AB 00    fld dword ptr [0xab6438]
0x00408AF4: D8 C3                fadd st(3)
0x00408AF6: D9 5D EC             fstp dword ptr [ebp - 0x14]
0x00408AF9: 8B 55 EC             mov edx, dword ptr [ebp - 0x14]
0x00408AFC: D9 05 3C 64 AB 00    fld dword ptr [0xab643c]
0x00408B02: D8 C2                fadd st(2)
0x00408B04: D9 5D F0             fstp dword ptr [ebp - 0x10]
0x00408B07: 8B 45 F0             mov eax, dword ptr [ebp - 0x10]
0x00408B0A: D9 05 40 64 AB 00    fld dword ptr [0xab6440]
0x00408B10: 89 56 18             mov dword ptr [esi + 0x18], edx
0x00408B13: D8 C1                fadd st(1)
0x00408B15: 89 46 1C             mov dword ptr [esi + 0x1c], eax
0x00408B18: D9 5D F4             fstp dword ptr [ebp - 0xc]
0x00408B1B: 8B 4D F4             mov ecx, dword ptr [ebp - 0xc]
0x00408B1E: 89 4E 20             mov dword ptr [esi + 0x20], ecx
0x00408B21: 8B 15 60 64 AB 00    mov edx, dword ptr [0xab6460]
0x00408B27: 89 56 24             mov dword ptr [esi + 0x24], edx
0x00408B2A: A1 64 64 AB 00       mov eax, dword ptr [0xab6464]
0x00408B2F: 89 46 28             mov dword ptr [esi + 0x28], eax
0x00408B32: D9 05 44 64 AB 00    fld dword ptr [0xab6444]
0x00408B38: DE C3                faddp st(3)
0x00408B3A: D9 CA                fxch st(2)
0x00408B3C: D9 5D EC             fstp dword ptr [ebp - 0x14]
0x00408B3F: D8 05 48 64 AB 00    fadd dword ptr [0xab6448]
0x00408B45: D9 5D F0             fstp dword ptr [ebp - 0x10]
0x00408B48: D8 05 4C 64 AB 00    fadd dword ptr [0xab644c]
0x00408B4E: D9 5D F4             fstp dword ptr [ebp - 0xc]
0x00408B51: 8B 4D EC             mov ecx, dword ptr [ebp - 0x14]
0x00408B54: D9 45 F8             fld dword ptr [ebp - 8]
0x00408B57: 8B 55 F0             mov edx, dword ptr [ebp - 0x10]
0x00408B5A: D8 45 FC             fadd dword ptr [ebp - 4]
0x00408B5D: 8B 45 F4             mov eax, dword ptr [ebp - 0xc]
0x00408B60: 89 4E 30             mov dword ptr [esi + 0x30], ecx
0x00408B63: 89 56 34             mov dword ptr [esi + 0x34], edx
0x00408B66: D9 55 FC             fst dword ptr [ebp - 4]
0x00408B69: 89 46 38             mov dword ptr [esi + 0x38], eax
0x00408B6C: 8B 0D 68 64 AB 00    mov ecx, dword ptr [0xab6468]
0x00408B72: 89 4E 3C             mov dword ptr [esi + 0x3c], ecx
0x00408B75: 8B 15 6C 64 AB 00    mov edx, dword ptr [0xab646c]
0x00408B7B: 89 56 40             mov dword ptr [esi + 0x40], edx
0x00408B7E: 83 C7 60             add edi, 0x60
0x00408B81: 83 C6 60             add esi, 0x60
0x00408B84: 83 EB 01             sub ebx, 1
0x00408B87: 0F 85 70 FE FF FF    jne 0x4089fd
0x00408B8D: 5E                   pop esi
0x00408B8E: DD D8                fstp st(0)
0x00408B90: 5F                   pop edi
0x00408B91: 5B                   pop ebx
0x00408B92: 8B E5                mov esp, ebp
0x00408B94: 5D                   pop ebp
0x00408B95: C3                   ret
0x00408B96: DD DA                fstp st(2)
0x00408B98: 5F                   pop edi
0x00408B99: DD D8                fstp st(0)
0x00408B9B: 5B                   pop ebx
0x00408B9C: DD D8                fstp st(0)
0x00408B9E: 8B E5                mov esp, ebp
0x00408BA0: 5D                   pop ebp
0x00408BA1: C3                   ret
0x00408BA2: CC                   int3
0x00408BA3: CC                   int3
0x00408BA4: CC                   int3
0x00408BA5: CC                   int3
0x00408BA6: CC                   int3
0x00408BA7: CC                   int3
0x00408BA8: CC                   int3
0x00408BA9: CC                   int3
0x00408BAA: CC                   int3
0x00408BAB: CC                   int3
0x00408BAC: CC                   int3
0x00408BAD: CC                   int3
0x00408BAE: CC                   int3
0x00408BAF: CC                   int3
0x00408BB0: 8B 15 D8 40 AD 00    mov edx, dword ptr [0xad40d8]
0x00408BB6: 33 C9                xor ecx, ecx
0x00408BB8: 85 D2                test edx, edx
0x00408BBA: 56                   push esi
0x00408BBB: 7E 28                jle 0x408be5
0x00408BBD: 8B 35 EC 40 AD 00    mov esi, dword ptr [0xad40ec]
0x00408BC3: 85 C9                test ecx, ecx
0x00408BC5: 7C 08                jl 0x408bcf
0x00408BC7: 3B CA                cmp ecx, edx
0x00408BC9: 7D 04                jge 0x408bcf
0x00408BCB: 8B C6                mov eax, esi
0x00408BCD: EB 02                jmp 0x408bd1
0x00408BCF: 33 C0                xor eax, eax
0x00408BD1: 39 58 04             cmp dword ptr [eax + 4], ebx
0x00408BD4: 75 05                jne 0x408bdb
0x00408BD6: 39 78 48             cmp dword ptr [eax + 0x48], edi
0x00408BD9: 74 0C                je 0x408be7
0x00408BDB: 83 C1 01             add ecx, 1
0x00408BDE: 83 C6 4C             add esi, 0x4c
0x00408BE1: 3B CA                cmp ecx, edx
0x00408BE3: 7C DE                jl 0x408bc3
0x00408BE5: 33 C0                xor eax, eax
0x00408BE7: 5E                   pop esi
0x00408BE8: C3                   ret
0x00408BE9: CC                   int3
0x00408BEA: CC                   int3
0x00408BEB: CC                   int3
0x00408BEC: CC                   int3
0x00408BED: CC                   int3
0x00408BEE: CC                   int3
0x00408BEF: CC                   int3
0x00408BF0: 55                   push ebp
0x00408BF1: 8B EC                mov ebp, esp
0x00408BF3: 8B 0D 88 DF C5 00    mov ecx, dword ptr [0xc5df88]
0x00408BF9: 83 B9 58 0F 00 00 00 cmp dword ptr [ecx + 0xf58], 0
0x00408C00: 74 23                je 0x408c25
0x00408C02: 8B 45 08             mov eax, dword ptr [ebp + 8]
0x00408C05: 56                   push esi
0x00408C06: 8B B1 F4 28 00 00    mov esi, dword ptr [ecx + 0x28f4]
0x00408C0C: 8D 14 40             lea edx, [eax + eax*2]
0x00408C0F: 57                   push edi
0x00408C10: 8B 7D 0C             mov edi, dword ptr [ebp + 0xc]
0x00408C13: 39 3C D6             cmp dword ptr [esi + edx*8], edi
0x00408C16: 8D 34 D6             lea esi, [esi + edx*8]
0x00408C19: 74 08                je 0x408c23
0x00408C1B: 50                   push eax
0x00408C1C: E8 4F CD 27 00       call 0x685970
0x00408C21: 89 3E                mov dword ptr [esi], edi
0x00408C23: 5F                   pop edi
0x00408C24: 5E                   pop esi
0x00408C25: 5D                   pop ebp
0x00408C26: C3                   ret
0x00408C27: CC                   int3
0x00408C28: CC                   int3
0x00408C29: CC                   int3
0x00408C2A: CC                   int3
0x00408C2B: CC                   int3
0x00408C2C: CC                   int3
0x00408C2D: CC                   int3
0x00408C2E: CC                   int3
0x00408C2F: CC                   int3
0x00408C30: 55                   push ebp
0x00408C31: 8B EC                mov ebp, esp
0x00408C33: 83 7D 08 07          cmp dword ptr [ebp + 8], 7
0x00408C37: 75 43                jne 0x408c7c
0x00408C39: 8B 0D 88 DF C5 00    mov ecx, dword ptr [0xc5df88]
0x00408C3F: 83 B9 58 0F 00 00 00 cmp dword ptr [ecx + 0xf58], 0
0x00408C46: 74 34                je 0x408c7c
0x00408C48: 8B 81 F4 28 00 00    mov eax, dword ptr [ecx + 0x28f4]
0x00408C4E: 8B 90 90 00 00 00    mov edx, dword ptr [eax + 0x90]
0x00408C54: 56                   push esi
0x00408C55: 8D B1 F4 28 00 00    lea esi, [ecx + 0x28f4]
0x00408C5B: 57                   push edi
0x00408C5C: 8B 3C 95 7C 8B AD 00 mov edi, dword ptr [edx*4 + 0xad8b7c]
0x00408C63: 39 B8 A8 00 00 00    cmp dword ptr [eax + 0xa8], edi
0x00408C69: 74 0F                je 0x408c7a
0x00408C6B: 6A 07                push 7
0x00408C6D: E8 FE CC 27 00       call 0x685970
0x00408C72: 8B 06                mov eax, dword ptr [esi]
0x00408C74: 89 B8 A8 00 00 00    mov dword ptr [eax + 0xa8], edi
0x00408C7A: 5F                   pop edi
0x00408C7B: 5E                   pop esi
0x00408C7C: 5D                   pop ebp
0x00408C7D: C3                   ret
0x00408C7E: CC                   int3
0x00408C7F: CC                   int3
0x00408C80: 55                   push ebp
0x00408C81: 8B EC                mov ebp, esp
0x00408C83: 8B 45 08             mov eax, dword ptr [ebp + 8]
0x00408C86: 3B 41 04             cmp eax, dword ptr [ecx + 4]
0x00408C89: 73 3C                jae 0x408cc7
0x00408C8B: 8B 51 08             mov edx, dword ptr [ecx + 8]
0x00408C8E: C1 E0 04             shl eax, 4
0x00408C91: 03 C2                add eax, edx
0x00408C93: 8B 55 0C             mov edx, dword ptr [ebp + 0xc]
0x00408C96: 3B 50 04             cmp edx, dword ptr [eax + 4]
0x00408C99: 73 2C                jae 0x408cc7
0x00408C9B: 8B 40 08             mov eax, dword ptr [eax + 8]
0x00408C9E: 8B 14 90             mov edx, dword ptr [eax + edx*4]
0x00408CA1: 8B 41 18             mov eax, dword ptr [ecx + 0x18]
0x00408CA4: 8B 0C D0             mov ecx, dword ptr [eax + edx*8]
0x00408CA7: 85 C9                test ecx, ecx
0x00408CA9: 8D 04 D0             lea eax, [eax + edx*8]
0x00408CAC: 7E 19                jle 0x408cc7
0x00408CAE: 83 78 04 00          cmp dword ptr [eax + 4], 0
0x00408CB2: 7E 13                jle 0x408cc7
0x00408CB4: 8B 55 10             mov edx, dword ptr [ebp + 0x10]
0x00408CB7: 89 0A                mov dword ptr [edx], ecx
0x00408CB9: 8B 40 04             mov eax, dword ptr [eax + 4]
0x00408CBC: 8B 4D 14             mov ecx, dword ptr [ebp + 0x14]
0x00408CBF: 89 01                mov dword ptr [ecx], eax
0x00408CC1: B0 01                mov al, 1
0x00408CC3: 5D                   pop ebp
0x00408CC4: C2 10 00             ret 0x10
0x00408CC7: 32 C0                xor al, al
0x00408CC9: 5D                   pop ebp
0x00408CCA: C2 10 00             ret 0x10
0x00408CCD: CC                   int3
0x00408CCE: CC                   int3
0x00408CCF: CC                   int3
0x00408CD0: 55                   push ebp
0x00408CD1: 8B EC                mov ebp, esp
0x00408CD3: 53                   push ebx
0x00408CD4: 8B 5D 0C             mov ebx, dword ptr [ebp + 0xc]
0x00408CD7: 57                   push edi
0x00408CD8: 8B F9                mov edi, ecx
0x00408CDA: 3B 5F 04             cmp ebx, dword ptr [edi + 4]
0x00408CDD: 73 11                jae 0x408cf0
0x00408CDF: 8B 4F 08             mov ecx, dword ptr [edi + 8]
0x00408CE2: 8B C3                mov eax, ebx
0x00408CE4: C1 E0 04             shl eax, 4
0x00408CE7: 8B 44 08 04          mov eax, dword ptr [eax + ecx + 4]
0x00408CEB: 89 45 0C             mov dword ptr [ebp + 0xc], eax
0x00408CEE: EB 0A                jmp 0x408cfa
0x00408CF0: C7 45 0C 00 00 00 00 mov dword ptr [ebp + 0xc], 0
0x00408CF7: 8B 45 0C             mov eax, dword ptr [ebp + 0xc]
0x00408CFA: 85 C0                test eax, eax
0x00408CFC: 75 09                jne 0x408d07
0x00408CFE: 5F                   pop edi
0x00408CFF: 83 C8 FF             or eax, 0xffffffff
0x00408D02: 5B                   pop ebx
0x00408D03: 5D                   pop ebp
0x00408D04: C2 0C 00             ret 0xc
0x00408D07: 56                   push esi
0x00408D08: 33 F6                xor esi, esi
0x00408D0A: 85 C0                test eax, eax
0x00408D0C: 7E 51                jle 0x408d5f
0x00408D0E: 8B FF                mov edi, edi
0x00408D10: 3B 5F 04             cmp ebx, dword ptr [edi + 4]
0x00408D13: 73 4A                jae 0x408d5f
0x00408D15: 8B 47 08             mov eax, dword ptr [edi + 8]
0x00408D18: 8B D3                mov edx, ebx
0x00408D1A: C1 E2 04             shl edx, 4
0x00408D1D: 03 C2                add eax, edx
0x00408D1F: 3B 70 04             cmp esi, dword ptr [eax + 4]
0x00408D22: 73 3B                jae 0x408d5f
0x00408D24: 8B 48 08             mov ecx, dword ptr [eax + 8]
0x00408D27: 8B 47 18             mov eax, dword ptr [edi + 0x18]
0x00408D2A: 8B 14 B1             mov edx, dword ptr [ecx + esi*4]
0x00408D2D: 8D 0C D0             lea ecx, [eax + edx*8]
0x00408D30: 8B 01                mov eax, dword ptr [ecx]
0x00408D32: 85 C0                test eax, eax
0x00408D34: 7E 29                jle 0x408d5f
0x00408D36: 83 79 04 00          cmp dword ptr [ecx + 4], 0
0x00408D3A: 7E 23                jle 0x408d5f
0x00408D3C: 8B 4D 08             mov ecx, dword ptr [ebp + 8]
0x00408D3F: 8B 51 18             mov edx, dword ptr [ecx + 0x18]
0x00408D42: 83 C1 18             add ecx, 0x18
0x00408D45: 50                   push eax
0x00408D46: 8B 42 04             mov eax, dword ptr [edx + 4]
0x00408D49: FF D0                call eax
0x00408D4B: 85 C0                test eax, eax
0x00408D4D: 74 08                je 0x408d57
0x00408D4F: 8B 4D 10             mov ecx, dword ptr [ebp + 0x10]
0x00408D52: 39 48 0C             cmp dword ptr [eax + 0xc], ecx
0x00408D55: 74 12                je 0x408d69
0x00408D57: 83 C6 01             add esi, 1
0x00408D5A: 3B 75 0C             cmp esi, dword ptr [ebp + 0xc]
0x00408D5D: 7C B1                jl 0x408d10
0x00408D5F: 5E                   pop esi
0x00408D60: 5F                   pop edi
0x00408D61: 83 C8 FF             or eax, 0xffffffff
0x00408D64: 5B                   pop ebx
0x00408D65: 5D                   pop ebp
0x00408D66: C2 0C 00             ret 0xc
0x00408D69: 8B C6                mov eax, esi
0x00408D6B: 5E                   pop esi
0x00408D6C: 5F                   pop edi
0x00408D6D: 5B                   pop ebx
0x00408D6E: 5D                   pop ebp
0x00408D6F: C2 0C 00             ret 0xc
0x00408D72: CC                   int3
0x00408D73: CC                   int3
0x00408D74: CC                   int3
0x00408D75: CC                   int3
0x00408D76: CC                   int3
0x00408D77: CC                   int3
0x00408D78: CC                   int3
0x00408D79: CC                   int3
0x00408D7A: CC                   int3
0x00408D7B: CC                   int3
0x00408D7C: CC                   int3
0x00408D7D: CC                   int3
0x00408D7E: CC                   int3
0x00408D7F: CC                   int3
0x00408D80: 55                   push ebp
0x00408D81: 8B EC                mov ebp, esp
0x00408D83: 8B 45 08             mov eax, dword ptr [ebp + 8]
0x00408D86: 53                   push ebx
0x00408D87: 56                   push esi
0x00408D88: 57                   push edi
0x00408D89: 6A 10                push 0x10
0x00408D8B: 6A FE                push -2
0x00408D8D: 8B F1                mov esi, ecx
0x00408D8F: 8B 5E 08             mov ebx, dword ptr [esi + 8]
0x00408D92: 68 8C 65 AB 00       push 0xab658c
0x00408D97: 8D 3C 85 00 00 00 00 lea edi, [eax*4]
0x00408D9E: 57                   push edi
0x00408D9F: 53                   push ebx
0x00408DA0: 89 06                mov dword ptr [esi], eax
0x00408DA2: E8 39 58 36 00       call 0x76e5e0
0x00408DA7: 85 C0                test eax, eax
0x00408DA9: 89 46 08             mov dword ptr [esi + 8], eax
0x00408DAC: 75 5B                jne 0x408e09
0x00408DAE: 50                   push eax
0x00408DAF: 6A FE                push -2
0x00408DB1: 68 8C 65 AB 00       push 0xab658c
0x00408DB6: 57                   push edi
0x00408DB7: E8 84 57 36 00       call 0x76e540
0x00408DBC: 85 DB                test ebx, ebx
0x00408DBE: 89 46 08             mov dword ptr [esi + 8], eax
0x00408DC1: 74 46                je 0x408e09
0x00408DC3: 8B 46 04             mov eax, dword ptr [esi + 4]
0x00408DC6: 8B 7D 08             mov edi, dword ptr [ebp + 8]
0x00408DC9: 3B F8                cmp edi, eax
0x00408DCB: 72 02                jb 0x408dcf
0x00408DCD: 8B F8                mov edi, eax
0x00408DCF: 33 D2                xor edx, edx
0x00408DD1: 85 FF                test edi, edi
0x00408DD3: 76 25                jbe 0x408dfa
0x00408DD5: EB 09                jmp 0x408de0
0x00408DD7: 8D A4 24 00 00 00 00 lea esp, [esp]
0x00408DDE: 8B FF                mov edi, edi
0x00408DE0: 8B 46 08             mov eax, dword ptr [esi + 8]
0x00408DE3: 8D 0C 95 00 00 00 00 lea ecx, [edx*4]
0x00408DEA: 03 C1                add eax, ecx
0x00408DEC: 74 05                je 0x408df3
0x00408DEE: 8B 0C 19             mov ecx, dword ptr [ecx + ebx]
0x00408DF1: 89 08                mov dword ptr [eax], ecx
0x00408DF3: 83 C2 01             add edx, 1
0x00408DF6: 3B D7                cmp edx, edi
0x00408DF8: 72 E6                jb 0x408de0
0x00408DFA: 6A 00                push 0
0x00408DFC: 6A FE                push -2
0x00408DFE: 68 8C 65 AB 00       push 0xab658c
0x00408E03: 53                   push ebx
0x00408E04: E8 97 57 36 00       call 0x76e5a0
0x00408E09: 5F                   pop edi
0x00408E0A: 5E                   pop esi
0x00408E0B: 5B                   pop ebx
0x00408E0C: 5D                   pop ebp
0x00408E0D: C2 04 00             ret 4
0x00408E10: 55                   push ebp
0x00408E11: 8B EC                mov ebp, esp
0x00408E13: A1 C4 02 B3 00       mov eax, dword ptr [0xb302c4]
0x00408E18: 83 EC 08             sub esp, 8
0x00408E1B: 85 C0                test eax, eax
0x00408E1D: 53                   push ebx
0x00408E1E: 56                   push esi
0x00408E1F: 57                   push edi
0x00408E20: 0F 84 D3 01 00 00    je 0x408ff9
0x00408E26: 83 C0 F8             add eax, -8
0x00408E29: 99                   cdq
0x00408E2A: 83 E2 03             and edx, 3
0x00408E2D: 03 C2                add eax, edx
0x00408E2F: 8B C8                mov ecx, eax
0x00408E31: C1 F9 02             sar ecx, 2
0x00408E34: 33 F6                xor esi, esi
0x00408E36: 85 C9                test ecx, ecx
0x00408E38: 89 75 FC             mov dword ptr [ebp - 4], esi
0x00408E3B: 7E 59                jle 0x408e96
0x00408E3D: 8B 15 C8 02 B3 00    mov edx, dword ptr [0xb302c8]
0x00408E43: 8D 41 FF             lea eax, [ecx - 1]
0x00408E46: 89 45 F8             mov dword ptr [ebp - 8], eax
0x00408E49: DB 45 F8             fild dword ptr [ebp - 8]
0x00408E4C: 81 C2 EC 00 00 00    add edx, 0xec
0x00408E52: D9 05 AC FE B2 00    fld dword ptr [0xb2feac]
0x00408E58: DB 45 FC             fild dword ptr [ebp - 4]
0x00408E5B: A1 FC 63 AB 00       mov eax, dword ptr [0xab63fc]
0x00408E60: 89 42 E8             mov dword ptr [edx - 0x18], eax
0x00408E63: A1 FC 63 AB 00       mov eax, dword ptr [0xab63fc]
0x00408E68: D8 F2                fdiv st(2)
0x00408E6A: 89 02                mov dword ptr [edx], eax
0x00408E6C: A1 FC 63 AB 00       mov eax, dword ptr [0xab63fc]
0x00408E71: 89 42 18             mov dword ptr [edx + 0x18], eax
0x00408E74: A1 FC 63 AB 00       mov eax, dword ptr [0xab63fc]
0x00408E79: 89 42 30             mov dword ptr [edx + 0x30], eax
0x00408E7C: D8 D9                fcomp st(1)
0x00408E7E: DF E0                fnstsw ax
0x00408E80: F6 C4 41             test ah, 0x41
0x00408E83: 74 0D                je 0x408e92
0x00408E85: 83 C6 01             add esi, 1
0x00408E88: 83 C2 60             add edx, 0x60
0x00408E8B: 3B F1                cmp esi, ecx
0x00408E8D: 89 75 FC             mov dword ptr [ebp - 4], esi
0x00408E90: 7C C6                jl 0x408e58
0x00408E92: DD D9                fstp st(1)
0x00408E94: DD D8                fstp st(0)
0x00408E96: 8D 5C 76 06          lea ebx, [esi + esi*2 + 6]
0x00408E9A: 8D 0C B5 08 00 00 00 lea ecx, [esi*4 + 8]
0x00408EA1: 03 DB                add ebx, ebx
0x00408EA3: 8D 04 1B             lea eax, [ebx + ebx]
0x00408EA6: 89 4D F8             mov dword ptr [ebp - 8], ecx
0x00408EA9: E8 62 3B 00 00       call 0x40ca10
0x00408EAE: 85 F6                test esi, esi
0x00408EB0: 8B C4                mov eax, esp
0x00408EB2: 89 45 FC             mov dword ptr [ebp - 4], eax
0x00408EB5: 7E 34                jle 0x408eeb
0x00408EB7: B9 08 00 00 00       mov ecx, 8
0x00408EBC: 8D 64 24 00          lea esp, [esp]
0x00408EC0: 8D 51 01             lea edx, [ecx + 1]
0x00408EC3: 66 89 50 02          mov word ptr [eax + 2], dx
0x00408EC7: 8D 79 02             lea edi, [ecx + 2]
0x00408ECA: 66 89 50 06          mov word ptr [eax + 6], dx
0x00408ECE: 8D 51 03             lea edx, [ecx + 3]
0x00408ED1: 66 89 08             mov word ptr [eax], cx
0x00408ED4: 66 89 78 04          mov word ptr [eax + 4], di
0x00408ED8: 66 89 50 08          mov word ptr [eax + 8], dx
0x00408EDC: 66 89 78 0A          mov word ptr [eax + 0xa], di
0x00408EE0: 83 C0 0C             add eax, 0xc
0x00408EE3: 83 C1 04             add ecx, 4
0x00408EE6: 83 EE 01             sub esi, 1
0x00408EE9: 75 D5                jne 0x408ec0
0x00408EEB: BE 01 00 00 00       mov esi, 1
0x00408EF0: B9 05 00 00 00       mov ecx, 5
0x00408EF5: BA 06 00 00 00       mov edx, 6
0x00408EFA: BF 02 00 00 00       mov edi, 2
0x00408EFF: 6A 00                push 0
0x00408F01: 66 C7 00 00 00       mov word ptr [eax], 0
0x00408F06: 66 89 70 02          mov word ptr [eax + 2], si
0x00408F0A: 66 89 78 04          mov word ptr [eax + 4], di
0x00408F0E: 66 89 70 06          mov word ptr [eax + 6], si
0x00408F12: 66 C7 40 08 03 00    mov word ptr [eax + 8], 3
0x00408F18: 66 89 78 0A          mov word ptr [eax + 0xa], di
0x00408F1C: 66 C7 40 0C 04 00    mov word ptr [eax + 0xc], 4
0x00408F22: 66 89 48 0E          mov word ptr [eax + 0xe], cx
0x00408F26: 66 89 50 10          mov word ptr [eax + 0x10], dx
0x00408F2A: 66 89 48 12          mov word ptr [eax + 0x12], cx
0x00408F2E: 66 C7 40 14 07 00    mov word ptr [eax + 0x14], 7
0x00408F34: 66 89 50 16          mov word ptr [eax + 0x16], dx
0x00408F38: A1 74 FE B2 00       mov eax, dword ptr [0xb2fe74]
0x00408F3D: 56                   push esi
0x00408F3E: 50                   push eax
0x00408F3F: E8 6C DD 0A 00       call 0x4b6cb0
0x00408F44: 8B 0D 88 DF C5 00    mov ecx, dword ptr [0xc5df88]
0x00408F4A: 83 C4 0C             add esp, 0xc
0x00408F4D: 50                   push eax
0x00408F4E: 6A 15                push 0x15
0x00408F50: E8 FB CF 27 00       call 0x685f50
0x00408F55: 8B 0D 88 DF C5 00    mov ecx, dword ptr [0xc5df88]
0x00408F5B: 83 B9 58 0F 00 00 00 cmp dword ptr [ecx + 0xf58], 0
0x00408F62: 74 58                je 0x408fbc
0x00408F64: 8B B1 F4 28 00 00    mov esi, dword ptr [ecx + 0x28f4]
0x00408F6A: 81 C6 90 00 00 00    add esi, 0x90
0x00408F70: 39 3E                cmp dword ptr [esi], edi
0x00408F72: 74 0F                je 0x408f83
0x00408F74: 6A 06                push 6
0x00408F76: E8 F5 C9 27 00       call 0x685970
0x00408F7B: 89 3E                mov dword ptr [esi], edi
0x00408F7D: 8B 0D 88 DF C5 00    mov ecx, dword ptr [0xc5df88]
0x00408F83: 83 B9 58 0F 00 00 00 cmp dword ptr [ecx + 0xf58], 0
0x00408F8A: 74 30                je 0x408fbc
0x00408F8C: 8B 81 F4 28 00 00    mov eax, dword ptr [ecx + 0x28f4]
0x00408F92: 8B 90 90 00 00 00    mov edx, dword ptr [eax + 0x90]
0x00408F98: 8B 3C 95 7C 8B AD 00 mov edi, dword ptr [edx*4 + 0xad8b7c]
0x00408F9F: 39 B8 A8 00 00 00    cmp dword ptr [eax + 0xa8], edi
0x00408FA5: 8D B1 F4 28 00 00    lea esi, [ecx + 0x28f4]
0x00408FAB: 74 0F                je 0x408fbc
0x00408FAD: 6A 07                push 7
0x00408FAF: E8 BC C9 27 00       call 0x685970
0x00408FB4: 8B 06                mov eax, dword ptr [esi]
0x00408FB6: 89 B8 A8 00 00 00    mov dword ptr [eax + 0xa8], edi
0x00408FBC: A1 C8 02 B3 00       mov eax, dword ptr [0xb302c8]
0x00408FC1: 6A 00                push 0
0x00408FC3: 6A 00                push 0
0x00408FC5: 6A 18                push 0x18
0x00408FC7: 8D 48 0C             lea ecx, [eax + 0xc]
0x00408FCA: 51                   push ecx
0x00408FCB: 6A 00                push 0
0x00408FCD: 6A 00                push 0
0x00408FCF: 6A 18                push 0x18
0x00408FD1: 8D 50 14             lea edx, [eax + 0x14]
0x00408FD4: 52                   push edx
0x00408FD5: 6A 00                push 0
0x00408FD7: 6A 00                push 0
0x00408FD9: 6A 18                push 0x18
0x00408FDB: 50                   push eax
0x00408FDC: 8B 45 F8             mov eax, dword ptr [ebp - 8]
0x00408FDF: 50                   push eax
0x00408FE0: E8 DB 98 27 00       call 0x6828c0
0x00408FE5: 8B 4D FC             mov ecx, dword ptr [ebp - 4]
0x00408FE8: 51                   push ecx
0x00408FE9: 53                   push ebx
0x00408FEA: 6A 03                push 3
0x00408FEC: E8 4F 93 27 00       call 0x682340
0x00408FF1: 83 C4 40             add esp, 0x40
0x00408FF4: E8 77 5B 1E 00       call 0x5eeb70
0x00408FF9: 8D 65 EC             lea esp, [ebp - 0x14]
0x00408FFC: 5F                   pop edi
0x00408FFD: 5E                   pop esi
0x00408FFE: 5B                   pop ebx
0x00408FFF: 8B E5                mov esp, ebp
0x00409001: 5D                   pop ebp
0x00409002: C3                   ret
0x00409003: CC                   int3
0x00409004: CC                   int3
0x00409005: CC                   int3
0x00409006: CC                   int3
0x00409007: CC                   int3
0x00409008: CC                   int3
0x00409009: CC                   int3
0x0040900A: CC                   int3
0x0040900B: CC                   int3
0x0040900C: CC                   int3
0x0040900D: CC                   int3
0x0040900E: CC                   int3
0x0040900F: CC                   int3
0x00409010: 55                   push ebp
0x00409011: 8B EC                mov ebp, esp
0x00409013: 51                   push ecx
0x00409014: 83 3D C4 02 B3 00 00 cmp dword ptr [0xb302c4], 0
0x0040901B: 75 06                jne 0x409023
0x0040901D: 32 C0                xor al, al
0x0040901F: 8B E5                mov esp, ebp
0x00409021: 5D                   pop ebp
0x00409022: C3                   ret
0x00409023: 53                   push ebx
0x00409024: B0 FF                mov al, 0xff
0x00409026: 56                   push esi
0x00409027: 57                   push edi
0x00409028: BF 00 FF B2 00       mov edi, 0xb2ff00
0x0040902D: BB 40 01 B3 00       mov ebx, 0xb30140
0x00409032: 88 45 FC             mov byte ptr [ebp - 4], al
0x00409035: 88 45 FD             mov byte ptr [ebp - 3], al
0x00409038: 88 45 FE             mov byte ptr [ebp - 2], al
0x0040903B: 88 45 FF             mov byte ptr [ebp - 1], al
0x0040903E: 33 F6                xor esi, esi
0x00409040: 6A 00                push 0
0x00409042: 6A 00                push 0
0x00409044: 6A 08                push 8
0x00409046: 53                   push ebx
0x00409047: 6A 00                push 0
0x00409049: 6A 00                push 0
0x0040904B: 6A 00                push 0
0x0040904D: 8D 45 FC             lea eax, [ebp - 4]
0x00409050: 50                   push eax
0x00409051: 6A 00                push 0
0x00409053: 6A 00                push 0
0x00409055: 6A 0C                push 0xc
0x00409057: 57                   push edi
0x00409058: 6A 04                push 4
0x0040905A: E8 61 98 27 00       call 0x6828c0
0x0040905F: 8B 8E 78 FE B2 00    mov ecx, dword ptr [esi + 0xb2fe78]
0x00409065: 6A 00                push 0
0x00409067: 6A 01                push 1
0x00409069: 51                   push ecx
0x0040906A: E8 41 DC 0A 00       call 0x4b6cb0
0x0040906F: 8B 0D 88 DF C5 00    mov ecx, dword ptr [0xc5df88]
0x00409075: 83 C4 40             add esp, 0x40
0x00409078: 50                   push eax
0x00409079: 6A 15                push 0x15
0x0040907B: E8 D0 CE 27 00       call 0x685f50
0x00409080: 68 C0 63 AB 00       push 0xab63c0
0x00409085: 6A 04                push 4
0x00409087: 6A 04                push 4
0x00409089: E8 B2 92 27 00       call 0x682340
0x0040908E: 83 C4 0C             add esp, 0xc
0x00409091: E8 DA 5A 1E 00       call 0x5eeb70
0x00409096: 83 C6 04             add esi, 4
0x00409099: 83 C7 30             add edi, 0x30
0x0040909C: 83 C3 20             add ebx, 0x20
0x0040909F: 83 FE 30             cmp esi, 0x30
0x004090A2: 72 9C                jb 0x409040
0x004090A4: E8 67 FD FF FF       call 0x408e10
0x004090A9: 5F                   pop edi
0x004090AA: 5E                   pop esi
0x004090AB: B0 01                mov al, 1
0x004090AD: 5B                   pop ebx
0x004090AE: 8B E5                mov esp, ebp
0x004090B0: 5D                   pop ebp
0x004090B1: C3                   ret
0x004090B2: CC                   int3
0x004090B3: CC                   int3
0x004090B4: CC                   int3
0x004090B5: CC                   int3
0x004090B6: CC                   int3
0x004090B7: CC                   int3
0x004090B8: CC                   int3
0x004090B9: CC                   int3
0x004090BA: CC                   int3
0x004090BB: CC                   int3
0x004090BC: CC                   int3
0x004090BD: CC                   int3
0x004090BE: CC                   int3
0x004090BF: CC                   int3
0x004090C0: 55                   push ebp
0x004090C1: 8B EC                mov ebp, esp
0x004090C3: D9 EE                fldz
0x004090C5: 83 EC 38             sub esp, 0x38
0x004090C8: F6 05 30 07 B3 00 01 test byte ptr [0xb30730], 1
0x004090CF: 75 1B                jne 0x4090ec
0x004090D1: 83 0D 30 07 B3 00 01 or dword ptr [0xb30730], 1
0x004090D8: D9 15 24 07 B3 00    fst dword ptr [0xb30724]
0x004090DE: D9 15 28 07 B3 00    fst dword ptr [0xb30728]
0x004090E4: D9 E8                fld1
0x004090E6: D9 1D 2C 07 B3 00    fstp dword ptr [0xb3072c]
0x004090EC: 53                   push ebx
0x004090ED: 33 DB                xor ebx, ebx
0x004090EF: 39 5D 08             cmp dword ptr [ebp + 8], ebx
0x004090F2: 0F 8E 75 01 00 00    jle 0x40926d
0x004090F8: 83 C2 14             add edx, 0x14
0x004090FB: 56                   push esi
0x004090FC: 89 55 F8             mov dword ptr [ebp - 8], edx
0x004090FF: 57                   push edi
0x00409100: 8B 45 0C             mov eax, dword ptr [ebp + 0xc]
0x00409103: 83 3C 98 00          cmp dword ptr [eax + ebx*4], 0
0x00409107: 0F 84 4C 01 00 00    je 0x409259
0x0040910D: 8B 0D 88 DF C5 00    mov ecx, dword ptr [0xc5df88]
0x00409113: 83 B9 58 0F 00 00 00 cmp dword ptr [ecx + 0xf58], 0
0x0040911A: 74 6B                je 0x409187
0x0040911C: 8B B1 F4 28 00 00    mov esi, dword ptr [ecx + 0x28f4]
0x00409122: 81 C6 90 00 00 00    add esi, 0x90
0x00409128: 83 3E 02             cmp dword ptr [esi], 2
0x0040912B: 74 1A                je 0x409147
0x0040912D: 6A 06                push 6
0x0040912F: DD D8                fstp st(0)
0x00409131: E8 3A C8 27 00       call 0x685970
0x00409136: D9 EE                fldz
0x00409138: 8B 55 F8             mov edx, dword ptr [ebp - 8]
0x0040913B: C7 06 02 00 00 00    mov dword ptr [esi], 2
0x00409141: 8B 0D 88 DF C5 00    mov ecx, dword ptr [0xc5df88]
0x00409147: 83 B9 58 0F 00 00 00 cmp dword ptr [ecx + 0xf58], 0
0x0040914E: 74 37                je 0x409187
0x00409150: 8B 81 F4 28 00 00    mov eax, dword ptr [ecx + 0x28f4]
0x00409156: 8B B8 90 00 00 00    mov edi, dword ptr [eax + 0x90]
0x0040915C: 8B 3C BD 7C 8B AD 00 mov edi, dword ptr [edi*4 + 0xad8b7c]
0x00409163: 39 B8 A8 00 00 00    cmp dword ptr [eax + 0xa8], edi
0x00409169: 8D B1 F4 28 00 00    lea esi, [ecx + 0x28f4]
0x0040916F: 74 16                je 0x409187
0x00409171: 6A 07                push 7
0x00409173: DD D8                fstp st(0)
0x00409175: E8 F6 C7 27 00       call 0x685970
0x0040917A: D9 EE                fldz
0x0040917C: 8B 0E                mov ecx, dword ptr [esi]
0x0040917E: 8B 55 F8             mov edx, dword ptr [ebp - 8]
0x00409181: 89 B9 A8 00 00 00    mov dword ptr [ecx + 0xa8], edi
0x00409187: 80 7A F0 00          cmp byte ptr [edx - 0x10], 0
0x0040918B: D9 42 FC             fld dword ptr [edx - 4]
0x0040918E: D9 05 C4 2E 9E 00    fld dword ptr [0x9e2ec4]
0x00409194: DC C9                fmul st(1), st(0)
0x00409196: D9 42 F4             fld dword ptr [edx - 0xc]
0x00409199: D8 E2                fsub st(2)
0x0040919B: D9 55 C8             fst dword ptr [ebp - 0x38]
0x0040919E: D9 55 E0             fst dword ptr [ebp - 0x20]
0x004091A1: D9 02                fld dword ptr [edx]
0x004091A3: DE CA                fmulp st(2)
0x004091A5: D9 42 F8             fld dword ptr [edx - 8]
0x004091A8: D8 E2                fsub st(2)
0x004091AA: D9 55 CC             fst dword ptr [ebp - 0x34]
0x004091AD: D9 5D D8             fstp dword ptr [ebp - 0x28]
0x004091B0: D9 CA                fxch st(2)
0x004091B2: D8 42 F4             fadd dword ptr [edx - 0xc]
0x004091B5: D9 55 D4             fst dword ptr [ebp - 0x2c]
0x004091B8: D9 5D EC             fstp dword ptr [ebp - 0x14]
0x004091BB: D8 42 F8             fadd dword ptr [edx - 8]
0x004091BE: D9 55 E4             fst dword ptr [ebp - 0x1c]
0x004091C1: D9 5D F0             fstp dword ptr [ebp - 0x10]
0x004091C4: 74 13                je 0x4091d9
0x004091C6: D9 42 FC             fld dword ptr [edx - 4]
0x004091C9: D8 0D AC FE B2 00    fmul dword ptr [0xb2feac]
0x004091CF: DE C1                faddp st(1)
0x004091D1: D9 55 D4             fst dword ptr [ebp - 0x2c]
0x004091D4: D9 5D EC             fstp dword ptr [ebp - 0x14]
0x004091D7: EB 02                jmp 0x4091db
0x004091D9: DD D8                fstp st(0)
0x004091DB: 6A 00                push 0
0x004091DD: D9 55 D0             fst dword ptr [ebp - 0x30]
0x004091E0: 6A 00                push 0
0x004091E2: D9 55 DC             fst dword ptr [ebp - 0x24]
0x004091E5: 6A 08                push 8
0x004091E7: D9 55 E8             fst dword ptr [ebp - 0x18]
0x004091EA: 68 00 64 AB 00       push 0xab6400
0x004091EF: D9 5D F4             fstp dword ptr [ebp - 0xc]
0x004091F2: 6A 00                push 0
0x004091F4: 6A 00                push 0
0x004091F6: 6A 00                push 0
0x004091F8: 8D 55 FC             lea edx, [ebp - 4]
0x004091FB: 52                   push edx
0x004091FC: 6A 00                push 0
0x004091FE: 6A 00                push 0
0x00409200: 6A 0C                push 0xc
0x00409202: 8D 45 C8             lea eax, [ebp - 0x38]
0x00409205: 50                   push eax
0x00409206: 6A 04                push 4
0x00409208: C6 45 FC FF          mov byte ptr [ebp - 4], 0xff
0x0040920C: C6 45 FD FF          mov byte ptr [ebp - 3], 0xff
0x00409210: C6 45 FE FF          mov byte ptr [ebp - 2], 0xff
0x00409214: C6 45 FF FF          mov byte ptr [ebp - 1], 0xff
0x00409218: E8 A3 96 27 00       call 0x6828c0
0x0040921D: 8B 4D 0C             mov ecx, dword ptr [ebp + 0xc]
0x00409220: 8B 14 99             mov edx, dword ptr [ecx + ebx*4]
0x00409223: 6A 00                push 0
0x00409225: 6A 01                push 1
0x00409227: 52                   push edx
0x00409228: E8 83 DA 0A 00       call 0x4b6cb0
0x0040922D: 8B 0D 88 DF C5 00    mov ecx, dword ptr [0xc5df88]
0x00409233: 83 C4 40             add esp, 0x40
0x00409236: 50                   push eax
0x00409237: 6A 15                push 0x15
0x00409239: E8 12 CD 27 00       call 0x685f50
0x0040923E: 68 C0 63 AB 00       push 0xab63c0
0x00409243: 6A 04                push 4
0x00409245: 6A 04                push 4
0x00409247: E8 F4 90 27 00       call 0x682340
0x0040924C: 83 C4 0C             add esp, 0xc
0x0040924F: E8 1C 59 1E 00       call 0x5eeb70
0x00409254: D9 EE                fldz
0x00409256: 8B 55 F8             mov edx, dword ptr [ebp - 8]
0x00409259: 83 C3 01             add ebx, 1
0x0040925C: 83 C2 18             add edx, 0x18
0x0040925F: 3B 5D 08             cmp ebx, dword ptr [ebp + 8]
0x00409262: 89 55 F8             mov dword ptr [ebp - 8], edx
0x00409265: 0F 8C 95 FE FF FF    jl 0x409100
0x0040926B: 5F                   pop edi
0x0040926C: 5E                   pop esi
0x0040926D: DD D8                fstp st(0)
0x0040926F: 5B                   pop ebx
0x00409270: 8B E5                mov esp, ebp
0x00409272: 5D                   pop ebp
0x00409273: C3                   ret
0x00409274: CC                   int3
0x00409275: CC                   int3
0x00409276: CC                   int3
0x00409277: CC                   int3
0x00409278: CC                   int3
0x00409279: CC                   int3
0x0040927A: CC                   int3
0x0040927B: CC                   int3
0x0040927C: CC                   int3
0x0040927D: CC                   int3
0x0040927E: CC                   int3
0x0040927F: CC                   int3
0x00409280: 55                   push ebp
0x00409281: 8B EC                mov ebp, esp
0x00409283: 53                   push ebx
0x00409284: 8B 5D 08             mov ebx, dword ptr [ebp + 8]
0x00409287: 56                   push esi
0x00409288: 8B F1                mov esi, ecx
0x0040928A: 3B 5E 04             cmp ebx, dword ptr [esi + 4]
0x0040928D: 0F 86 26 01 00 00    jbe 0x4093b9
0x00409293: 3B 1E                cmp ebx, dword ptr [esi]
0x00409295: 57                   push edi
0x00409296: 76 2B                jbe 0x4092c3
0x00409298: 8B 4E 0C             mov ecx, dword ptr [esi + 0xc]
0x0040929B: 85 C9                test ecx, ecx
0x0040929D: 75 0A                jne 0x4092a9
0x0040929F: 53                   push ebx
0x004092A0: 8B CE                mov ecx, esi
0x004092A2: E8 89 75 18 00       call 0x590830
0x004092A7: 8B C8                mov ecx, eax
0x004092A9: 33 D2                xor edx, edx
0x004092AB: 8B C3                mov eax, ebx
0x004092AD: F7 F1                div ecx
0x004092AF: 8B FB                mov edi, ebx
0x004092B1: 85 D2                test edx, edx
0x004092B3: 74 06                je 0x4092bb
0x004092B5: 2B CA                sub ecx, edx
0x004092B7: 03 CB                add ecx, ebx
0x004092B9: 8B F9                mov edi, ecx
0x004092BB: 57                   push edi
0x004092BC: 8B CE                mov ecx, esi
0x004092BE: E8 7D F0 FF FF       call 0x408340
0x004092C3: 8B 7E 04             mov edi, dword ptr [esi + 4]
0x004092C6: D9 EE                fldz
0x004092C8: 8B C3                mov eax, ebx
0x004092CA: 2B C7                sub eax, edi
0x004092CC: 83 F8 04             cmp eax, 4
0x004092CF: 0F 8C A3 00 00 00    jl 0x409378
0x004092D5: 8D 0C 7F             lea ecx, [edi + edi*2]
0x004092D8: 8B D3                mov edx, ebx
0x004092DA: 2B D7                sub edx, edi
0x004092DC: 03 C9                add ecx, ecx
0x004092DE: 83 EA 04             sub edx, 4
0x004092E1: 03 C9                add ecx, ecx
0x004092E3: C1 EA 02             shr edx, 2
0x004092E6: 03 C9                add ecx, ecx
0x004092E8: 83 C2 01             add edx, 1
0x004092EB: 8D 3C 97             lea edi, [edi + edx*4]
0x004092EE: 8B 46 08             mov eax, dword ptr [esi + 8]
0x004092F1: 03 C1                add eax, ecx
0x004092F3: 74 15                je 0x40930a
0x004092F5: D9 10                fst dword ptr [eax]
0x004092F7: D9 50 04             fst dword ptr [eax + 4]
0x004092FA: D9 50 08             fst dword ptr [eax + 8]
0x004092FD: D9 50 0C             fst dword ptr [eax + 0xc]
0x00409300: D9 50 10             fst dword ptr [eax + 0x10]
0x00409303: C7 40 14 00 00 00 00 mov dword ptr [eax + 0x14], 0
0x0040930A: 8B 46 08             mov eax, dword ptr [esi + 8]
0x0040930D: 8D 44 01 18          lea eax, [ecx + eax + 0x18]
0x00409311: 85 C0                test eax, eax
0x00409313: 74 15                je 0x40932a
0x00409315: D9 10                fst dword ptr [eax]
0x00409317: D9 50 04             fst dword ptr [eax + 4]
0x0040931A: D9 50 08             fst dword ptr [eax + 8]
0x0040931D: D9 50 0C             fst dword ptr [eax + 0xc]
0x00409320: D9 50 10             fst dword ptr [eax + 0x10]
0x00409323: C7 40 14 00 00 00 00 mov dword ptr [eax + 0x14], 0
0x0040932A: 8B 46 08             mov eax, dword ptr [esi + 8]
0x0040932D: 8D 59 48             lea ebx, [ecx + 0x48]
0x00409330: 8D 44 03 E8          lea eax, [ebx + eax - 0x18]
0x00409334: 85 C0                test eax, eax
0x00409336: 74 15                je 0x40934d
0x00409338: D9 10                fst dword ptr [eax]
0x0040933A: D9 50 04             fst dword ptr [eax + 4]
0x0040933D: D9 50 08             fst dword ptr [eax + 8]
0x00409340: D9 50 0C             fst dword ptr [eax + 0xc]
0x00409343: D9 50 10             fst dword ptr [eax + 0x10]
0x00409346: C7 40 14 00 00 00 00 mov dword ptr [eax + 0x14], 0
0x0040934D: 8B 46 08             mov eax, dword ptr [esi + 8]
0x00409350: 03 C3                add eax, ebx
0x00409352: 74 15                je 0x409369
0x00409354: D9 10                fst dword ptr [eax]
0x00409356: D9 50 04             fst dword ptr [eax + 4]
0x00409359: D9 50 08             fst dword ptr [eax + 8]
0x0040935C: D9 50 0C             fst dword ptr [eax + 0xc]
0x0040935F: D9 50 10             fst dword ptr [eax + 0x10]
0x00409362: C7 40 14 00 00 00 00 mov dword ptr [eax + 0x14], 0
0x00409369: 83 C1 60             add ecx, 0x60
0x0040936C: 83 EA 01             sub edx, 1
0x0040936F: 0F 85 79 FF FF FF    jne 0x4092ee
0x00409375: 8B 5D 08             mov ebx, dword ptr [ebp + 8]
0x00409378: 3B FB                cmp edi, ebx
0x0040937A: 73 31                jae 0x4093ad
0x0040937C: 8D 0C 7F             lea ecx, [edi + edi*2]
0x0040937F: 03 C9                add ecx, ecx
0x00409381: 03 C9                add ecx, ecx
0x00409383: 8B D3                mov edx, ebx
0x00409385: 03 C9                add ecx, ecx
0x00409387: 2B D7                sub edx, edi
0x00409389: 8B 46 08             mov eax, dword ptr [esi + 8]
0x0040938C: 03 C1                add eax, ecx
0x0040938E: 74 15                je 0x4093a5
0x00409390: D9 10                fst dword ptr [eax]
0x00409392: D9 50 04             fst dword ptr [eax + 4]
0x00409395: D9 50 08             fst dword ptr [eax + 8]
0x00409398: D9 50 0C             fst dword ptr [eax + 0xc]
0x0040939B: D9 50 10             fst dword ptr [eax + 0x10]
0x0040939E: C7 40 14 00 00 00 00 mov dword ptr [eax + 0x14], 0
0x004093A5: 83 C1 18             add ecx, 0x18
0x004093A8: 83 EA 01             sub edx, 1
0x004093AB: 75 DC                jne 0x409389
0x004093AD: 5F                   pop edi
0x004093AE: DD D8                fstp st(0)
0x004093B0: 89 5E 04             mov dword ptr [esi + 4], ebx
0x004093B3: 5E                   pop esi
0x004093B4: 5B                   pop ebx
0x004093B5: 5D                   pop ebp
0x004093B6: C2 04 00             ret 4
0x004093B9: 89 5E 04             mov dword ptr [esi + 4], ebx
0x004093BC: 5E                   pop esi
0x004093BD: 5B                   pop ebx
0x004093BE: 5D                   pop ebp
0x004093BF: C2 04 00             ret 4
0x004093C2: CC                   int3
0x004093C3: CC                   int3
0x004093C4: CC                   int3
0x004093C5: CC                   int3
0x004093C6: CC                   int3
0x004093C7: CC                   int3
0x004093C8: CC                   int3
0x004093C9: CC                   int3
0x004093CA: CC                   int3
0x004093CB: CC                   int3
0x004093CC: CC                   int3
0x004093CD: CC                   int3
0x004093CE: CC                   int3
0x004093CF: CC                   int3
0x004093D0: 56                   push esi
0x004093D1: 8B F1                mov esi, ecx
0x004093D3: 8B 86 B4 01 00 00    mov eax, dword ptr [esi + 0x1b4]
0x004093D9: 85 C0                test eax, eax
0x004093DB: 74 0F                je 0x4093ec
0x004093DD: 6A 00                push 0
0x004093DF: 6A FE                push -2
0x004093E1: 68 80 65 AB 00       push 0xab6580
0x004093E6: 50                   push eax
0x004093E7: E8 B4 51 36 00       call 0x76e5a0
0x004093EC: 8B B6 3C 01 00 00    mov esi, dword ptr [esi + 0x13c]
0x004093F2: 85 F6                test esi, esi
0x004093F4: 74 0F                je 0x409405
0x004093F6: 6A 00                push 0
0x004093F8: 6A FE                push -2
0x004093FA: 68 60 65 AB 00       push 0xab6560
0x004093FF: 56                   push esi
0x00409400: E8 9B 51 36 00       call 0x76e5a0
0x00409405: 5E                   pop esi
0x00409406: C3                   ret
0x00409407: CC                   int3
0x00409408: CC                   int3
0x00409409: CC                   int3
0x0040940A: CC                   int3
0x0040940B: CC                   int3
0x0040940C: CC                   int3
0x0040940D: CC                   int3
0x0040940E: CC                   int3
0x0040940F: CC                   int3
0x00409410: 56                   push esi
0x00409411: 57                   push edi
0x00409412: 8B F9                mov edi, ecx
0x00409414: 8B 77 04             mov esi, dword ptr [edi + 4]
0x00409417: 83 C6 01             add esi, 1
0x0040941A: 3B 37                cmp esi, dword ptr [edi]
0x0040941C: 76 29                jbe 0x409447
0x0040941E: 8B 4F 0C             mov ecx, dword ptr [edi + 0xc]
0x00409421: 85 C9                test ecx, ecx
0x00409423: 75 0A                jne 0x40942f
0x00409425: 56                   push esi
0x00409426: 8B CF                mov ecx, edi
0x00409428: E8 D3 F1 13 00       call 0x548600
0x0040942D: 8B C8                mov ecx, eax
0x0040942F: 33 D2                xor edx, edx
0x00409431: 8B C6                mov eax, esi
0x00409433: F7 F1                div ecx
0x00409435: 85 D2                test edx, edx
0x00409437: 74 06                je 0x40943f
0x00409439: 2B CA                sub ecx, edx
0x0040943B: 03 CE                add ecx, esi
0x0040943D: 8B F1                mov esi, ecx
0x0040943F: 56                   push esi
0x00409440: 8B CF                mov ecx, edi
0x00409442: E8 A9 EF FF FF       call 0x4083f0
0x00409447: 8B 4F 04             mov ecx, dword ptr [edi + 4]
0x0040944A: 8B 47 08             mov eax, dword ptr [edi + 8]
0x0040944D: 8D 04 C8             lea eax, [eax + ecx*8]
0x00409450: 83 C1 01             add ecx, 1
0x00409453: 85 C0                test eax, eax
0x00409455: 89 4F 04             mov dword ptr [edi + 4], ecx
0x00409458: 5F                   pop edi
0x00409459: 5E                   pop esi
0x0040945A: 74 0E                je 0x40946a
0x0040945C: C7 00 00 00 00 00    mov dword ptr [eax], 0
0x00409462: C7 40 04 00 00 00 00 mov dword ptr [eax + 4], 0
0x00409469: C3                   ret
0x0040946A: 33 C0                xor eax, eax
0x0040946C: C3                   ret
0x0040946D: CC                   int3
0x0040946E: CC                   int3
0x0040946F: CC                   int3
0x00409470: 55                   push ebp
0x00409471: 8B EC                mov ebp, esp
0x00409473: 56                   push esi
0x00409474: 57                   push edi
0x00409475: 8B 7D 08             mov edi, dword ptr [ebp + 8]
0x00409478: 8B F1                mov esi, ecx
0x0040947A: 3B 7E 04             cmp edi, dword ptr [esi + 4]
0x0040947D: 74 27                je 0x4094a6
0x0040947F: 8B 46 08             mov eax, dword ptr [esi + 8]
0x00409482: 85 C0                test eax, eax
0x00409484: 89 3E                mov dword ptr [esi], edi
0x00409486: 75 04                jne 0x40948c
0x00409488: 85 FF                test edi, edi
0x0040948A: 74 1A                je 0x4094a6
0x0040948C: 6A 00                push 0
0x0040948E: 6A FE                push -2
0x00409490: 68 8C 65 AB 00       push 0xab658c
0x00409495: 8D 0C BD 00 00 00 00 lea ecx, [edi*4]
0x0040949C: 51                   push ecx
0x0040949D: 50                   push eax
0x0040949E: E8 3D 51 36 00       call 0x76e5e0
0x004094A3: 89 46 08             mov dword ptr [esi + 8], eax
0x004094A6: 33 D2                xor edx, edx
0x004094A8: 85 FF                test edi, edi
0x004094AA: 76 1F                jbe 0x4094cb
0x004094AC: 53                   push ebx
0x004094AD: 8B 5D 0C             mov ebx, dword ptr [ebp + 0xc]
0x004094B0: 8B 46 08             mov eax, dword ptr [esi + 8]
0x004094B3: 8D 0C 95 00 00 00 00 lea ecx, [edx*4]
0x004094BA: 03 C1                add eax, ecx
0x004094BC: 74 05                je 0x4094c3
0x004094BE: 8B 0C 19             mov ecx, dword ptr [ecx + ebx]
0x004094C1: 89 08                mov dword ptr [eax], ecx
0x004094C3: 83 C2 01             add edx, 1
0x004094C6: 3B D7                cmp edx, edi
0x004094C8: 72 E6                jb 0x4094b0
0x004094CA: 5B                   pop ebx
0x004094CB: 89 7E 04             mov dword ptr [esi + 4], edi
0x004094CE: 5F                   pop edi
0x004094CF: 5E                   pop esi
0x004094D0: 5D                   pop ebp
0x004094D1: C2 08 00             ret 8
0x004094D4: CC                   int3
0x004094D5: CC                   int3
0x004094D6: CC                   int3
0x004094D7: CC                   int3
0x004094D8: CC                   int3
0x004094D9: CC                   int3
0x004094DA: CC                   int3
0x004094DB: CC                   int3
0x004094DC: CC                   int3
0x004094DD: CC                   int3
0x004094DE: CC                   int3
0x004094DF: CC                   int3
0x004094E0: A1 74 FE B2 00       mov eax, dword ptr [0xb2fe74]
0x004094E5: 57                   push edi
0x004094E6: 33 FF                xor edi, edi
0x004094E8: 3B C7                cmp eax, edi
0x004094EA: 74 09                je 0x4094f5
0x004094EC: 50                   push eax
0x004094ED: E8 3E 2A 07 00       call 0x47bf30
0x004094F2: 83 C4 04             add esp, 4
0x004094F5: 56                   push esi
0x004094F6: 89 3D 74 FE B2 00    mov dword ptr [0xb2fe74], edi
0x004094FC: 33 F6                xor esi, esi
0x004094FE: 8B FF                mov edi, edi
0x00409500: 8B 86 78 FE B2 00    mov eax, dword ptr [esi + 0xb2fe78]
0x00409506: 3B C7                cmp eax, edi
0x00409508: 74 09                je 0x409513
0x0040950A: 50                   push eax
0x0040950B: E8 20 2A 07 00       call 0x47bf30
0x00409510: 83 C4 04             add esp, 4
0x00409513: 89 BE 78 FE B2 00    mov dword ptr [esi + 0xb2fe78], edi
0x00409519: 83 C6 04             add esi, 4
0x0040951C: 83 FE 30             cmp esi, 0x30
0x0040951F: 72 DF                jb 0x409500
0x00409521: A1 C8 02 B3 00       mov eax, dword ptr [0xb302c8]
0x00409526: 3B C7                cmp eax, edi
0x00409528: 5E                   pop esi
0x00409529: 74 0E                je 0x409539
0x0040952B: 57                   push edi
0x0040952C: 6A FE                push -2
0x0040952E: 68 90 64 AB 00       push 0xab6490
0x00409533: 50                   push eax
0x00409534: E8 67 50 36 00       call 0x76e5a0
0x00409539: 89 3D C0 02 B3 00    mov dword ptr [0xb302c0], edi
0x0040953F: 89 3D C4 02 B3 00    mov dword ptr [0xb302c4], edi
0x00409545: 89 3D C8 02 B3 00    mov dword ptr [0xb302c8], edi
0x0040954B: 5F                   pop edi
0x0040954C: C3                   ret
0x0040954D: CC                   int3
0x0040954E: CC                   int3
0x0040954F: CC                   int3
0x00409550: A1 D4 FE B2 00       mov eax, dword ptr [0xb2fed4]
0x00409555: 57                   push edi
0x00409556: 33 FF                xor edi, edi
0x00409558: 3B C7                cmp eax, edi
0x0040955A: 74 09                je 0x409565
0x0040955C: 50                   push eax
0x0040955D: E8 CE 29 07 00       call 0x47bf30
0x00409562: 83 C4 04             add esp, 4
0x00409565: 56                   push esi
0x00409566: 89 3D D4 FE B2 00    mov dword ptr [0xb2fed4], edi
0x0040956C: 33 F6                xor esi, esi
0x0040956E: 8B FF                mov edi, edi
0x00409570: 8B 86 CC FE B2 00    mov eax, dword ptr [esi + 0xb2fecc]
0x00409576: 3B C7                cmp eax, edi
0x00409578: 74 09                je 0x409583
0x0040957A: 50                   push eax
0x0040957B: E8 B0 29 07 00       call 0x47bf30
0x00409580: 83 C4 04             add esp, 4
0x00409583: 89 BE CC FE B2 00    mov dword ptr [esi + 0xb2fecc], edi
0x00409589: 83 C6 04             add esi, 4
0x0040958C: 83 FE 08             cmp esi, 8
0x0040958F: 72 DF                jb 0x409570
0x00409591: A1 A8 FE B2 00       mov eax, dword ptr [0xb2fea8]
0x00409596: 3B C7                cmp eax, edi
0x00409598: 5E                   pop esi
0x00409599: 74 09                je 0x4095a4
0x0040959B: 50                   push eax
0x0040959C: E8 8F 29 07 00       call 0x47bf30
0x004095A1: 83 C4 04             add esp, 4
0x004095A4: 89 3D A8 FE B2 00    mov dword ptr [0xb2fea8], edi
0x004095AA: E8 21 E6 FF FF       call 0x407bd0
0x004095AF: E8 2C FF FF FF       call 0x4094e0
0x004095B4: A1 EC FE B2 00       mov eax, dword ptr [0xb2feec]
0x004095B9: 3B C7                cmp eax, edi
0x004095BB: 89 3D E8 FE B2 00    mov dword ptr [0xb2fee8], edi
0x004095C1: 74 09                je 0x4095cc
0x004095C3: 50                   push eax
0x004095C4: E8 E7 4D 2B 00       call 0x6be3b0
0x004095C9: 83 C4 04             add esp, 4
0x004095CC: 39 3D E4 FE B2 00    cmp dword ptr [0xb2fee4], edi
0x004095D2: 89 3D EC FE B2 00    mov dword ptr [0xb2feec], edi
0x004095D8: 74 0D                je 0x4095e7
0x004095DA: 68 E4 FE B2 00       push 0xb2fee4
0x004095DF: E8 DC 49 2B 00       call 0x6bdfc0
0x004095E4: 83 C4 04             add esp, 4
0x004095E7: A1 E0 FE B2 00       mov eax, dword ptr [0xb2fee0]
0x004095EC: 3B C7                cmp eax, edi
0x004095EE: 89 3D E4 FE B2 00    mov dword ptr [0xb2fee4], edi
0x004095F4: 74 09                je 0x4095ff
0x004095F6: 50                   push eax
0x004095F7: E8 34 29 07 00       call 0x47bf30
0x004095FC: 83 C4 04             add esp, 4
0x004095FF: 89 3D E0 FE B2 00    mov dword ptr [0xb2fee0], edi
0x00409605: E8 A6 FD 0B 00       call 0x4c93b0
0x0040960A: E8 E1 EF 0B 00       call 0x4c85f0
0x0040960F: E8 1C 8B 01 00       call 0x422130
0x00409614: 85 C0                test eax, eax
0x00409616: 5F                   pop edi
0x00409617: 74 05                je 0x40961e
0x00409619: E9 22 54 13 00       jmp 0x53ea40
0x0040961E: C3                   ret
0x0040961F: CC                   int3
0x00409620: 56                   push esi
0x00409621: 57                   push edi
0x00409622: E8 29 FF FF FF       call 0x409550
0x00409627: BE 64 FE B2 00       mov esi, 0xb2fe64
0x0040962C: BF 02 00 00 00       mov edi, 2
0x00409631: 83 3E 00             cmp dword ptr [esi], 0
0x00409634: 74 11                je 0x409647
0x00409636: 8B 0D 88 DF C5 00    mov ecx, dword ptr [0xc5df88]
0x0040963C: 8B 01                mov eax, dword ptr [ecx]
0x0040963E: 8B 90 14 01 00 00    mov edx, dword ptr [eax + 0x114]
0x00409644: 56                   push esi
0x00409645: FF D2                call edx
0x00409647: 83 C6 04             add esi, 4
0x0040964A: 83 EF 01             sub edi, 1
0x0040964D: 75 E2                jne 0x409631
0x0040964F: 83 3D 60 FE B2 00 00 cmp dword ptr [0xb2fe60], 0
0x00409656: 5F                   pop edi
0x00409657: 5E                   pop esi
0x00409658: 74 15                je 0x40966f
0x0040965A: 8B 0D 88 DF C5 00    mov ecx, dword ptr [0xc5df88]
0x00409660: 8B 01                mov eax, dword ptr [ecx]
0x00409662: 8B 90 14 01 00 00    mov edx, dword ptr [eax + 0x114]
0x00409668: 68 60 FE B2 00       push 0xb2fe60
0x0040966D: FF D2                call edx
0x0040966F: C3                   ret
0x00409670: 55                   push ebp
0x00409671: 8B EC                mov ebp, esp
0x00409673: 51                   push ecx
0x00409674: 8B 41 08             mov eax, dword ptr [ecx + 8]
0x00409677: 56                   push esi
0x00409678: 8B 71 18             mov esi, dword ptr [ecx + 0x18]
0x0040967B: 57                   push edi
0x0040967C: 8D 79 14             lea edi, [ecx + 0x14]
0x0040967F: 83 C6 01             add esi, 1
0x00409682: 3B 37                cmp esi, dword ptr [edi]
0x00409684: 89 45 FC             mov dword ptr [ebp - 4], eax
0x00409687: 76 29                jbe 0x4096b2
0x00409689: 8B 4F 0C             mov ecx, dword ptr [edi + 0xc]
0x0040968C: 85 C9                test ecx, ecx
0x0040968E: 75 0A                jne 0x40969a
0x00409690: 56                   push esi
0x00409691: 8B CF                mov ecx, edi
0x00409693: E8 A8 69 1C 00       call 0x5d0040
0x00409698: 8B C8                mov ecx, eax
0x0040969A: 33 D2                xor edx, edx
0x0040969C: 8B C6                mov eax, esi
0x0040969E: F7 F1                div ecx
0x004096A0: 85 D2                test edx, edx
0x004096A2: 74 06                je 0x4096aa
0x004096A4: 2B CA                sub ecx, edx
0x004096A6: 03 CE                add ecx, esi
0x004096A8: 8B F1                mov esi, ecx
0x004096AA: 56                   push esi
0x004096AB: 8B CF                mov ecx, edi
0x004096AD: E8 DE ED FF FF       call 0x408490
0x004096B2: 8B 47 04             mov eax, dword ptr [edi + 4]
0x004096B5: 8B 4F 08             mov ecx, dword ptr [edi + 8]
0x004096B8: 8B 55 FC             mov edx, dword ptr [ebp - 4]
0x004096BB: 8D 0C 81             lea ecx, [ecx + eax*4]
0x004096BE: 83 C0 01             add eax, 1
0x004096C1: 89 47 04             mov dword ptr [edi + 4], eax
0x004096C4: 5F                   pop edi
0x004096C5: 89 11                mov dword ptr [ecx], edx
0x004096C7: 5E                   pop esi
0x004096C8: 8B E5                mov esp, ebp
0x004096CA: 5D                   pop ebp
0x004096CB: C3                   ret
0x004096CC: CC                   int3
0x004096CD: CC                   int3
0x004096CE: CC                   int3
0x004096CF: CC                   int3
0x004096D0: D9 EE                fldz
0x004096D2: 8B C1                mov eax, ecx
0x004096D4: C7 00 00 2F 9E 00    mov dword ptr [eax], 0x9e2f00
0x004096DA: 8D 50 08             lea edx, [eax + 8]
0x004096DD: B9 18 00 00 00       mov ecx, 0x18
0x004096E2: D9 12                fst dword ptr [edx]
0x004096E4: 83 C2 0C             add edx, 0xc
0x004096E7: 83 E9 01             sub ecx, 1
0x004096EA: D9 52 F8             fst dword ptr [edx - 8]
0x004096ED: D9 52 FC             fst dword ptr [edx - 4]
0x004096F0: 79 F0                jns 0x4096e2
0x004096F2: 33 C9                xor ecx, ecx
0x004096F4: DD D8                fstp st(0)
0x004096F6: 89 88 34 01 00 00    mov dword ptr [eax + 0x134], ecx
0x004096FC: 89 88 38 01 00 00    mov dword ptr [eax + 0x138], ecx
0x00409702: 89 88 3C 01 00 00    mov dword ptr [eax + 0x13c], ecx
0x00409708: 89 88 40 01 00 00    mov dword ptr [eax + 0x140], ecx
0x0040970E: 89 88 AC 01 00 00    mov dword ptr [eax + 0x1ac], ecx
0x00409714: 89 88 B0 01 00 00    mov dword ptr [eax + 0x1b0], ecx
0x0040971A: 89 88 B4 01 00 00    mov dword ptr [eax + 0x1b4], ecx
0x00409720: 89 88 B8 01 00 00    mov dword ptr [eax + 0x1b8], ecx
0x00409726: 89 88 44 01 00 00    mov dword ptr [eax + 0x144], ecx
0x0040972C: 89 88 BC 01 00 00    mov dword ptr [eax + 0x1bc], ecx
0x00409732: C3                   ret
0x00409733: CC                   int3
0x00409734: CC                   int3
0x00409735: CC                   int3
0x00409736: CC                   int3
0x00409737: CC                   int3
0x00409738: CC                   int3
0x00409739: CC                   int3
0x0040973A: CC                   int3
0x0040973B: CC                   int3
0x0040973C: CC                   int3
0x0040973D: CC                   int3
0x0040973E: CC                   int3
0x0040973F: CC                   int3
0x00409740: 56                   push esi
0x00409741: 8B F1                mov esi, ecx
0x00409743: E8 88 FF FF FF       call 0x4096d0
0x00409748: C7 06 28 2F 9E 00    mov dword ptr [esi], 0x9e2f28
0x0040974E: C7 86 C0 01 00 00 01 00 00 00 mov dword ptr [esi + 0x1c0], 1
0x00409758: 8B C6                mov eax, esi
0x0040975A: 5E                   pop esi
0x0040975B: C3                   ret
0x0040975C: CC                   int3
0x0040975D: CC                   int3
0x0040975E: CC                   int3
0x0040975F: CC                   int3
0x00409760: 8B 81 C0 01 00 00    mov eax, dword ptr [ecx + 0x1c0]
0x00409766: C3                   ret
0x00409767: CC                   int3
0x00409768: CC                   int3
0x00409769: CC                   int3
0x0040976A: CC                   int3
0x0040976B: CC                   int3
0x0040976C: CC                   int3
0x0040976D: CC                   int3
0x0040976E: CC                   int3
0x0040976F: CC                   int3
0x00409770: 56                   push esi
0x00409771: 8B F1                mov esi, ecx
0x00409773: 8B 46 08             mov eax, dword ptr [esi + 8]
0x00409776: 85 C0                test eax, eax
0x00409778: 74 0F                je 0x409789
0x0040977A: 6A 00                push 0
0x0040977C: 6A FE                push -2
0x0040977E: 68 8C 65 AB 00       push 0xab658c
0x00409783: 50                   push eax
0x00409784: E8 17 4E 36 00       call 0x76e5a0
0x00409789: C7 06 00 00 00 00    mov dword ptr [esi], 0
0x0040978F: C7 46 04 00 00 00 00 mov dword ptr [esi + 4], 0
0x00409796: C7 46 08 00 00 00 00 mov dword ptr [esi + 8], 0
0x0040979D: 5E                   pop esi
0x0040979E: C3                   ret
0x0040979F: CC                   int3
0x004097A0: 55                   push ebp
0x004097A1: 8B EC                mov ebp, esp
0x004097A3: 56                   push esi
0x004097A4: 57                   push edi
0x004097A5: 8B F9                mov edi, ecx
0x004097A7: 8B 77 04             mov esi, dword ptr [edi + 4]
0x004097AA: 83 C6 01             add esi, 1
0x004097AD: 3B 37                cmp esi, dword ptr [edi]
0x004097AF: 76 29                jbe 0x4097da
0x004097B1: 8B 4F 0C             mov ecx, dword ptr [edi + 0xc]
0x004097B4: 85 C9                test ecx, ecx
0x004097B6: 75 0A                jne 0x4097c2
0x004097B8: 56                   push esi
0x004097B9: 8B CF                mov ecx, edi
0x004097BB: E8 80 68 1C 00       call 0x5d0040
0x004097C0: 8B C8                mov ecx, eax
0x004097C2: 33 D2                xor edx, edx
0x004097C4: 8B C6                mov eax, esi
0x004097C6: F7 F1                div ecx
0x004097C8: 85 D2                test edx, edx
0x004097CA: 74 06                je 0x4097d2
0x004097CC: 2B CA                sub ecx, edx
0x004097CE: 03 CE                add ecx, esi
0x004097D0: 8B F1                mov esi, ecx
0x004097D2: 56                   push esi
0x004097D3: 8B CF                mov ecx, edi
0x004097D5: E8 A6 F5 FF FF       call 0x408d80
0x004097DA: 8B 4F 04             mov ecx, dword ptr [edi + 4]
0x004097DD: 8B 47 08             mov eax, dword ptr [edi + 8]
0x004097E0: 8D 04 88             lea eax, [eax + ecx*4]
0x004097E3: 83 C1 01             add ecx, 1
0x004097E6: 85 C0                test eax, eax
0x004097E8: 89 4F 04             mov dword ptr [edi + 4], ecx
0x004097EB: 5F                   pop edi
0x004097EC: 5E                   pop esi
0x004097ED: 74 0B                je 0x4097fa
0x004097EF: 8B 4D 08             mov ecx, dword ptr [ebp + 8]
0x004097F2: 8B 11                mov edx, dword ptr [ecx]
0x004097F4: 89 10                mov dword ptr [eax], edx
0x004097F6: 5D                   pop ebp
0x004097F7: C2 04 00             ret 4
0x004097FA: 33 C0                xor eax, eax
0x004097FC: 5D                   pop ebp
0x004097FD: C2 04 00             ret 4
0x00409800: 56                   push esi
0x00409801: E8 8A 9F 0C 00       call 0x4d3790
0x00409806: 68 A0 00 00 00       push 0xa0
0x0040980B: 68 18 1F 9E 00       push 0x9e1f18
0x00409810: 6A 10                push 0x10
0x00409812: 52                   push edx
0x00409813: 50                   push eax
0x00409814: E8 97 B5 0C 00       call 0x4d4db0
0x00409819: 8B F0                mov esi, eax
0x0040981B: 83 C4 14             add esp, 0x14
0x0040981E: 85 F6                test esi, esi
0x00409820: 74 57                je 0x409879
0x00409822: 8B 06                mov eax, dword ptr [esi]
0x00409824: 8B 50 40             mov edx, dword ptr [eax + 0x40]
0x00409827: 8B CE                mov ecx, esi
0x00409829: FF D2                call edx
0x0040982B: 0B C2                or eax, edx
0x0040982D: 74 4A                je 0x409879
0x0040982F: 8B 06                mov eax, dword ptr [esi]
0x00409831: 8B 50 40             mov edx, dword ptr [eax + 0x40]
0x00409834: 68 BE 02 00 00       push 0x2be
0x00409839: 68 50 2F 9E 00       push 0x9e2f50
0x0040983E: 6A 20                push 0x20
0x00409840: 8B CE                mov ecx, esi
0x00409842: FF D2                call edx
0x00409844: 52                   push edx
0x00409845: 50                   push eax
0x00409846: E8 65 B5 0C 00       call 0x4d4db0
0x0040984B: 83 C4 14             add esp, 0x14
0x0040984E: 85 C0                test eax, eax
0x00409850: 75 09                jne 0x40985b
0x00409852: E8 F9 FC FF FF       call 0x409550
0x00409857: 33 C0                xor eax, eax
0x00409859: 5E                   pop esi
0x0040985A: C3                   ret
0x0040985B: 8B 88 A0 01 00 00    mov ecx, dword ptr [eax + 0x1a0]
0x00409861: 8B 01                mov eax, dword ptr [ecx]
0x00409863: 8B 50 70             mov edx, dword ptr [eax + 0x70]
0x00409866: FF D2                call edx
0x00409868: 85 C0                test eax, eax
0x0040986A: 74 0D                je 0x409879
0x0040986C: 50                   push eax
0x0040986D: E8 5E 64 37 00       call 0x77fcd0
0x00409872: 83 C4 04             add esp, 4
0x00409875: 85 C0                test eax, eax
0x00409877: 75 D9                jne 0x409852
0x00409879: B8 01 00 00 00       mov eax, 1
0x0040987E: 5E                   pop esi
0x0040987F: C3                   ret
0x00409880: 55                   push ebp
0x00409881: 8B EC                mov ebp, esp
0x00409883: 81 EC F4 01 00 00    sub esp, 0x1f4
0x00409889: 53                   push ebx
0x0040988A: 56                   push esi
0x0040988B: 8B F1                mov esi, ecx
0x0040988D: 57                   push edi
0x0040988E: 8B F8                mov edi, eax
0x00409890: 8B DE                mov ebx, esi
0x00409892: E8 19 F3 FF FF       call 0x408bb0
0x00409897: 33 C9                xor ecx, ecx
0x00409899: 3B C1                cmp eax, ecx
0x0040989B: 89 45 D0             mov dword ptr [ebp - 0x30], eax
0x0040989E: 0F 84 4E 02 00 00    je 0x409af2
0x004098A4: 3B 35 D4 02 B3 00    cmp esi, dword ptr [0xb302d4]
0x004098AA: 73 11                jae 0x4098bd
0x004098AC: 8B 15 D8 02 B3 00    mov edx, dword ptr [0xb302d8]
0x004098B2: 8B C6                mov eax, esi
0x004098B4: C1 E0 04             shl eax, 4
0x004098B7: 8B 5C 10 04          mov ebx, dword ptr [eax + edx + 4]
0x004098BB: EB 02                jmp 0x4098bf
0x004098BD: 33 DB                xor ebx, ebx
0x004098BF: 3B D9                cmp ebx, ecx
0x004098C1: 0F 84 2B 02 00 00    je 0x409af2
0x004098C7: 89 4D D4             mov dword ptr [ebp - 0x2c], ecx
0x004098CA: 89 4D E4             mov dword ptr [ebp - 0x1c], ecx
0x004098CD: 8D 45 D4             lea eax, [ebp - 0x2c]
0x004098D0: 50                   push eax
0x004098D1: 8D 4D F0             lea ecx, [ebp - 0x10]
0x004098D4: 51                   push ecx
0x004098D5: 57                   push edi
0x004098D6: 56                   push esi
0x004098D7: B9 D0 02 B3 00       mov ecx, 0xb302d0
0x004098DC: E8 9F F3 FF FF       call 0x408c80
0x004098E1: 84 C0                test al, al
0x004098E3: 0F 84 09 02 00 00    je 0x409af2
0x004098E9: 8D 55 F0             lea edx, [ebp - 0x10]
0x004098EC: 52                   push edx
0x004098ED: 8D 45 E4             lea eax, [ebp - 0x1c]
0x004098F0: 50                   push eax
0x004098F1: 8D 47 01             lea eax, [edi + 1]
0x004098F4: 99                   cdq
0x004098F5: F7 FB                idiv ebx
0x004098F7: B9 D0 02 B3 00       mov ecx, 0xb302d0
0x004098FC: 52                   push edx
0x004098FD: 56                   push esi
0x004098FE: E8 7D F3 FF FF       call 0x408c80
0x00409903: 84 C0                test al, al
0x00409905: 0F 84 E7 01 00 00    je 0x409af2
0x0040990B: 8B 4D D4             mov ecx, dword ptr [ebp - 0x2c]
0x0040990E: 51                   push ecx
0x0040990F: B9 E0 4B AD 00       mov ecx, 0xad4be0
0x00409914: E8 77 29 25 00       call 0x65c290
0x00409919: 8B 55 E4             mov edx, dword ptr [ebp - 0x1c]
0x0040991C: 52                   push edx
0x0040991D: B9 E0 4B AD 00       mov ecx, 0xad4be0
0x00409922: 8B F0                mov esi, eax
0x00409924: E8 67 29 25 00       call 0x65c290
0x00409929: 85 F6                test esi, esi
0x0040992B: 8B F8                mov edi, eax
0x0040992D: 0F 84 BF 01 00 00    je 0x409af2
0x00409933: 85 FF                test edi, edi
0x00409935: 0F 84 B7 01 00 00    je 0x409af2
0x0040993B: D9 46 14             fld dword ptr [esi + 0x14]
0x0040993E: 8D 45 DC             lea eax, [ebp - 0x24]
0x00409941: D9 46 10             fld dword ptr [esi + 0x10]
0x00409944: 50                   push eax
0x00409945: D9 55 D8             fst dword ptr [ebp - 0x28]
0x00409948: 8D 4D D8             lea ecx, [ebp - 0x28]
0x0040994B: D9 C9                fxch st(1)
0x0040994D: 51                   push ecx
0x0040994E: D9 55 DC             fst dword ptr [ebp - 0x24]
0x00409951: D9 EE                fldz
0x00409953: D9 55 E0             fst dword ptr [ebp - 0x20]
0x00409956: D9 47 14             fld dword ptr [edi + 0x14]
0x00409959: D9 47 10             fld dword ptr [edi + 0x10]
0x0040995C: D9 5D F4             fstp dword ptr [ebp - 0xc]
0x0040995F: D9 5D F8             fstp dword ptr [ebp - 8]
0x00409962: D9 5D FC             fstp dword ptr [ebp - 4]
0x00409965: 8B 56 0C             mov edx, dword ptr [esi + 0xc]
0x00409968: 52                   push edx
0x00409969: 83 EC 08             sub esp, 8
0x0040996C: D9 5C 24 04          fstp dword ptr [esp + 4]
0x00409970: D9 1C 24             fstp dword ptr [esp]
0x00409973: E8 68 A7 13 00       call 0x5440e0
0x00409978: 83 C4 14             add esp, 0x14
0x0040997B: 84 C0                test al, al
0x0040997D: 0F 84 6F 01 00 00    je 0x409af2
0x00409983: 8B 57 0C             mov edx, dword ptr [edi + 0xc]
0x00409986: D9 45 F8             fld dword ptr [ebp - 8]
0x00409989: 8D 45 F8             lea eax, [ebp - 8]
0x0040998C: 50                   push eax
0x0040998D: 8D 4D F4             lea ecx, [ebp - 0xc]
0x00409990: 51                   push ecx
0x00409991: 52                   push edx
0x00409992: 83 EC 08             sub esp, 8
0x00409995: D9 5C 24 04          fstp dword ptr [esp + 4]
0x00409999: D9 45 F4             fld dword ptr [ebp - 0xc]
0x0040999C: D9 1C 24             fstp dword ptr [esp]
0x0040999F: E8 3C A7 13 00       call 0x5440e0
0x004099A4: 83 C4 14             add esp, 0x14
0x004099A7: 84 C0                test al, al
0x004099A9: 0F 84 43 01 00 00    je 0x409af2
0x004099AF: B8 90 00 00 00       mov eax, 0x90
0x004099B4: E8 57 30 00 00       call 0x40ca10
0x004099B9: 8B C4                mov eax, esp
0x004099BB: 6A 01                push 1
0x004099BD: 6A 0C                push 0xc
0x004099BF: 50                   push eax
0x004099C0: 8D 4D EC             lea ecx, [ebp - 0x14]
0x004099C3: E8 A8 E8 FF FF       call 0x408270
0x004099C8: D9 EE                fldz
0x004099CA: 8B 75 F0             mov esi, dword ptr [ebp - 0x10]
0x004099CD: 8B 45 D8             mov eax, dword ptr [ebp - 0x28]
0x004099D0: 89 46 0C             mov dword ptr [esi + 0xc], eax
0x004099D3: 8B 4D DC             mov ecx, dword ptr [ebp - 0x24]
0x004099D6: 89 4E 10             mov dword ptr [esi + 0x10], ecx
0x004099D9: 8B 55 E0             mov edx, dword ptr [ebp - 0x20]
0x004099DC: 89 56 14             mov dword ptr [esi + 0x14], edx
0x004099DF: 8B 46 0C             mov eax, dword ptr [esi + 0xc]
0x004099E2: 89 06                mov dword ptr [esi], eax
0x004099E4: 8B 4E 10             mov ecx, dword ptr [esi + 0x10]
0x004099E7: 89 4E 04             mov dword ptr [esi + 4], ecx
0x004099EA: 8B 56 14             mov edx, dword ptr [esi + 0x14]
0x004099ED: 89 56 08             mov dword ptr [esi + 8], edx
0x004099F0: 8B 55 D0             mov edx, dword ptr [ebp - 0x30]
0x004099F3: 33 FF                xor edi, edi
0x004099F5: 8D 4E 18             lea ecx, [esi + 0x18]
0x004099F8: 83 C2 28             add edx, 0x28
0x004099FB: D8 52 E0             fcom dword ptr [edx - 0x20]
0x004099FE: DF E0                fnstsw ax
0x00409A00: F6 C4 01             test ah, 1
0x00409A03: 75 09                jne 0x409a0e
0x00409A05: D8 12                fcom dword ptr [edx]
0x00409A07: DF E0                fnstsw ax
0x00409A09: F6 C4 01             test ah, 1
0x00409A0C: 74 2D                je 0x409a3b
0x00409A0E: D9 42 E0             fld dword ptr [edx - 0x20]
0x00409A11: 83 C7 01             add edi, 1
0x00409A14: D9 5D E8             fstp dword ptr [ebp - 0x18]
0x00409A17: 8B 45 E8             mov eax, dword ptr [ebp - 0x18]
0x00409A1A: D9 02                fld dword ptr [edx]
0x00409A1C: 89 01                mov dword ptr [ecx], eax
0x00409A1E: D9 5D EC             fstp dword ptr [ebp - 0x14]
0x00409A21: 8B 45 EC             mov eax, dword ptr [ebp - 0x14]
0x00409A24: 89 41 04             mov dword ptr [ecx + 4], eax
0x00409A27: D9 55 F0             fst dword ptr [ebp - 0x10]
0x00409A2A: 8B 45 F0             mov eax, dword ptr [ebp - 0x10]
0x00409A2D: 89 41 08             mov dword ptr [ecx + 8], eax
0x00409A30: 83 C2 04             add edx, 4
0x00409A33: 83 C1 0C             add ecx, 0xc
0x00409A36: 83 FF 08             cmp edi, 8
0x00409A39: 72 C0                jb 0x4099fb
0x00409A3B: 8B 55 F4             mov edx, dword ptr [ebp - 0xc]
0x00409A3E: DD D8                fstp st(0)
0x00409A40: 8D 4C 7F 09          lea ecx, [edi + edi*2 + 9]
0x00409A44: 8D 04 8E             lea eax, [esi + ecx*4]
0x00409A47: 89 10                mov dword ptr [eax], edx
0x00409A49: 8B 4D F8             mov ecx, dword ptr [ebp - 8]
0x00409A4C: 89 48 04             mov dword ptr [eax + 4], ecx
0x00409A4F: 8B 55 FC             mov edx, dword ptr [ebp - 4]
0x00409A52: 89 50 08             mov dword ptr [eax + 8], edx
0x00409A55: 8B 10                mov edx, dword ptr [eax]
0x00409A57: 8D 4C 7F 06          lea ecx, [edi + edi*2 + 6]
0x00409A5B: 8D 0C 8E             lea ecx, [esi + ecx*4]
0x00409A5E: 89 11                mov dword ptr [ecx], edx
0x00409A60: 8B 50 04             mov edx, dword ptr [eax + 4]
0x00409A63: 89 51 04             mov dword ptr [ecx + 4], edx
0x00409A66: 8B 40 08             mov eax, dword ptr [eax + 8]
0x00409A69: 89 41 08             mov dword ptr [ecx + 8], eax
0x00409A6C: 8D 8D 0C FE FF FF    lea ecx, [ebp - 0x1f4]
0x00409A72: E8 C9 FC FF FF       call 0x409740
0x00409A77: 83 C7 04             add edi, 4
0x00409A7A: 57                   push edi
0x00409A7B: 56                   push esi
0x00409A7C: 8D 8D 0C FE FF FF    lea ecx, [ebp - 0x1f4]
0x00409A82: E8 A9 9D 0B 00       call 0x4c3830
0x00409A87: D9 85 10 FE FF FF    fld dword ptr [ebp - 0x1f0]
0x00409A8D: D8 0D 64 2F 9E 00    fmul dword ptr [0x9e2f64]
0x00409A93: 51                   push ecx
0x00409A94: D9 1C 24             fstp dword ptr [esp]
0x00409A97: E8 94 DE FF FF       call 0x407930
0x00409A9C: 8B F0                mov esi, eax
0x00409A9E: 83 C4 04             add esp, 4
0x00409AA1: 83 FE 01             cmp esi, 1
0x00409AA4: 7D 05                jge 0x409aab
0x00409AA6: BE 01 00 00 00       mov esi, 1
0x00409AAB: 8D 0C B5 0C 00 00 00 lea ecx, [esi*4 + 0xc]
0x00409AB2: 51                   push ecx
0x00409AB3: B9 C0 02 B3 00       mov ecx, 0xb302c0
0x00409AB8: E8 C3 F7 FF FF       call 0x409280
0x00409ABD: 8D 45 F4             lea eax, [ebp - 0xc]
0x00409AC0: 8D 4D D8             lea ecx, [ebp - 0x28]
0x00409AC3: E8 C8 EB FF FF       call 0x408690
0x00409AC8: 8D 95 0C FE FF FF    lea edx, [ebp - 0x1f4]
0x00409ACE: 56                   push esi
0x00409ACF: 52                   push edx
0x00409AD0: E8 EB EE FF FF       call 0x4089c0
0x00409AD5: 83 C4 08             add esp, 8
0x00409AD8: 8D 8D 0C FE FF FF    lea ecx, [ebp - 0x1f4]
0x00409ADE: E8 ED F8 FF FF       call 0x4093d0
0x00409AE3: B0 01                mov al, 1
0x00409AE5: 8D A5 00 FE FF FF    lea esp, [ebp - 0x200]
0x00409AEB: 5F                   pop edi
0x00409AEC: 5E                   pop esi
0x00409AED: 5B                   pop ebx
0x00409AEE: 8B E5                mov esp, ebp
0x00409AF0: 5D                   pop ebp
0x00409AF1: C3                   ret
0x00409AF2: 32 C0                xor al, al
0x00409AF4: 8D A5 00 FE FF FF    lea esp, [ebp - 0x200]
0x00409AFA: 5F                   pop edi
0x00409AFB: 5E                   pop esi
0x00409AFC: 5B                   pop ebx
0x00409AFD: 8B E5                mov esp, ebp
0x00409AFF: 5D                   pop ebp
0x00409B00: C3                   ret
0x00409B01: CC                   int3
0x00409B02: CC                   int3
0x00409B03: CC                   int3
0x00409B04: CC                   int3
0x00409B05: CC                   int3
0x00409B06: CC                   int3
0x00409B07: CC                   int3
0x00409B08: CC                   int3
0x00409B09: CC                   int3
0x00409B0A: CC                   int3
0x00409B0B: CC                   int3
0x00409B0C: CC                   int3
0x00409B0D: CC                   int3
0x00409B0E: CC                   int3
0x00409B0F: CC                   int3
0x00409B10: 55                   push ebp
0x00409B11: 8B EC                mov ebp, esp
0x00409B13: 8B 0D 88 DF C5 00    mov ecx, dword ptr [0xc5df88]
0x00409B19: 81 EC E8 00 00 00    sub esp, 0xe8
0x00409B1F: 85 C9                test ecx, ecx
0x00409B21: 0F 84 98 03 00 00    je 0x409ebf
0x00409B27: 6A FF                push -1
0x00409B29: E8 F2 92 27 00       call 0x682e20
0x00409B2E: 85 C0                test eax, eax
0x00409B30: 0F 84 89 03 00 00    je 0x409ebf
0x00409B36: 8B 0D 88 DF C5 00    mov ecx, dword ptr [0xc5df88]
0x00409B3C: 85 C9                test ecx, ecx
0x00409B3E: 0F 84 7B 03 00 00    je 0x409ebf
0x00409B44: 6A FF                push -1
0x00409B46: E8 75 92 27 00       call 0x682dc0
0x00409B4B: 85 C0                test eax, eax
0x00409B4D: 0F 84 6C 03 00 00    je 0x409ebf
0x00409B53: 8D 45 E0             lea eax, [ebp - 0x20]
0x00409B56: 50                   push eax
0x00409B57: 8D 4D DC             lea ecx, [ebp - 0x24]
0x00409B5A: 51                   push ecx
0x00409B5B: 8D 55 EC             lea edx, [ebp - 0x14]
0x00409B5E: 52                   push edx
0x00409B5F: 8D 45 D8             lea eax, [ebp - 0x28]
0x00409B62: 50                   push eax
0x00409B63: 8D 4D E8             lea ecx, [ebp - 0x18]
0x00409B66: 51                   push ecx
0x00409B67: 8D 55 E4             lea edx, [ebp - 0x1c]
0x00409B6A: 52                   push edx
0x00409B6B: E8 00 E5 FF FF       call 0x408070
0x00409B70: D9 EE                fldz
0x00409B72: D9 55 FC             fst dword ptr [ebp - 4]
0x00409B75: D9 55 F8             fst dword ptr [ebp - 8]
0x00409B78: D9 E8                fld1
0x00409B7A: D9 55 F4             fst dword ptr [ebp - 0xc]
0x00409B7D: D9 55 F0             fst dword ptr [ebp - 0x10]
0x00409B80: D9 54 24 14          fst dword ptr [esp + 0x14]
0x00409B84: D9 C9                fxch st(1)
0x00409B86: D9 54 24 10          fst dword ptr [esp + 0x10]
0x00409B8A: D9 C9                fxch st(1)
0x00409B8C: D9 54 24 0C          fst dword ptr [esp + 0xc]
0x00409B90: D9 C9                fxch st(1)
0x00409B92: D9 54 24 08          fst dword ptr [esp + 8]
0x00409B96: D9 C9                fxch st(1)
0x00409B98: D9 5C 24 04          fstp dword ptr [esp + 4]
0x00409B9C: D9 1C 24             fstp dword ptr [esp]
0x00409B9F: E8 BC 83 27 00       call 0x681f60
0x00409BA4: 83 C4 18             add esp, 0x18
0x00409BA7: E8 34 24 07 00       call 0x47bfe0
0x00409BAC: 80 3D D8 FE B2 00 00 cmp byte ptr [0xb2fed8], 0
0x00409BB3: 74 10                je 0x409bc5
0x00409BB5: D9 05 B8 63 AB 00    fld dword ptr [0xab63b8]
0x00409BBB: D8 35 B4 63 AB 00    fdiv dword ptr [0xab63b4]
0x00409BC1: D9 E8                fld1
0x00409BC3: EB 06                jmp 0x409bcb
0x00409BC5: D9 E8                fld1
0x00409BC7: D9 C0                fld st(0)
0x00409BC9: D9 C9                fxch st(1)
0x00409BCB: D9 CA                fxch st(2)
0x00409BCD: DE F1                fdivrp st(1)
0x00409BCF: D8 D1                fcom st(1)
0x00409BD1: DF E0                fnstsw ax
0x00409BD3: F6 C4 41             test ah, 0x41
0x00409BD6: 75 11                jne 0x409be9
0x00409BD8: D8 F9                fdivr st(1)
0x00409BDA: D9 C1                fld st(1)
0x00409BDC: D8 E1                fsub st(1)
0x00409BDE: D8 0D C4 2E 9E 00    fmul dword ptr [0x9e2ec4]
0x00409BE4: D9 45 F8             fld dword ptr [ebp - 8]
0x00409BE7: EB 22                jmp 0x409c0b
0x00409BE9: D8 D1                fcom st(1)
0x00409BEB: DF E0                fnstsw ax
0x00409BED: F6 C4 05             test ah, 5
0x00409BF0: 0F 8A 0B 02 00 00    jp 0x409e01
0x00409BF6: D9 55 F0             fst dword ptr [ebp - 0x10]
0x00409BF9: D8 E9                fsubr st(1)
0x00409BFB: D8 0D C4 2E 9E 00    fmul dword ptr [0x9e2ec4]
0x00409C01: D9 45 F4             fld dword ptr [ebp - 0xc]
0x00409C04: D9 45 FC             fld dword ptr [ebp - 4]
0x00409C07: D9 C9                fxch st(1)
0x00409C09: D9 CA                fxch st(2)
0x00409C0B: 56                   push esi
0x00409C0C: D9 CB                fxch st(3)
0x00409C0E: 83 EC 18             sub esp, 0x18
0x00409C11: D9 5C 24 14          fstp dword ptr [esp + 0x14]
0x00409C15: D9 EE                fldz
0x00409C17: D9 5C 24 10          fstp dword ptr [esp + 0x10]
0x00409C1B: D9 45 F0             fld dword ptr [ebp - 0x10]
0x00409C1E: D8 C3                fadd st(3)
0x00409C20: D9 5C 24 0C          fstp dword ptr [esp + 0xc]
0x00409C24: D9 CA                fxch st(2)
0x00409C26: D9 5C 24 08          fstp dword ptr [esp + 8]
0x00409C2A: D8 C1                fadd st(1)
0x00409C2C: D9 5C 24 04          fstp dword ptr [esp + 4]
0x00409C30: D9 1C 24             fstp dword ptr [esp]
0x00409C33: E8 28 83 27 00       call 0x681f60
0x00409C38: D9 E8                fld1
0x00409C3A: 83 C4 18             add esp, 0x18
0x00409C3D: D9 95 18 FF FF FF    fst dword ptr [ebp - 0xe8]
0x00409C43: 8D 45 98             lea eax, [ebp - 0x68]
0x00409C46: D9 EE                fldz
0x00409C48: 50                   push eax
0x00409C49: D9 95 1C FF FF FF    fst dword ptr [ebp - 0xe4]
0x00409C4F: 83 EC 18             sub esp, 0x18
0x00409C52: D9 95 20 FF FF FF    fst dword ptr [ebp - 0xe0]
0x00409C58: D9 95 24 FF FF FF    fst dword ptr [ebp - 0xdc]
0x00409C5E: D9 95 28 FF FF FF    fst dword ptr [ebp - 0xd8]
0x00409C64: D9 95 30 FF FF FF    fst dword ptr [ebp - 0xd0]
0x00409C6A: D9 95 34 FF FF FF    fst dword ptr [ebp - 0xcc]
0x00409C70: D9 95 38 FF FF FF    fst dword ptr [ebp - 0xc8]
0x00409C76: D9 95 3C FF FF FF    fst dword ptr [ebp - 0xc4]
0x00409C7C: D9 95 44 FF FF FF    fst dword ptr [ebp - 0xbc]
0x00409C82: D9 95 48 FF FF FF    fst dword ptr [ebp - 0xb8]
0x00409C88: D9 95 4C FF FF FF    fst dword ptr [ebp - 0xb4]
0x00409C8E: D9 95 50 FF FF FF    fst dword ptr [ebp - 0xb0]
0x00409C94: D9 55 9C             fst dword ptr [ebp - 0x64]
0x00409C97: D9 55 A0             fst dword ptr [ebp - 0x60]
0x00409C9A: D9 55 A4             fst dword ptr [ebp - 0x5c]
0x00409C9D: D9 55 A8             fst dword ptr [ebp - 0x58]
0x00409CA0: D9 55 B0             fst dword ptr [ebp - 0x50]
0x00409CA3: D9 55 B4             fst dword ptr [ebp - 0x4c]
0x00409CA6: D9 55 B8             fst dword ptr [ebp - 0x48]
0x00409CA9: D9 55 BC             fst dword ptr [ebp - 0x44]
0x00409CAC: D9 55 C4             fst dword ptr [ebp - 0x3c]
0x00409CAF: D9 55 C8             fst dword ptr [ebp - 0x38]
0x00409CB2: D9 55 CC             fst dword ptr [ebp - 0x34]
0x00409CB5: D9 55 D0             fst dword ptr [ebp - 0x30]
0x00409CB8: D9 C9                fxch st(1)
0x00409CBA: D9 95 2C FF FF FF    fst dword ptr [ebp - 0xd4]
0x00409CC0: D9 95 40 FF FF FF    fst dword ptr [ebp - 0xc0]
0x00409CC6: D9 95 54 FF FF FF    fst dword ptr [ebp - 0xac]
0x00409CCC: D9 55 98             fst dword ptr [ebp - 0x68]
0x00409CCF: D9 55 AC             fst dword ptr [ebp - 0x54]
0x00409CD2: D9 55 C0             fst dword ptr [ebp - 0x40]
0x00409CD5: D9 55 D4             fst dword ptr [ebp - 0x2c]
0x00409CD8: D9 05 68 2F 9E 00    fld dword ptr [0x9e2f68]
0x00409CDE: D9 5C 24 14          fstp dword ptr [esp + 0x14]
0x00409CE2: D9 C9                fxch st(1)
0x00409CE4: D9 54 24 10          fst dword ptr [esp + 0x10]
0x00409CE8: D9 C9                fxch st(1)
0x00409CEA: D9 54 24 0C          fst dword ptr [esp + 0xc]
0x00409CEE: D9 C9                fxch st(1)
0x00409CF0: D9 54 24 08          fst dword ptr [esp + 8]
0x00409CF4: D9 C9                fxch st(1)
0x00409CF6: D9 5C 24 04          fstp dword ptr [esp + 4]
0x00409CFA: D9 1C 24             fstp dword ptr [esp]
0x00409CFD: E8 BE 57 2B 00       call 0x6bf4c0
0x00409D02: 8B 0D 88 DF C5 00    mov ecx, dword ptr [0xc5df88]
0x00409D08: 8B 11                mov edx, dword ptr [ecx]
0x00409D0A: 8B 92 A4 00 00 00    mov edx, dword ptr [edx + 0xa4]
0x00409D10: 83 C4 1C             add esp, 0x1c
0x00409D13: 8D 85 18 FF FF FF    lea eax, [ebp - 0xe8]
0x00409D19: 50                   push eax
0x00409D1A: FF D2                call edx
0x00409D1C: 8B 0D 88 DF C5 00    mov ecx, dword ptr [0xc5df88]
0x00409D22: 8B 01                mov eax, dword ptr [ecx]
0x00409D24: 8B 80 A0 00 00 00    mov eax, dword ptr [eax + 0xa0]
0x00409D2A: 8D 55 98             lea edx, [ebp - 0x68]
0x00409D2D: 52                   push edx
0x00409D2E: FF D0                call eax
0x00409D30: 8B 0D 88 DF C5 00    mov ecx, dword ptr [0xc5df88]
0x00409D36: E8 35 F9 FF FF       call 0x409670
0x00409D3B: D9 E8                fld1
0x00409D3D: 8B 0D 64 FE B2 00    mov ecx, dword ptr [0xb2fe64]
0x00409D43: D9 95 58 FF FF FF    fst dword ptr [ebp - 0xa8]
0x00409D49: D9 EE                fldz
0x00409D4B: D9 95 5C FF FF FF    fst dword ptr [ebp - 0xa4]
0x00409D51: D9 95 60 FF FF FF    fst dword ptr [ebp - 0xa0]
0x00409D57: D9 95 64 FF FF FF    fst dword ptr [ebp - 0x9c]
0x00409D5D: D9 95 68 FF FF FF    fst dword ptr [ebp - 0x98]
0x00409D63: D9 95 70 FF FF FF    fst dword ptr [ebp - 0x90]
0x00409D69: D9 95 74 FF FF FF    fst dword ptr [ebp - 0x8c]
0x00409D6F: D9 95 78 FF FF FF    fst dword ptr [ebp - 0x88]
0x00409D75: D9 95 7C FF FF FF    fst dword ptr [ebp - 0x84]
0x00409D7B: D9 55 84             fst dword ptr [ebp - 0x7c]
0x00409D7E: D9 55 88             fst dword ptr [ebp - 0x78]
0x00409D81: D9 55 8C             fst dword ptr [ebp - 0x74]
0x00409D84: D9 5D 90             fstp dword ptr [ebp - 0x70]
0x00409D87: D9 95 6C FF FF FF    fst dword ptr [ebp - 0x94]
0x00409D8D: D9 55 80             fst dword ptr [ebp - 0x80]
0x00409D90: D9 5D 94             fstp dword ptr [ebp - 0x6c]
0x00409D93: E8 B8 FC 27 00       call 0x689a50
0x00409D98: 85 C0                test eax, eax
0x00409D9A: 74 75                je 0x409e11
0x00409D9C: 8B 0D 60 FE B2 00    mov ecx, dword ptr [0xb2fe60]
0x00409DA2: E8 A9 FC 27 00       call 0x689a50
0x00409DA7: 85 C0                test eax, eax
0x00409DA9: 74 66                je 0x409e11
0x00409DAB: 8B 0D 64 FE B2 00    mov ecx, dword ptr [0xb2fe64]
0x00409DB1: 51                   push ecx
0x00409DB2: 8B 0D 88 DF C5 00    mov ecx, dword ptr [0xc5df88]
0x00409DB8: 6A 4D                push 0x4d
0x00409DBA: E8 91 C1 27 00       call 0x685f50
0x00409DBF: 8B 15 60 FE B2 00    mov edx, dword ptr [0xb2fe60]
0x00409DC5: 8B 0D 88 DF C5 00    mov ecx, dword ptr [0xc5df88]
0x00409DCB: 52                   push edx
0x00409DCC: 6A 4E                push 0x4e
0x00409DCE: E8 7D C1 27 00       call 0x685f50
0x00409DD3: 8D 85 58 FF FF FF    lea eax, [ebp - 0xa8]
0x00409DD9: 50                   push eax
0x00409DDA: E8 31 E3 FF FF       call 0x408110
0x00409DDF: 8B 0D 88 DF C5 00    mov ecx, dword ptr [0xc5df88]
0x00409DE5: 8B 11                mov edx, dword ptr [ecx]
0x00409DE7: 8B 92 18 01 00 00    mov edx, dword ptr [edx + 0x118]
0x00409DED: 83 C4 04             add esp, 4
0x00409DF0: 6A 04                push 4
0x00409DF2: 8D 85 58 FF FF FF    lea eax, [ebp - 0xa8]
0x00409DF8: 50                   push eax
0x00409DF9: 6A 00                push 0
0x00409DFB: 6A 00                push 0
0x00409DFD: FF D2                call edx
0x00409DFF: EB 3D                jmp 0x409e3e
0x00409E01: DD D8                fstp st(0)
0x00409E03: D9 45 F4             fld dword ptr [ebp - 0xc]
0x00409E06: D9 45 FC             fld dword ptr [ebp - 4]
0x00409E09: D9 45 F8             fld dword ptr [ebp - 8]
0x00409E0C: E9 FA FD FF FF       jmp 0x409c0b
0x00409E11: 8B 0D 88 DF C5 00    mov ecx, dword ptr [0xc5df88]
0x00409E17: 83 B9 58 0F 00 00 00 cmp dword ptr [ecx + 0xf58], 0
0x00409E1E: 74 4B                je 0x409e6b
0x00409E20: 8B B1 F4 28 00 00    mov esi, dword ptr [ecx + 0x28f4]
0x00409E26: 81 C6 08 01 00 00    add esi, 0x108
0x00409E2C: 83 3E 00             cmp dword ptr [esi], 0
0x00409E2F: 74 13                je 0x409e44
0x00409E31: 6A 0B                push 0xb
0x00409E33: E8 38 BB 27 00       call 0x685970
0x00409E38: C7 06 00 00 00 00    mov dword ptr [esi], 0
0x00409E3E: 8B 0D 88 DF C5 00    mov ecx, dword ptr [0xc5df88]
0x00409E44: 83 B9 58 0F 00 00 00 cmp dword ptr [ecx + 0xf58], 0
0x00409E4B: 74 1E                je 0x409e6b
0x00409E4D: 8B B1 F4 28 00 00    mov esi, dword ptr [ecx + 0x28f4]
0x00409E53: 81 C6 20 01 00 00    add esi, 0x120
0x00409E59: 83 3E 00             cmp dword ptr [esi], 0
0x00409E5C: 74 0D                je 0x409e6b
0x00409E5E: 6A 0C                push 0xc
0x00409E60: E8 0B BB 27 00       call 0x685970
0x00409E65: C7 06 00 00 00 00    mov dword ptr [esi], 0
0x00409E6B: 68 C4 FE B2 00       push 0xb2fec4
0x00409E70: 6A 02                push 2
0x00409E72: BA 2C 2E 9E 00       mov edx, 0x9e2e2c
0x00409E77: E8 44 F2 FF FF       call 0x4090c0
0x00409E7C: 8B 0D 88 DF C5 00    mov ecx, dword ptr [0xc5df88]
0x00409E82: 83 C4 08             add esp, 8
0x00409E85: E8 26 C1 27 00       call 0x685fb0
0x00409E8A: D9 45 E0             fld dword ptr [ebp - 0x20]
0x00409E8D: 83 EC 18             sub esp, 0x18
0x00409E90: D9 5C 24 14          fstp dword ptr [esp + 0x14]
0x00409E94: D9 45 DC             fld dword ptr [ebp - 0x24]
0x00409E97: D9 5C 24 10          fstp dword ptr [esp + 0x10]
0x00409E9B: D9 45 EC             fld dword ptr [ebp - 0x14]
0x00409E9E: D9 5C 24 0C          fstp dword ptr [esp + 0xc]
0x00409EA2: D9 45 D8             fld dword ptr [ebp - 0x28]
0x00409EA5: D9 5C 24 08          fstp dword ptr [esp + 8]
0x00409EA9: D9 45 E8             fld dword ptr [ebp - 0x18]
0x00409EAC: D9 5C 24 04          fstp dword ptr [esp + 4]
0x00409EB0: D9 45 E4             fld dword ptr [ebp - 0x1c]
0x00409EB3: D9 1C 24             fstp dword ptr [esp]
0x00409EB6: E8 A5 80 27 00       call 0x681f60
0x00409EBB: 83 C4 18             add esp, 0x18
0x00409EBE: 5E                   pop esi
0x00409EBF: 8B E5                mov esp, ebp
0x00409EC1: 5D                   pop ebp
0x00409EC2: C3                   ret
0x00409EC3: CC                   int3
0x00409EC4: CC                   int3
0x00409EC5: CC                   int3
0x00409EC6: CC                   int3
0x00409EC7: CC                   int3
0x00409EC8: CC                   int3
0x00409EC9: CC                   int3
0x00409ECA: CC                   int3
0x00409ECB: CC                   int3
0x00409ECC: CC                   int3
0x00409ECD: CC                   int3
0x00409ECE: CC                   int3
0x00409ECF: CC                   int3
0x00409ED0: 55                   push ebp
0x00409ED1: 8B EC                mov ebp, esp
0x00409ED3: 83 EC 18             sub esp, 0x18
0x00409ED6: 8D 45 F0             lea eax, [ebp - 0x10]
0x00409ED9: 8B C8                mov ecx, eax
0x00409EDB: 83 C9 01             or ecx, 1
0x00409EDE: 53                   push ebx
0x00409EDF: 56                   push esi
0x00409EE0: 89 45 F0             mov dword ptr [ebp - 0x10], eax
0x00409EE3: A1 BC 63 AB 00       mov eax, dword ptr [0xab63bc]
0x00409EE8: 89 4D F4             mov dword ptr [ebp - 0xc], ecx
0x00409EEB: 8B 0D 70 41 AD 00    mov ecx, dword ptr [0xad4170]
0x00409EF1: 33 F6                xor esi, esi
0x00409EF3: 3B C1                cmp eax, ecx
0x00409EF5: 57                   push edi
0x00409EF6: C7 45 E8 6C 2F 9E 00 mov dword ptr [ebp - 0x18], 0x9e2f6c
0x00409EFD: C7 45 EC 08 00 00 00 mov dword ptr [ebp - 0x14], 8
0x00409F04: 89 75 F8             mov dword ptr [ebp - 8], esi
0x00409F07: 0F 8C F8 01 00 00    jl 0x40a105
0x00409F0D: 3B 05 6C 41 AD 00    cmp eax, dword ptr [0xad416c]
0x00409F13: 0F 8F EC 01 00 00    jg 0x40a105
0x00409F19: 8B 15 80 41 AD 00    mov edx, dword ptr [0xad4180]
0x00409F1F: 2B C1                sub eax, ecx
0x00409F21: 8B 04 82             mov eax, dword ptr [edx + eax*4]
0x00409F24: 3B C6                cmp eax, esi
0x00409F26: 0F 84 D9 01 00 00    je 0x40a105
0x00409F2C: 8B 40 24             mov eax, dword ptr [eax + 0x24]
0x00409F2F: 8B 0D BC 40 AD 00    mov ecx, dword ptr [0xad40bc]
0x00409F35: 3B C1                cmp eax, ecx
0x00409F37: 0F 8C C8 01 00 00    jl 0x40a105
0x00409F3D: 3B 05 B8 40 AD 00    cmp eax, dword ptr [0xad40b8]
0x00409F43: 0F 8F BC 01 00 00    jg 0x40a105
0x00409F49: 2B C1                sub eax, ecx
0x00409F4B: 8B 0D CC 40 AD 00    mov ecx, dword ptr [0xad40cc]
0x00409F51: 8B 1C 81             mov ebx, dword ptr [ecx + eax*4]
0x00409F54: 3B DE                cmp ebx, esi
0x00409F56: 0F 84 A9 01 00 00    je 0x40a105
0x00409F5C: C6 05 D8 FE B2 00 00 mov byte ptr [0xb2fed8], 0
0x00409F63: 89 35 A8 FE B2 00    mov dword ptr [0xb2fea8], esi
0x00409F69: E8 62 20 07 00       call 0x47bfd0
0x00409F6E: D9 05 B4 63 AB 00    fld dword ptr [0xab63b4]
0x00409F74: D8 05 34 11 9E 00    fadd dword ptr [0x9e1134]
0x00409F7A: DE D9                fcompp
0x00409F7C: DF E0                fnstsw ax
0x00409F7E: F6 C4 05             test ah, 5
0x00409F81: 0F 8A 06 01 00 00    jp 0x40a08d
0x00409F87: 39 73 0C             cmp dword ptr [ebx + 0xc], esi
0x00409F8A: 0F 84 FD 00 00 00    je 0x40a08d
0x00409F90: 8B 7B 08             mov edi, dword ptr [ebx + 8]
0x00409F93: 8B C7                mov eax, edi
0x00409F95: 8D 50 01             lea edx, [eax + 1]
0x00409F98: 8A 08                mov cl, byte ptr [eax]
0x00409F9A: 83 C0 01             add eax, 1
0x00409F9D: 84 C9                test cl, cl
0x00409F9F: 75 F7                jne 0x409f98
0x00409FA1: 2B C2                sub eax, edx
0x00409FA3: 83 C0 20             add eax, 0x20
0x00409FA6: E8 65 2A 00 00       call 0x40ca10
0x00409FAB: 8B F4                mov esi, esp
0x00409FAD: 6A 2E                push 0x2e
0x00409FAF: 57                   push edi
0x00409FB0: E8 9B 2A 00 00       call 0x40ca50
0x00409FB5: 8B 53 08             mov edx, dword ptr [ebx + 8]
0x00409FB8: 83 C4 08             add esp, 8
0x00409FBB: 8B FE                mov edi, esi
0x00409FBD: 8D 49 00             lea ecx, [ecx]
0x00409FC0: 8A 0A                mov cl, byte ptr [edx]
0x00409FC2: 88 0F                mov byte ptr [edi], cl
0x00409FC4: 83 C2 01             add edx, 1
0x00409FC7: 83 C7 01             add edi, 1
0x00409FCA: 84 C9                test cl, cl
0x00409FCC: 75 F2                jne 0x409fc0
0x00409FCE: 85 C0                test eax, eax
0x00409FD0: 74 08                je 0x409fda
0x00409FD2: 8B D0                mov edx, eax
0x00409FD4: 2B 53 08             sub edx, dword ptr [ebx + 8]
0x00409FD7: 88 0C 32             mov byte ptr [edx + esi], cl
0x00409FDA: 8B CE                mov ecx, esi
0x00409FDC: 8D 79 01             lea edi, [ecx + 1]
0x00409FDF: 90                   nop
0x00409FE0: 8A 11                mov dl, byte ptr [ecx]
0x00409FE2: 83 C1 01             add ecx, 1
0x00409FE5: 84 D2                test dl, dl
0x00409FE7: 75 F7                jne 0x409fe0
0x00409FE9: 8B 15 98 2F 9E 00    mov edx, dword ptr [0x9e2f98]
0x00409FEF: 2B CF                sub ecx, edi
0x00409FF1: 85 C0                test eax, eax
0x00409FF3: 89 14 31             mov dword ptr [ecx + esi], edx
0x00409FF6: 8A 15 9C 2F 9E 00    mov dl, byte ptr [0x9e2f9c]
0x00409FFC: 88 54 31 04          mov byte ptr [ecx + esi + 4], dl
0x0040A000: 74 21                je 0x40a023
0x0040A002: 8B CE                mov ecx, esi
0x0040A004: 8D 79 01             lea edi, [ecx + 1]
0x0040A007: 8A 11                mov dl, byte ptr [ecx]
0x0040A009: 83 C1 01             add ecx, 1
0x0040A00C: 84 D2                test dl, dl
0x0040A00E: 75 F7                jne 0x40a007
0x0040A010: 2B CF                sub ecx, edi
0x0040A012: 8D 14 31             lea edx, [ecx + esi]
0x0040A015: 2B D0                sub edx, eax
0x0040A017: 8A 08                mov cl, byte ptr [eax]
0x0040A019: 88 0C 02             mov byte ptr [edx + eax], cl
0x0040A01C: 83 C0 01             add eax, 1
0x0040A01F: 84 C9                test cl, cl
0x0040A021: 75 F4                jne 0x40a017
0x0040A023: 56                   push esi
0x0040A024: E8 97 7F 01 00       call 0x421fc0
0x0040A029: 85 C0                test eax, eax
0x0040A02B: 74 60                je 0x40a08d
0x0040A02D: E8 0E 81 01 00       call 0x422140
0x0040A032: 85 C0                test eax, eax
0x0040A034: 74 19                je 0x40a04f
0x0040A036: 6A 06                push 6
0x0040A038: 56                   push esi
0x0040A039: E8 62 77 01 00       call 0x4217a0
0x0040A03E: 83 F8 01             cmp eax, 1
0x0040A041: 74 0C                je 0x40a04f
0x0040A043: 6A 00                push 0
0x0040A045: 6A 06                push 6
0x0040A047: 56                   push esi
0x0040A048: E8 B3 77 01 00       call 0x421800
0x0040A04D: EB 3E                jmp 0x40a08d
0x0040A04F: 6A 00                push 0
0x0040A051: 6A 00                push 0
0x0040A053: 6A 00                push 0
0x0040A055: 6A 01                push 1
0x0040A057: 6A 00                push 0
0x0040A059: 6A 00                push 0
0x0040A05B: 6A 00                push 0
0x0040A05D: 6A 00                push 0
0x0040A05F: 6A 00                push 0
0x0040A061: 6A 01                push 1
0x0040A063: 8D 4D FC             lea ecx, [ebp - 4]
0x0040A066: E8 75 7B 27 00       call 0x681be0
0x0040A06B: 8B 10                mov edx, dword ptr [eax]
0x0040A06D: 6A 01                push 1
0x0040A06F: 8D 4D E8             lea ecx, [ebp - 0x18]
0x0040A072: 51                   push ecx
0x0040A073: 52                   push edx
0x0040A074: 56                   push esi
0x0040A075: E8 E6 F6 0A 00       call 0x4b9760
0x0040A07A: 83 C4 10             add esp, 0x10
0x0040A07D: 85 C0                test eax, eax
0x0040A07F: A3 A8 FE B2 00       mov dword ptr [0xb2fea8], eax
0x0040A084: 74 14                je 0x40a09a
0x0040A086: C6 05 D8 FE B2 00 01 mov byte ptr [0xb2fed8], 1
0x0040A08D: A1 A8 FE B2 00       mov eax, dword ptr [0xb2fea8]
0x0040A092: 85 C0                test eax, eax
0x0040A094: 0F 85 A5 00 00 00    jne 0x40a13f
0x0040A09A: 8B 43 08             mov eax, dword ptr [ebx + 8]
0x0040A09D: 50                   push eax
0x0040A09E: E8 1D 7F 01 00       call 0x421fc0
0x0040A0A3: 85 C0                test eax, eax
0x0040A0A5: 74 5E                je 0x40a105
0x0040A0A7: E8 94 80 01 00       call 0x422140
0x0040A0AC: 85 C0                test eax, eax
0x0040A0AE: 74 1F                je 0x40a0cf
0x0040A0B0: 8B 4B 08             mov ecx, dword ptr [ebx + 8]
0x0040A0B3: 6A 06                push 6
0x0040A0B5: 51                   push ecx
0x0040A0B6: E8 E5 76 01 00       call 0x4217a0
0x0040A0BB: 83 F8 01             cmp eax, 1
0x0040A0BE: 74 0F                je 0x40a0cf
0x0040A0C0: 8B 53 08             mov edx, dword ptr [ebx + 8]
0x0040A0C3: 6A 00                push 0
0x0040A0C5: 6A 06                push 6
0x0040A0C7: 52                   push edx
0x0040A0C8: E8 33 77 01 00       call 0x421800
0x0040A0CD: EB 36                jmp 0x40a105
0x0040A0CF: 6A 00                push 0
0x0040A0D1: 6A 00                push 0
0x0040A0D3: 6A 00                push 0
0x0040A0D5: 6A 01                push 1
0x0040A0D7: 6A 00                push 0
0x0040A0D9: 6A 00                push 0
0x0040A0DB: 6A 00                push 0
0x0040A0DD: 6A 00                push 0
0x0040A0DF: 6A 00                push 0
0x0040A0E1: 6A 01                push 1
0x0040A0E3: 8D 4D FC             lea ecx, [ebp - 4]
0x0040A0E6: E8 F5 7A 27 00       call 0x681be0
0x0040A0EB: 8B 10                mov edx, dword ptr [eax]
0x0040A0ED: 8B 43 08             mov eax, dword ptr [ebx + 8]
0x0040A0F0: 6A 01                push 1
0x0040A0F2: 8D 4D E8             lea ecx, [ebp - 0x18]
0x0040A0F5: 51                   push ecx
0x0040A0F6: 52                   push edx
0x0040A0F7: 50                   push eax
0x0040A0F8: E8 63 F6 0A 00       call 0x4b9760
0x0040A0FD: 83 C4 10             add esp, 0x10
0x0040A100: A3 A8 FE B2 00       mov dword ptr [0xb2fea8], eax
0x0040A105: A1 A8 FE B2 00       mov eax, dword ptr [0xb2fea8]
0x0040A10A: 85 C0                test eax, eax
0x0040A10C: 75 31                jne 0x40a13f
0x0040A10E: 50                   push eax
0x0040A10F: 50                   push eax
0x0040A110: 50                   push eax
0x0040A111: 6A 01                push 1
0x0040A113: 50                   push eax
0x0040A114: 50                   push eax
0x0040A115: 50                   push eax
0x0040A116: 50                   push eax
0x0040A117: 50                   push eax
0x0040A118: 6A 01                push 1
0x0040A11A: 8D 4D FC             lea ecx, [ebp - 4]
0x0040A11D: E8 BE 7A 27 00       call 0x681be0
0x0040A122: 8B 10                mov edx, dword ptr [eax]
0x0040A124: 6A 01                push 1
0x0040A126: 8D 4D E8             lea ecx, [ebp - 0x18]
0x0040A129: 51                   push ecx
0x0040A12A: 52                   push edx
0x0040A12B: 68 80 2F 9E 00       push 0x9e2f80
0x0040A130: E8 2B F6 0A 00       call 0x4b9760
0x0040A135: 83 C4 10             add esp, 0x10
0x0040A138: A3 A8 FE B2 00       mov dword ptr [0xb2fea8], eax
0x0040A13D: 85 C0                test eax, eax
0x0040A13F: 8D 4D E8             lea ecx, [ebp - 0x18]
0x0040A142: 0F 95 C3             setne bl
0x0040A145: E8 B6 23 07 00       call 0x47c500
0x0040A14A: 8A C3                mov al, bl
0x0040A14C: 8D 65 DC             lea esp, [ebp - 0x24]
0x0040A14F: 5F                   pop edi
0x0040A150: 5E                   pop esi
0x0040A151: 5B                   pop ebx
0x0040A152: 8B E5                mov esp, ebp
0x0040A154: 5D                   pop ebp
0x0040A155: C3                   ret
0x0040A156: CC                   int3
0x0040A157: CC                   int3
0x0040A158: CC                   int3
0x0040A159: CC                   int3
0x0040A15A: CC                   int3
0x0040A15B: CC                   int3
0x0040A15C: CC                   int3
0x0040A15D: CC                   int3
0x0040A15E: CC                   int3
0x0040A15F: CC                   int3
0x0040A160: 55                   push ebp
0x0040A161: 8B EC                mov ebp, esp
0x0040A163: 81 EC 1C 01 00 00    sub esp, 0x11c
0x0040A169: 8D 45 F4             lea eax, [ebp - 0xc]
0x0040A16C: 8B C8                mov ecx, eax
0x0040A16E: 83 C9 01             or ecx, 1
0x0040A171: 83 3D 74 FE B2 00 00 cmp dword ptr [0xb2fe74], 0
0x0040A178: C7 45 EC 6C 2F 9E 00 mov dword ptr [ebp - 0x14], 0x9e2f6c
0x0040A17F: C7 45 F0 08 00 00 00 mov dword ptr [ebp - 0x10], 8
0x0040A186: 89 45 F4             mov dword ptr [ebp - 0xc], eax
0x0040A189: 89 4D F8             mov dword ptr [ebp - 8], ecx
0x0040A18C: C7 45 FC 00 00 00 00 mov dword ptr [ebp - 4], 0
0x0040A193: 75 49                jne 0x40a1de
0x0040A195: 6A 00                push 0
0x0040A197: 6A 00                push 0
0x0040A199: 6A 00                push 0
0x0040A19B: 6A 01                push 1
0x0040A19D: 6A 00                push 0
0x0040A19F: 6A 00                push 0
0x0040A1A1: 6A 00                push 0
0x0040A1A3: 6A 00                push 0
0x0040A1A5: 6A 00                push 0
0x0040A1A7: 6A 01                push 1
0x0040A1A9: 8D 4D E8             lea ecx, [ebp - 0x18]
0x0040A1AC: E8 2F 7A 27 00       call 0x681be0
0x0040A1B1: 8B 00                mov eax, dword ptr [eax]
0x0040A1B3: 6A 01                push 1
0x0040A1B5: 8D 55 EC             lea edx, [ebp - 0x14]
0x0040A1B8: 52                   push edx
0x0040A1B9: 50                   push eax
0x0040A1BA: 68 C4 2F 9E 00       push 0x9e2fc4
0x0040A1BF: E8 9C F5 0A 00       call 0x4b9760
0x0040A1C4: 83 C4 10             add esp, 0x10
0x0040A1C7: 85 C0                test eax, eax
0x0040A1C9: A3 74 FE B2 00       mov dword ptr [0xb2fe74], eax
0x0040A1CE: 75 0E                jne 0x40a1de
0x0040A1D0: 8D 4D EC             lea ecx, [ebp - 0x14]
0x0040A1D3: E8 28 23 07 00       call 0x47c500
0x0040A1D8: 32 C0                xor al, al
0x0040A1DA: 8B E5                mov esp, ebp
0x0040A1DC: 5D                   pop ebp
0x0040A1DD: C3                   ret
0x0040A1DE: 56                   push esi
0x0040A1DF: 33 F6                xor esi, esi
0x0040A1E1: 57                   push edi
0x0040A1E2: 8D 7E 01             lea edi, [esi + 1]
0x0040A1E5: 57                   push edi
0x0040A1E6: 68 A0 2F 9E 00       push 0x9e2fa0
0x0040A1EB: 8D 8D E4 FE FF FF    lea ecx, [ebp - 0x11c]
0x0040A1F1: 68 04 01 00 00       push 0x104
0x0040A1F6: 51                   push ecx
0x0040A1F7: E8 74 4E 36 00       call 0x76f070
0x0040A1FC: 83 C4 10             add esp, 0x10
0x0040A1FF: 6A 00                push 0
0x0040A201: 6A 00                push 0
0x0040A203: 6A 00                push 0
0x0040A205: 6A 01                push 1
0x0040A207: 6A 00                push 0
0x0040A209: 6A 00                push 0
0x0040A20B: 6A 00                push 0
0x0040A20D: 6A 00                push 0
0x0040A20F: 6A 00                push 0
0x0040A211: 6A 01                push 1
0x0040A213: 8D 4D E8             lea ecx, [ebp - 0x18]
0x0040A216: E8 C5 79 27 00       call 0x681be0
0x0040A21B: 8B 00                mov eax, dword ptr [eax]
0x0040A21D: 6A 01                push 1
0x0040A21F: 8D 55 EC             lea edx, [ebp - 0x14]
0x0040A222: 52                   push edx
0x0040A223: 50                   push eax
0x0040A224: 8D 8D E4 FE FF FF    lea ecx, [ebp - 0x11c]
0x0040A22A: 51                   push ecx
0x0040A22B: E8 30 F5 0A 00       call 0x4b9760
0x0040A230: 83 C4 10             add esp, 0x10
0x0040A233: 85 C0                test eax, eax
0x0040A235: 89 04 B5 78 FE B2 00 mov dword ptr [esi*4 + 0xb2fe78], eax
0x0040A23C: 74 17                je 0x40a255
0x0040A23E: 8B F7                mov esi, edi
0x0040A240: 83 FE 0C             cmp esi, 0xc
0x0040A243: 72 9D                jb 0x40a1e2
0x0040A245: 8D 4D EC             lea ecx, [ebp - 0x14]
0x0040A248: E8 B3 22 07 00       call 0x47c500
0x0040A24D: 5F                   pop edi
0x0040A24E: B0 01                mov al, 1
0x0040A250: 5E                   pop esi
0x0040A251: 8B E5                mov esp, ebp
0x0040A253: 5D                   pop ebp
0x0040A254: C3                   ret
0x0040A255: 8D 4D EC             lea ecx, [ebp - 0x14]
0x0040A258: E8 A3 22 07 00       call 0x47c500
0x0040A25D: 5F                   pop edi
0x0040A25E: 32 C0                xor al, al
0x0040A260: 5E                   pop esi
0x0040A261: 8B E5                mov esp, ebp
0x0040A263: 5D                   pop ebp
0x0040A264: C3                   ret
0x0040A265: CC                   int3
0x0040A266: CC                   int3
0x0040A267: CC                   int3
0x0040A268: CC                   int3
0x0040A269: CC                   int3
0x0040A26A: CC                   int3
0x0040A26B: CC                   int3
0x0040A26C: CC                   int3
0x0040A26D: CC                   int3
0x0040A26E: CC                   int3
0x0040A26F: CC                   int3
0x0040A270: 55                   push ebp
0x0040A271: 8B EC                mov ebp, esp
0x0040A273: 8B 0D 88 DF C5 00    mov ecx, dword ptr [0xc5df88]
0x0040A279: 81 EC EC 00 00 00    sub esp, 0xec
0x0040A27F: 85 C9                test ecx, ecx
0x0040A281: 0F 84 04 04 00 00    je 0x40a68b
0x0040A287: 56                   push esi
0x0040A288: 83 CE FF             or esi, 0xffffffff
0x0040A28B: 56                   push esi
0x0040A28C: E8 8F 8B 27 00       call 0x682e20
0x0040A291: 85 C0                test eax, eax
0x0040A293: 0F 84 F1 03 00 00    je 0x40a68a
0x0040A299: 8B 0D 88 DF C5 00    mov ecx, dword ptr [0xc5df88]
0x0040A29F: 85 C9                test ecx, ecx
0x0040A2A1: 0F 84 E3 03 00 00    je 0x40a68a
0x0040A2A7: 56                   push esi
0x0040A2A8: E8 13 8B 27 00       call 0x682dc0
0x0040A2AD: 85 C0                test eax, eax
0x0040A2AF: 0F 84 D5 03 00 00    je 0x40a68a
0x0040A2B5: D9 05 F4 2F 9E 00    fld dword ptr [0x9e2ff4]
0x0040A2BB: D8 1D AC FE B2 00    fcomp dword ptr [0xb2feac]
0x0040A2C1: DF E0                fnstsw ax
0x0040A2C3: F6 C4 05             test ah, 5
0x0040A2C6: 7A 0D                jp 0x40a2d5
0x0040A2C8: E8 33 F5 FF FF       call 0x409800
0x0040A2CD: 85 C0                test eax, eax
0x0040A2CF: 0F 84 B5 03 00 00    je 0x40a68a
0x0040A2D5: 83 3D A8 FE B2 00 00 cmp dword ptr [0xb2fea8], 0
0x0040A2DC: 75 17                jne 0x40a2f5
0x0040A2DE: 39 35 BC 63 AB 00    cmp dword ptr [0xab63bc], esi
0x0040A2E4: 74 0F                je 0x40a2f5
0x0040A2E6: E8 E5 FB FF FF       call 0x409ed0
0x0040A2EB: 84 C0                test al, al
0x0040A2ED: 75 06                jne 0x40a2f5
0x0040A2EF: 89 35 BC 63 AB 00    mov dword ptr [0xab63bc], esi
0x0040A2F5: 8D 45 D8             lea eax, [ebp - 0x28]
0x0040A2F8: 50                   push eax
0x0040A2F9: 8D 4D E8             lea ecx, [ebp - 0x18]
0x0040A2FC: 51                   push ecx
0x0040A2FD: 8D 55 DC             lea edx, [ebp - 0x24]
0x0040A300: 52                   push edx
0x0040A301: 8D 45 D4             lea eax, [ebp - 0x2c]
0x0040A304: 50                   push eax
0x0040A305: 8D 4D E4             lea ecx, [ebp - 0x1c]
0x0040A308: 51                   push ecx
0x0040A309: 8D 55 E0             lea edx, [ebp - 0x20]
0x0040A30C: 52                   push edx
0x0040A30D: E8 5E DD FF FF       call 0x408070
0x0040A312: D9 EE                fldz
0x0040A314: D9 55 F0             fst dword ptr [ebp - 0x10]
0x0040A317: D9 55 F8             fst dword ptr [ebp - 8]
0x0040A31A: D9 E8                fld1
0x0040A31C: D9 55 F4             fst dword ptr [ebp - 0xc]
0x0040A31F: D9 55 EC             fst dword ptr [ebp - 0x14]
0x0040A322: D9 54 24 14          fst dword ptr [esp + 0x14]
0x0040A326: D9 C9                fxch st(1)
0x0040A328: D9 54 24 10          fst dword ptr [esp + 0x10]
0x0040A32C: D9 C9                fxch st(1)
0x0040A32E: D9 54 24 0C          fst dword ptr [esp + 0xc]
0x0040A332: D9 C9                fxch st(1)
0x0040A334: D9 54 24 08          fst dword ptr [esp + 8]
0x0040A338: D9 C9                fxch st(1)
0x0040A33A: D9 5C 24 04          fstp dword ptr [esp + 4]
0x0040A33E: D9 1C 24             fstp dword ptr [esp]
0x0040A341: E8 1A 7C 27 00       call 0x681f60
0x0040A346: C6 45 FC 00          mov byte ptr [ebp - 4], 0
0x0040A34A: C6 45 FD 00          mov byte ptr [ebp - 3], 0
0x0040A34E: C6 45 FE 00          mov byte ptr [ebp - 2], 0
0x0040A352: C6 45 FF FF          mov byte ptr [ebp - 1], 0xff
0x0040A356: 8B 45 FC             mov eax, dword ptr [ebp - 4]
0x0040A359: 50                   push eax
0x0040A35A: 6A 01                push 1
0x0040A35C: E8 4F 70 27 00       call 0x6813b0
0x0040A361: 83 C4 20             add esp, 0x20
0x0040A364: E8 77 1C 07 00       call 0x47bfe0
0x0040A369: 80 3D D8 FE B2 00 00 cmp byte ptr [0xb2fed8], 0
0x0040A370: 74 10                je 0x40a382
0x0040A372: D9 05 B8 63 AB 00    fld dword ptr [0xab63b8]
0x0040A378: D8 35 B4 63 AB 00    fdiv dword ptr [0xab63b4]
0x0040A37E: D9 E8                fld1
0x0040A380: EB 06                jmp 0x40a388
0x0040A382: D9 E8                fld1
0x0040A384: D9 C0                fld st(0)
0x0040A386: D9 C9                fxch st(1)
0x0040A388: D9 CA                fxch st(2)
0x0040A38A: DE F1                fdivrp st(1)
0x0040A38C: D8 D1                fcom st(1)
0x0040A38E: DF E0                fnstsw ax
0x0040A390: F6 C4 41             test ah, 0x41
0x0040A393: 75 11                jne 0x40a3a6
0x0040A395: D8 F9                fdivr st(1)
0x0040A397: D9 C1                fld st(1)
0x0040A399: D8 E1                fsub st(1)
0x0040A39B: D8 0D C4 2E 9E 00    fmul dword ptr [0x9e2ec4]
0x0040A3A1: D9 45 F8             fld dword ptr [ebp - 8]
0x0040A3A4: EB 2D                jmp 0x40a3d3
0x0040A3A6: D8 D1                fcom st(1)
0x0040A3A8: DF E0                fnstsw ax
0x0040A3AA: F6 C4 05             test ah, 5
0x0040A3AD: 7A 15                jp 0x40a3c4
0x0040A3AF: D9 55 EC             fst dword ptr [ebp - 0x14]
0x0040A3B2: D8 E9                fsubr st(1)
0x0040A3B4: D8 0D C4 2E 9E 00    fmul dword ptr [0x9e2ec4]
0x0040A3BA: D9 45 F0             fld dword ptr [ebp - 0x10]
0x0040A3BD: D9 45 F4             fld dword ptr [ebp - 0xc]
0x0040A3C0: D9 CA                fxch st(2)
0x0040A3C2: EB 0F                jmp 0x40a3d3
0x0040A3C4: DD D8                fstp st(0)
0x0040A3C6: D9 45 F0             fld dword ptr [ebp - 0x10]
0x0040A3C9: D9 45 F8             fld dword ptr [ebp - 8]
0x0040A3CC: D9 45 F4             fld dword ptr [ebp - 0xc]
0x0040A3CF: D9 CA                fxch st(2)
0x0040A3D1: D9 C9                fxch st(1)
0x0040A3D3: 83 EC 18             sub esp, 0x18
0x0040A3D6: D9 CB                fxch st(3)
0x0040A3D8: D9 5C 24 14          fstp dword ptr [esp + 0x14]
0x0040A3DC: D9 EE                fldz
0x0040A3DE: D9 5C 24 10          fstp dword ptr [esp + 0x10]
0x0040A3E2: D9 45 EC             fld dword ptr [ebp - 0x14]
0x0040A3E5: D8 C3                fadd st(3)
0x0040A3E7: D9 5C 24 0C          fstp dword ptr [esp + 0xc]
0x0040A3EB: D9 CA                fxch st(2)
0x0040A3ED: D9 5C 24 08          fstp dword ptr [esp + 8]
0x0040A3F1: D8 C1                fadd st(1)
0x0040A3F3: D9 5C 24 04          fstp dword ptr [esp + 4]
0x0040A3F7: D9 1C 24             fstp dword ptr [esp]
0x0040A3FA: E8 61 7B 27 00       call 0x681f60
0x0040A3FF: D9 E8                fld1
0x0040A401: 83 C4 18             add esp, 0x18
0x0040A404: D9 95 14 FF FF FF    fst dword ptr [ebp - 0xec]
0x0040A40A: 8D 8D 54 FF FF FF    lea ecx, [ebp - 0xac]
0x0040A410: D9 EE                fldz
0x0040A412: 51                   push ecx
0x0040A413: D9 95 18 FF FF FF    fst dword ptr [ebp - 0xe8]
0x0040A419: 83 EC 18             sub esp, 0x18
0x0040A41C: D9 95 1C FF FF FF    fst dword ptr [ebp - 0xe4]
0x0040A422: D9 95 20 FF FF FF    fst dword ptr [ebp - 0xe0]
0x0040A428: D9 95 24 FF FF FF    fst dword ptr [ebp - 0xdc]
0x0040A42E: D9 95 2C FF FF FF    fst dword ptr [ebp - 0xd4]
0x0040A434: D9 95 30 FF FF FF    fst dword ptr [ebp - 0xd0]
0x0040A43A: D9 95 34 FF FF FF    fst dword ptr [ebp - 0xcc]
0x0040A440: D9 95 38 FF FF FF    fst dword ptr [ebp - 0xc8]
0x0040A446: D9 95 40 FF FF FF    fst dword ptr [ebp - 0xc0]
0x0040A44C: D9 95 44 FF FF FF    fst dword ptr [ebp - 0xbc]
0x0040A452: D9 95 48 FF FF FF    fst dword ptr [ebp - 0xb8]
0x0040A458: D9 95 4C FF FF FF    fst dword ptr [ebp - 0xb4]
0x0040A45E: D9 95 58 FF FF FF    fst dword ptr [ebp - 0xa8]
0x0040A464: D9 95 5C FF FF FF    fst dword ptr [ebp - 0xa4]
0x0040A46A: D9 95 60 FF FF FF    fst dword ptr [ebp - 0xa0]
0x0040A470: D9 95 64 FF FF FF    fst dword ptr [ebp - 0x9c]
0x0040A476: D9 95 6C FF FF FF    fst dword ptr [ebp - 0x94]
0x0040A47C: D9 95 70 FF FF FF    fst dword ptr [ebp - 0x90]
0x0040A482: D9 95 74 FF FF FF    fst dword ptr [ebp - 0x8c]
0x0040A488: D9 95 78 FF FF FF    fst dword ptr [ebp - 0x88]
0x0040A48E: D9 55 80             fst dword ptr [ebp - 0x80]
0x0040A491: D9 55 84             fst dword ptr [ebp - 0x7c]
0x0040A494: D9 55 88             fst dword ptr [ebp - 0x78]
0x0040A497: D9 55 8C             fst dword ptr [ebp - 0x74]
0x0040A49A: D9 C9                fxch st(1)
0x0040A49C: D9 95 28 FF FF FF    fst dword ptr [ebp - 0xd8]
0x0040A4A2: D9 95 3C FF FF FF    fst dword ptr [ebp - 0xc4]
0x0040A4A8: D9 95 50 FF FF FF    fst dword ptr [ebp - 0xb0]
0x0040A4AE: D9 95 54 FF FF FF    fst dword ptr [ebp - 0xac]
0x0040A4B4: D9 95 68 FF FF FF    fst dword ptr [ebp - 0x98]
0x0040A4BA: D9 95 7C FF FF FF    fst dword ptr [ebp - 0x84]
0x0040A4C0: D9 55 90             fst dword ptr [ebp - 0x70]
0x0040A4C3: D9 05 68 2F 9E 00    fld dword ptr [0x9e2f68]
0x0040A4C9: D9 5C 24 14          fstp dword ptr [esp + 0x14]
0x0040A4CD: D9 C9                fxch st(1)
0x0040A4CF: D9 54 24 10          fst dword ptr [esp + 0x10]
0x0040A4D3: D9 C9                fxch st(1)
0x0040A4D5: D9 54 24 0C          fst dword ptr [esp + 0xc]
0x0040A4D9: D9 C9                fxch st(1)
0x0040A4DB: D9 54 24 08          fst dword ptr [esp + 8]
0x0040A4DF: D9 C9                fxch st(1)
0x0040A4E1: D9 5C 24 04          fstp dword ptr [esp + 4]
0x0040A4E5: D9 1C 24             fstp dword ptr [esp]
0x0040A4E8: E8 D3 4F 2B 00       call 0x6bf4c0
0x0040A4ED: 8B 0D 88 DF C5 00    mov ecx, dword ptr [0xc5df88]
0x0040A4F3: 8B 11                mov edx, dword ptr [ecx]
0x0040A4F5: 8B 92 A4 00 00 00    mov edx, dword ptr [edx + 0xa4]
0x0040A4FB: 83 C4 1C             add esp, 0x1c
0x0040A4FE: 8D 85 14 FF FF FF    lea eax, [ebp - 0xec]
0x0040A504: 50                   push eax
0x0040A505: FF D2                call edx
0x0040A507: 8B 0D 88 DF C5 00    mov ecx, dword ptr [0xc5df88]
0x0040A50D: 8B 01                mov eax, dword ptr [ecx]
0x0040A50F: 8B 80 A0 00 00 00    mov eax, dword ptr [eax + 0xa0]
0x0040A515: 8D 95 54 FF FF FF    lea edx, [ebp - 0xac]
0x0040A51B: 52                   push edx
0x0040A51C: FF D0                call eax
0x0040A51E: 8B 0D 88 DF C5 00    mov ecx, dword ptr [0xc5df88]
0x0040A524: E8 47 F1 FF FF       call 0x409670
0x0040A529: D9 E8                fld1
0x0040A52B: 8B 0D 64 FE B2 00    mov ecx, dword ptr [0xb2fe64]
0x0040A531: D9 55 94             fst dword ptr [ebp - 0x6c]
0x0040A534: D9 EE                fldz
0x0040A536: D9 55 98             fst dword ptr [ebp - 0x68]
0x0040A539: D9 55 9C             fst dword ptr [ebp - 0x64]
0x0040A53C: D9 55 A0             fst dword ptr [ebp - 0x60]
0x0040A53F: D9 55 A4             fst dword ptr [ebp - 0x5c]
0x0040A542: D9 55 AC             fst dword ptr [ebp - 0x54]
0x0040A545: D9 55 B0             fst dword ptr [ebp - 0x50]
0x0040A548: D9 55 B4             fst dword ptr [ebp - 0x4c]
0x0040A54B: D9 55 B8             fst dword ptr [ebp - 0x48]
0x0040A54E: D9 55 C0             fst dword ptr [ebp - 0x40]
0x0040A551: D9 55 C4             fst dword ptr [ebp - 0x3c]
0x0040A554: D9 55 C8             fst dword ptr [ebp - 0x38]
0x0040A557: D9 5D CC             fstp dword ptr [ebp - 0x34]
0x0040A55A: D9 55 A8             fst dword ptr [ebp - 0x58]
0x0040A55D: D9 55 BC             fst dword ptr [ebp - 0x44]
0x0040A560: D9 5D D0             fstp dword ptr [ebp - 0x30]
0x0040A563: E8 E8 F4 27 00       call 0x689a50
0x0040A568: 85 C0                test eax, eax
0x0040A56A: 74 54                je 0x40a5c0
0x0040A56C: 8B 0D 60 FE B2 00    mov ecx, dword ptr [0xb2fe60]
0x0040A572: E8 D9 F4 27 00       call 0x689a50
0x0040A577: 85 C0                test eax, eax
0x0040A579: 74 45                je 0x40a5c0
0x0040A57B: 8B 0D 64 FE B2 00    mov ecx, dword ptr [0xb2fe64]
0x0040A581: 51                   push ecx
0x0040A582: 8B 0D 88 DF C5 00    mov ecx, dword ptr [0xc5df88]
0x0040A588: 6A 4D                push 0x4d
0x0040A58A: E8 C1 B9 27 00       call 0x685f50
0x0040A58F: 8B 15 60 FE B2 00    mov edx, dword ptr [0xb2fe60]
0x0040A595: 8B 0D 88 DF C5 00    mov ecx, dword ptr [0xc5df88]
0x0040A59B: 52                   push edx
0x0040A59C: 6A 4E                push 0x4e
0x0040A59E: E8 AD B9 27 00       call 0x685f50
0x0040A5A3: 8D 45 94             lea eax, [ebp - 0x6c]
0x0040A5A6: 50                   push eax
0x0040A5A7: E8 64 DB FF FF       call 0x408110
0x0040A5AC: 6A 04                push 4
0x0040A5AE: 8D 4D 94             lea ecx, [ebp - 0x6c]
0x0040A5B1: 51                   push ecx
0x0040A5B2: 6A 00                push 0
0x0040A5B4: 6A 00                push 0
0x0040A5B6: E8 55 DC FF FF       call 0x408210
0x0040A5BB: 83 C4 14             add esp, 0x14
0x0040A5BE: EB 0C                jmp 0x40a5cc
0x0040A5C0: 6A 00                push 0
0x0040A5C2: 6A 0B                push 0xb
0x0040A5C4: E8 27 E6 FF FF       call 0x408bf0
0x0040A5C9: 83 C4 08             add esp, 8
0x0040A5CC: 8B 0D 88 DF C5 00    mov ecx, dword ptr [0xc5df88]
0x0040A5D2: 83 B9 58 0F 00 00 00 cmp dword ptr [ecx + 0xf58], 0
0x0040A5D9: 74 1E                je 0x40a5f9
0x0040A5DB: 8B B1 F4 28 00 00    mov esi, dword ptr [ecx + 0x28f4]
0x0040A5E1: 81 C6 20 01 00 00    add esi, 0x120
0x0040A5E7: 83 3E 00             cmp dword ptr [esi], 0
0x0040A5EA: 74 0D                je 0x40a5f9
0x0040A5EC: 6A 0C                push 0xc
0x0040A5EE: E8 7D B3 27 00       call 0x685970
0x0040A5F3: C7 06 00 00 00 00    mov dword ptr [esi], 0
0x0040A5F9: E8 12 EA FF FF       call 0x409010
0x0040A5FE: 84 C0                test al, al
0x0040A600: 75 49                jne 0x40a64b
0x0040A602: E8 99 DF FF FF       call 0x4085a0
0x0040A607: 8B 0D 64 FE B2 00    mov ecx, dword ptr [0xb2fe64]
0x0040A60D: E8 3E F4 27 00       call 0x689a50
0x0040A612: 85 C0                test eax, eax
0x0040A614: 74 21                je 0x40a637
0x0040A616: 8B 0D 60 FE B2 00    mov ecx, dword ptr [0xb2fe60]
0x0040A61C: E8 2F F4 27 00       call 0x689a50
0x0040A621: 85 C0                test eax, eax
0x0040A623: 74 12                je 0x40a637
0x0040A625: 6A 04                push 4
0x0040A627: 8D 55 94             lea edx, [ebp - 0x6c]
0x0040A62A: 52                   push edx
0x0040A62B: 6A 00                push 0
0x0040A62D: 6A 00                push 0
0x0040A62F: E8 DC DB FF FF       call 0x408210
0x0040A634: 83 C4 10             add esp, 0x10
0x0040A637: 68 CC FE B2 00       push 0xb2fecc
0x0040A63C: 6A 02                push 2
0x0040A63E: BA FC 2D 9E 00       mov edx, 0x9e2dfc
0x0040A643: E8 78 EA FF FF       call 0x4090c0
0x0040A648: 83 C4 08             add esp, 8
0x0040A64B: 8B 0D 88 DF C5 00    mov ecx, dword ptr [0xc5df88]
0x0040A651: E8 5A B9 27 00       call 0x685fb0
0x0040A656: D9 45 D8             fld dword ptr [ebp - 0x28]
0x0040A659: 83 EC 18             sub esp, 0x18
0x0040A65C: D9 5C 24 14          fstp dword ptr [esp + 0x14]
0x0040A660: D9 45 E8             fld dword ptr [ebp - 0x18]
0x0040A663: D9 5C 24 10          fstp dword ptr [esp + 0x10]
0x0040A667: D9 45 DC             fld dword ptr [ebp - 0x24]
0x0040A66A: D9 5C 24 0C          fstp dword ptr [esp + 0xc]
0x0040A66E: D9 45 D4             fld dword ptr [ebp - 0x2c]
0x0040A671: D9 5C 24 08          fstp dword ptr [esp + 8]
0x0040A675: D9 45 E4             fld dword ptr [ebp - 0x1c]
0x0040A678: D9 5C 24 04          fstp dword ptr [esp + 4]
0x0040A67C: D9 45 E0             fld dword ptr [ebp - 0x20]
0x0040A67F: D9 1C 24             fstp dword ptr [esp]
0x0040A682: E8 D9 78 27 00       call 0x681f60
0x0040A687: 83 C4 18             add esp, 0x18
0x0040A68A: 5E                   pop esi
0x0040A68B: 8B E5                mov esp, ebp
0x0040A68D: 5D                   pop ebp
0x0040A68E: C3                   ret
0x0040A68F: CC                   int3
0x0040A690: 55                   push ebp
0x0040A691: 8B EC                mov ebp, esp
0x0040A693: 83 EC 28             sub esp, 0x28
0x0040A696: 83 3D C0 FE B2 00 00 cmp dword ptr [0xb2fec0], 0
0x0040A69D: 0F 85 BE 00 00 00    jne 0x40a761
0x0040A6A3: 8D 45 E0             lea eax, [ebp - 0x20]
0x0040A6A6: 56                   push esi
0x0040A6A7: 8B C8                mov ecx, eax
0x0040A6A9: 83 C9 01             or ecx, 1
0x0040A6AC: 57                   push edi
0x0040A6AD: C7 45 D8 6C 2F 9E 00 mov dword ptr [ebp - 0x28], 0x9e2f6c
0x0040A6B4: C7 45 DC 08 00 00 00 mov dword ptr [ebp - 0x24], 8
0x0040A6BB: 89 45 E0             mov dword ptr [ebp - 0x20], eax
0x0040A6BE: 89 4D E4             mov dword ptr [ebp - 0x1c], ecx
0x0040A6C1: C7 45 E8 00 00 00 00 mov dword ptr [ebp - 0x18], 0
0x0040A6C8: BF C4 FE B2 00       mov edi, 0xb2fec4
0x0040A6CD: BE 2C 2E 9E 00       mov esi, 0x9e2e2c
0x0040A6D2: 83 3F 00             cmp dword ptr [edi], 0
0x0040A6D5: 75 32                jne 0x40a709
0x0040A6D7: 6A 00                push 0
0x0040A6D9: 6A 00                push 0
0x0040A6DB: 6A 00                push 0
0x0040A6DD: 6A 01                push 1
0x0040A6DF: 6A 00                push 0
0x0040A6E1: 6A 00                push 0
0x0040A6E3: 6A 00                push 0
0x0040A6E5: 6A 00                push 0
0x0040A6E7: 6A 00                push 0
0x0040A6E9: 6A 01                push 1
0x0040A6EB: 8D 4D FC             lea ecx, [ebp - 4]
0x0040A6EE: E8 ED 74 27 00       call 0x681be0
0x0040A6F3: 8B 00                mov eax, dword ptr [eax]
0x0040A6F5: 8B 0E                mov ecx, dword ptr [esi]
0x0040A6F7: 6A 00                push 0
0x0040A6F9: 8D 55 D8             lea edx, [ebp - 0x28]
0x0040A6FC: 52                   push edx
0x0040A6FD: 50                   push eax
0x0040A6FE: 51                   push ecx
0x0040A6FF: E8 5C F0 0A 00       call 0x4b9760
0x0040A704: 83 C4 10             add esp, 0x10
0x0040A707: 89 07                mov dword ptr [edi], eax
0x0040A709: 83 C6 18             add esi, 0x18
0x0040A70C: 83 C7 04             add edi, 4
0x0040A70F: 81 FE 5C 2E 9E 00    cmp esi, 0x9e2e5c
0x0040A715: 7C BB                jl 0x40a6d2
0x0040A717: D9 EE                fldz
0x0040A719: 68 C0 FE B2 00       push 0xb2fec0
0x0040A71E: D9 55 EC             fst dword ptr [ebp - 0x14]
0x0040A721: 68 10 9B 40 00       push 0x409b10
0x0040A726: D9 5D F0             fstp dword ptr [ebp - 0x10]
0x0040A729: 6A 00                push 0
0x0040A72B: D9 E8                fld1
0x0040A72D: 6A 03                push 3
0x0040A72F: D9 55 F4             fst dword ptr [ebp - 0xc]
0x0040A732: 51                   push ecx
0x0040A733: D9 5D F8             fstp dword ptr [ebp - 8]
0x0040A736: 8D 55 EC             lea edx, [ebp - 0x14]
0x0040A739: D9 05 F8 2F 9E 00    fld dword ptr [0x9e2ff8]
0x0040A73F: D9 1C 24             fstp dword ptr [esp]
0x0040A742: 52                   push edx
0x0040A743: E8 68 E4 09 00       call 0x4a8bb0
0x0040A748: D9 05 C4 2E 9E 00    fld dword ptr [0x9e2ec4]
0x0040A74E: 83 C4 18             add esp, 0x18
0x0040A751: D9 1D AC FE B2 00    fstp dword ptr [0xb2feac]
0x0040A757: 8D 4D D8             lea ecx, [ebp - 0x28]
0x0040A75A: E8 A1 1D 07 00       call 0x47c500
0x0040A75F: 5F                   pop edi
0x0040A760: 5E                   pop esi
0x0040A761: 8B E5                mov esp, ebp
0x0040A763: 5D                   pop ebp
0x0040A764: C3                   ret
0x0040A765: CC                   int3
0x0040A766: CC                   int3
0x0040A767: CC                   int3
0x0040A768: CC                   int3
0x0040A769: CC                   int3
0x0040A76A: CC                   int3
0x0040A76B: CC                   int3
0x0040A76C: CC                   int3
0x0040A76D: CC                   int3
0x0040A76E: CC                   int3
0x0040A76F: CC                   int3
0x0040A770: 55                   push ebp
0x0040A771: 8B EC                mov ebp, esp
0x0040A773: E8 18 FF FF FF       call 0x40a690
0x0040A778: D9 45 08             fld dword ptr [ebp + 8]
0x0040A77B: D9 1D AC FE B2 00    fstp dword ptr [0xb2feac]
0x0040A781: 5D                   pop ebp
0x0040A782: C3                   ret
0x0040A783: CC                   int3
0x0040A784: CC                   int3
0x0040A785: CC                   int3
0x0040A786: CC                   int3
0x0040A787: CC                   int3
0x0040A788: CC                   int3
0x0040A789: CC                   int3
0x0040A78A: CC                   int3
0x0040A78B: CC                   int3
0x0040A78C: CC                   int3
0x0040A78D: CC                   int3
0x0040A78E: CC                   int3
0x0040A78F: CC                   int3
0x0040A790: 55                   push ebp
0x0040A791: 8B EC                mov ebp, esp
0x0040A793: 51                   push ecx
0x0040A794: 53                   push ebx
0x0040A795: 57                   push edi
0x0040A796: 8B F9                mov edi, ecx
0x0040A798: 33 DB                xor ebx, ebx
0x0040A79A: 39 5F 04             cmp dword ptr [edi + 4], ebx
0x0040A79D: 76 37                jbe 0x40a7d6
0x0040A79F: 89 5D FC             mov dword ptr [ebp - 4], ebx
0x0040A7A2: 56                   push esi
0x0040A7A3: 8B 77 08             mov esi, dword ptr [edi + 8]
0x0040A7A6: 03 75 FC             add esi, dword ptr [ebp - 4]
0x0040A7A9: 8B 46 08             mov eax, dword ptr [esi + 8]
0x0040A7AC: 85 C0                test eax, eax
0x0040A7AE: 74 0F                je 0x40a7bf
0x0040A7B0: 6A 00                push 0
0x0040A7B2: 6A FE                push -2
0x0040A7B4: 68 8C 65 AB 00       push 0xab658c
0x0040A7B9: 50                   push eax
0x0040A7BA: E8 E1 3D 36 00       call 0x76e5a0
0x0040A7BF: 83 45 FC 10          add dword ptr [ebp - 4], 0x10
0x0040A7C3: 33 C0                xor eax, eax
0x0040A7C5: 83 C3 01             add ebx, 1
0x0040A7C8: 89 06                mov dword ptr [esi], eax
0x0040A7CA: 89 46 04             mov dword ptr [esi + 4], eax
0x0040A7CD: 89 46 08             mov dword ptr [esi + 8], eax
0x0040A7D0: 3B 5F 04             cmp ebx, dword ptr [edi + 4]
0x0040A7D3: 72 CE                jb 0x40a7a3
0x0040A7D5: 5E                   pop esi
0x0040A7D6: 8B 7F 08             mov edi, dword ptr [edi + 8]
0x0040A7D9: 85 FF                test edi, edi
0x0040A7DB: 74 0F                je 0x40a7ec
0x0040A7DD: 6A 00                push 0
0x0040A7DF: 6A FE                push -2
0x0040A7E1: 68 B8 64 AB 00       push 0xab64b8
0x0040A7E6: 57                   push edi
0x0040A7E7: E8 B4 3D 36 00       call 0x76e5a0
0x0040A7EC: 5F                   pop edi
0x0040A7ED: 5B                   pop ebx
0x0040A7EE: 8B E5                mov esp, ebp
0x0040A7F0: 5D                   pop ebp
0x0040A7F1: C3                   ret
0x0040A7F2: CC                   int3
0x0040A7F3: CC                   int3
0x0040A7F4: CC                   int3
0x0040A7F5: CC                   int3
0x0040A7F6: CC                   int3
0x0040A7F7: CC                   int3
0x0040A7F8: CC                   int3
0x0040A7F9: CC                   int3
0x0040A7FA: CC                   int3
0x0040A7FB: CC                   int3
0x0040A7FC: CC                   int3
0x0040A7FD: CC                   int3
0x0040A7FE: CC                   int3
0x0040A7FF: CC                   int3
0x0040A800: 55                   push ebp
0x0040A801: 8B EC                mov ebp, esp
0x0040A803: 83 EC 08             sub esp, 8
0x0040A806: 53                   push ebx
0x0040A807: 56                   push esi
0x0040A808: 8B D9                mov ebx, ecx
0x0040A80A: 8B 43 08             mov eax, dword ptr [ebx + 8]
0x0040A80D: 57                   push edi
0x0040A80E: 8B 7D 08             mov edi, dword ptr [ebp + 8]
0x0040A811: 3B 7B 04             cmp edi, dword ptr [ebx + 4]
0x0040A814: 89 45 FC             mov dword ptr [ebp - 4], eax
0x0040A817: 89 7D 08             mov dword ptr [ebp + 8], edi
0x0040A81A: 73 3C                jae 0x40a858
0x0040A81C: 8B CF                mov ecx, edi
0x0040A81E: C1 E1 04             shl ecx, 4
0x0040A821: 8D 74 01 08          lea esi, [ecx + eax + 8]
0x0040A825: 8B 06                mov eax, dword ptr [esi]
0x0040A827: 85 C0                test eax, eax
0x0040A829: 74 0F                je 0x40a83a
0x0040A82B: 6A 00                push 0
0x0040A82D: 6A FE                push -2
0x0040A82F: 68 8C 65 AB 00       push 0xab658c
0x0040A834: 50                   push eax
0x0040A835: E8 66 3D 36 00       call 0x76e5a0
0x0040A83A: 33 C0                xor eax, eax
0x0040A83C: 89 46 F8             mov dword ptr [esi - 8], eax
0x0040A83F: 89 46 FC             mov dword ptr [esi - 4], eax
0x0040A842: 89 06                mov dword ptr [esi], eax
0x0040A844: 8B 45 08             mov eax, dword ptr [ebp + 8]
0x0040A847: 83 C0 01             add eax, 1
0x0040A84A: 83 C6 10             add esi, 0x10
0x0040A84D: 3B 43 04             cmp eax, dword ptr [ebx + 4]
0x0040A850: 89 45 08             mov dword ptr [ebp + 8], eax
0x0040A853: 72 D0                jb 0x40a825
0x0040A855: 8B 45 FC             mov eax, dword ptr [ebp - 4]
0x0040A858: 6A 10                push 0x10
0x0040A85A: 6A FE                push -2
0x0040A85C: 8B F7                mov esi, edi
0x0040A85E: 68 B8 64 AB 00       push 0xab64b8
0x0040A863: C1 E6 04             shl esi, 4
0x0040A866: 56                   push esi
0x0040A867: 50                   push eax
0x0040A868: 89 3B                mov dword ptr [ebx], edi
0x0040A86A: E8 71 3D 36 00       call 0x76e5e0
0x0040A86F: 85 C0                test eax, eax
0x0040A871: 89 43 08             mov dword ptr [ebx + 8], eax
0x0040A874: 0F 85 9D 00 00 00    jne 0x40a917
0x0040A87A: 50                   push eax
0x0040A87B: 6A FE                push -2
0x0040A87D: 68 B8 64 AB 00       push 0xab64b8
0x0040A882: 56                   push esi
0x0040A883: E8 B8 3C 36 00       call 0x76e540
0x0040A888: 89 43 08             mov dword ptr [ebx + 8], eax
0x0040A88B: 8B 45 FC             mov eax, dword ptr [ebp - 4]
0x0040A88E: 85 C0                test eax, eax
0x0040A890: 0F 84 81 00 00 00    je 0x40a917
0x0040A896: 8B 4B 04             mov ecx, dword ptr [ebx + 4]
0x0040A899: 3B F9                cmp edi, ecx
0x0040A89B: 72 02                jb 0x40a89f
0x0040A89D: 8B F9                mov edi, ecx
0x0040A89F: 85 FF                test edi, edi
0x0040A8A1: 76 65                jbe 0x40a908
0x0040A8A3: B9 F8 FF FF FF       mov ecx, 0xfffffff8
0x0040A8A8: 2B C8                sub ecx, eax
0x0040A8AA: 8D 70 08             lea esi, [eax + 8]
0x0040A8AD: 89 4D F8             mov dword ptr [ebp - 8], ecx
0x0040A8B0: 89 7D 08             mov dword ptr [ebp + 8], edi
0x0040A8B3: EB 03                jmp 0x40a8b8
0x0040A8B5: 8B 4D F8             mov ecx, dword ptr [ebp - 8]
0x0040A8B8: 8D 3C 31             lea edi, [ecx + esi]
0x0040A8BB: 03 7B 08             add edi, dword ptr [ebx + 8]
0x0040A8BE: 74 1E                je 0x40a8de
0x0040A8C0: 33 C0                xor eax, eax
0x0040A8C2: 89 07                mov dword ptr [edi], eax
0x0040A8C4: 89 47 04             mov dword ptr [edi + 4], eax
0x0040A8C7: 89 47 08             mov dword ptr [edi + 8], eax
0x0040A8CA: 8B 16                mov edx, dword ptr [esi]
0x0040A8CC: 8B 46 FC             mov eax, dword ptr [esi - 4]
0x0040A8CF: 52                   push edx
0x0040A8D0: 50                   push eax
0x0040A8D1: 8B CF                mov ecx, edi
0x0040A8D3: E8 98 EB FF FF       call 0x409470
0x0040A8D8: 8B 4E 04             mov ecx, dword ptr [esi + 4]
0x0040A8DB: 89 4F 0C             mov dword ptr [edi + 0xc], ecx
0x0040A8DE: 8B 06                mov eax, dword ptr [esi]
0x0040A8E0: 33 FF                xor edi, edi
0x0040A8E2: 3B C7                cmp eax, edi
0x0040A8E4: 74 0E                je 0x40a8f4
0x0040A8E6: 57                   push edi
0x0040A8E7: 6A FE                push -2
0x0040A8E9: 68 8C 65 AB 00       push 0xab658c
0x0040A8EE: 50                   push eax
0x0040A8EF: E8 AC 3C 36 00       call 0x76e5a0
0x0040A8F4: 89 7E F8             mov dword ptr [esi - 8], edi
0x0040A8F7: 89 7E FC             mov dword ptr [esi - 4], edi
0x0040A8FA: 89 3E                mov dword ptr [esi], edi
0x0040A8FC: 83 C6 10             add esi, 0x10
0x0040A8FF: 83 6D 08 01          sub dword ptr [ebp + 8], 1
0x0040A903: 75 B0                jne 0x40a8b5
0x0040A905: 8B 45 FC             mov eax, dword ptr [ebp - 4]
0x0040A908: 6A 00                push 0
0x0040A90A: 6A FE                push -2
0x0040A90C: 68 B8 64 AB 00       push 0xab64b8
0x0040A911: 50                   push eax
0x0040A912: E8 89 3C 36 00       call 0x76e5a0
0x0040A917: 5F                   pop edi
0x0040A918: 5E                   pop esi
0x0040A919: 5B                   pop ebx
0x0040A91A: 8B E5                mov esp, ebp
0x0040A91C: 5D                   pop ebp
0x0040A91D: C2 04 00             ret 4
0x0040A920: 55                   push ebp
0x0040A921: 8B EC                mov ebp, esp
0x0040A923: 56                   push esi
0x0040A924: E8 F7 04 46 00       call 0x86ae20
0x0040A929: 8B F0                mov esi, eax
0x0040A92B: E8 A0 27 07 00       call 0x47d0d0
0x0040A930: 50                   push eax
0x0040A931: E8 8A 2B 07 00       call 0x47d4c0
0x0040A936: 83 C4 04             add esp, 4
0x0040A939: 83 7D 08 00          cmp dword ptr [ebp + 8], 0
0x0040A93D: 75 0F                jne 0x40a94e
0x0040A93F: 8B C6                mov eax, esi
0x0040A941: 2B 05 6C FE B2 00    sub eax, dword ptr [0xb2fe6c]
0x0040A947: 3D FA 00 00 00       cmp eax, 0xfa
0x0040A94C: 72 3E                jb 0x40a98c
0x0040A94E: 6A 00                push 0
0x0040A950: 6A 00                push 0
0x0040A952: 89 35 6C FE B2 00    mov dword ptr [0xb2fe6c], esi
0x0040A958: E8 53 1B 47 00       call 0x87c4b0
0x0040A95D: 83 C4 08             add esp, 8
0x0040A960: E8 0B 42 1E 00       call 0x5eeb70
0x0040A965: 8B C6                mov eax, esi
0x0040A967: E8 B4 DB FF FF       call 0x408520
0x0040A96C: E8 5F D0 FF FF       call 0x4079d0
0x0040A971: D9 EE                fldz
0x0040A973: 51                   push ecx
0x0040A974: D9 1C 24             fstp dword ptr [esp]
0x0040A977: 6A 00                push 0
0x0040A979: 6A 00                push 0
0x0040A97B: 6A 00                push 0
0x0040A97D: E8 EE F8 FF FF       call 0x40a270
0x0040A982: 83 C4 10             add esp, 0x10
0x0040A985: 5E                   pop esi
0x0040A986: 5D                   pop ebp
0x0040A987: E9 74 80 27 00       jmp 0x682a00
0x0040A98C: 5E                   pop esi
0x0040A98D: 5D                   pop ebp
0x0040A98E: C3                   ret
0x0040A98F: CC                   int3
0x0040A990: 55                   push ebp
0x0040A991: 8B EC                mov ebp, esp
0x0040A993: A1 D4 FE B2 00       mov eax, dword ptr [0xb2fed4]
0x0040A998: 83 EC 24             sub esp, 0x24
0x0040A99B: 85 C0                test eax, eax
0x0040A99D: 74 1D                je 0x40a9bc
0x0040A99F: 50                   push eax
0x0040A9A0: E8 8B DB 09 00       call 0x4a8530
0x0040A9A5: 83 E0 FE             and eax, 0xfffffffe
0x0040A9A8: 50                   push eax
0x0040A9A9: A1 D4 FE B2 00       mov eax, dword ptr [0xb2fed4]
0x0040A9AE: 50                   push eax
0x0040A9AF: E8 8C DB 09 00       call 0x4a8540
0x0040A9B4: A1 D4 FE B2 00       mov eax, dword ptr [0xb2fed4]
0x0040A9B9: 83 C4 0C             add esp, 0xc
0x0040A9BC: 85 C0                test eax, eax
0x0040A9BE: D9 EE                fldz
0x0040A9C0: 8A 4D 08             mov cl, byte ptr [ebp + 8]
0x0040A9C3: D9 15 B8 FE B2 00    fst dword ptr [0xb2feb8]
0x0040A9C9: D9 15 B4 FE B2 00    fst dword ptr [0xb2feb4]
0x0040A9CF: 56                   push esi
0x0040A9D0: D9 15 B0 FE B2 00    fst dword ptr [0xb2feb0]
0x0040A9D6: 88 0D BC FE B2 00    mov byte ptr [0xb2febc], cl
0x0040A9DC: 0F 85 B9 00 00 00    jne 0x40aa9b
0x0040A9E2: 8D 55 E4             lea edx, [ebp - 0x1c]
0x0040A9E5: 8B C2                mov eax, edx
0x0040A9E7: 83 C8 01             or eax, 1
0x0040A9EA: 57                   push edi
0x0040A9EB: C7 45 DC 6C 2F 9E 00 mov dword ptr [ebp - 0x24], 0x9e2f6c
0x0040A9F2: C7 45 E0 08 00 00 00 mov dword ptr [ebp - 0x20], 8
0x0040A9F9: 89 55 E4             mov dword ptr [ebp - 0x1c], edx
0x0040A9FC: 89 45 E8             mov dword ptr [ebp - 0x18], eax
0x0040A9FF: C7 45 EC 00 00 00 00 mov dword ptr [ebp - 0x14], 0
0x0040AA06: BF CC FE B2 00       mov edi, 0xb2fecc
0x0040AA0B: BE FC 2D 9E 00       mov esi, 0x9e2dfc
0x0040AA10: 83 3F 00             cmp dword ptr [edi], 0
0x0040AA13: 75 36                jne 0x40aa4b
0x0040AA15: 6A 00                push 0
0x0040AA17: DD D8                fstp st(0)
0x0040AA19: 6A 00                push 0
0x0040AA1B: 6A 00                push 0
0x0040AA1D: 6A 01                push 1
0x0040AA1F: 6A 00                push 0
0x0040AA21: 6A 00                push 0
0x0040AA23: 6A 00                push 0
0x0040AA25: 6A 00                push 0
0x0040AA27: 6A 00                push 0
0x0040AA29: 6A 01                push 1
0x0040AA2B: 8D 4D 08             lea ecx, [ebp + 8]
0x0040AA2E: E8 AD 71 27 00       call 0x681be0
0x0040AA33: 8B 10                mov edx, dword ptr [eax]
0x0040AA35: 8B 06                mov eax, dword ptr [esi]
0x0040AA37: 6A 00                push 0
0x0040AA39: 8D 4D DC             lea ecx, [ebp - 0x24]
0x0040AA3C: 51                   push ecx
0x0040AA3D: 52                   push edx
0x0040AA3E: 50                   push eax
0x0040AA3F: E8 1C ED 0A 00       call 0x4b9760
0x0040AA44: D9 EE                fldz
0x0040AA46: 83 C4 10             add esp, 0x10
0x0040AA49: 89 07                mov dword ptr [edi], eax
0x0040AA4B: 83 C6 18             add esi, 0x18
0x0040AA4E: 83 C7 04             add edi, 4
0x0040AA51: 81 FE 2C 2E 9E 00    cmp esi, 0x9e2e2c
0x0040AA57: 7C B7                jl 0x40aa10
0x0040AA59: D9 55 F0             fst dword ptr [ebp - 0x10]
0x0040AA5C: 68 D4 FE B2 00       push 0xb2fed4
0x0040AA61: D9 5D F4             fstp dword ptr [ebp - 0xc]
0x0040AA64: 68 70 A2 40 00       push 0x40a270
0x0040AA69: D9 E8                fld1
0x0040AA6B: 6A 00                push 0
0x0040AA6D: D9 55 F8             fst dword ptr [ebp - 8]
0x0040AA70: 6A 06                push 6
0x0040AA72: D9 5D FC             fstp dword ptr [ebp - 4]
0x0040AA75: 51                   push ecx
0x0040AA76: D9 05 F8 2F 9E 00    fld dword ptr [0x9e2ff8]
0x0040AA7C: 8D 4D F0             lea ecx, [ebp - 0x10]
0x0040AA7F: D9 1C 24             fstp dword ptr [esp]
0x0040AA82: 51                   push ecx
0x0040AA83: E8 28 E1 09 00       call 0x4a8bb0
0x0040AA88: 83 C4 18             add esp, 0x18
0x0040AA8B: E8 70 D0 FF FF       call 0x407b00
0x0040AA90: 8D 4D DC             lea ecx, [ebp - 0x24]
0x0040AA93: E8 68 1A 07 00       call 0x47c500
0x0040AA98: 5F                   pop edi
0x0040AA99: EB 02                jmp 0x40aa9d
0x0040AA9B: DD D8                fstp st(0)
0x0040AA9D: E8 7E 03 46 00       call 0x86ae20
0x0040AAA2: 05 30 75 00 00       add eax, 0x7530
0x0040AAA7: A3 70 FE B2 00       mov dword ptr [0xb2fe70], eax
0x0040AAAC: E8 6F 03 46 00       call 0x86ae20
0x0040AAB1: 8B F0                mov esi, eax
0x0040AAB3: E8 18 26 07 00       call 0x47d0d0
0x0040AAB8: 50                   push eax
0x0040AAB9: E8 02 2A 07 00       call 0x47d4c0
0x0040AABE: 8B D6                mov edx, esi
0x0040AAC0: 2B 15 6C FE B2 00    sub edx, dword ptr [0xb2fe6c]
0x0040AAC6: 83 C4 04             add esp, 4
0x0040AAC9: 81 FA FA 00 00 00    cmp edx, 0xfa
0x0040AACF: 72 3C                jb 0x40ab0d
0x0040AAD1: 6A 00                push 0
0x0040AAD3: 6A 00                push 0
0x0040AAD5: 89 35 6C FE B2 00    mov dword ptr [0xb2fe6c], esi
0x0040AADB: E8 D0 19 47 00       call 0x87c4b0
0x0040AAE0: 83 C4 08             add esp, 8
0x0040AAE3: E8 88 40 1E 00       call 0x5eeb70
0x0040AAE8: 8B C6                mov eax, esi
0x0040AAEA: E8 31 DA FF FF       call 0x408520
0x0040AAEF: E8 DC CE FF FF       call 0x4079d0
0x0040AAF4: D9 EE                fldz
0x0040AAF6: 51                   push ecx
0x0040AAF7: D9 1C 24             fstp dword ptr [esp]
0x0040AAFA: 6A 00                push 0
0x0040AAFC: 6A 00                push 0
0x0040AAFE: 6A 00                push 0
0x0040AB00: E8 6B F7 FF FF       call 0x40a270
0x0040AB05: 83 C4 10             add esp, 0x10
0x0040AB08: E8 F3 7E 27 00       call 0x682a00
0x0040AB0D: 5E                   pop esi
0x0040AB0E: 8B E5                mov esp, ebp
0x0040AB10: 5D                   pop ebp
0x0040AB11: C3                   ret
0x0040AB12: CC                   int3
0x0040AB13: CC                   int3
0x0040AB14: CC                   int3
0x0040AB15: CC                   int3
0x0040AB16: CC                   int3
0x0040AB17: CC                   int3
0x0040AB18: CC                   int3
0x0040AB19: CC                   int3
0x0040AB1A: CC                   int3
0x0040AB1B: CC                   int3
0x0040AB1C: CC                   int3
0x0040AB1D: CC                   int3
0x0040AB1E: CC                   int3
0x0040AB1F: CC                   int3
0x0040AB20: 55                   push ebp
0x0040AB21: 8B EC                mov ebp, esp
0x0040AB23: D9 05 DC FE B2 00    fld dword ptr [0xb2fedc]
0x0040AB29: D9 45 08             fld dword ptr [ebp + 8]
0x0040AB2C: D8 D1                fcom st(1)
0x0040AB2E: DF E0                fnstsw ax
0x0040AB30: DD D9                fstp st(1)
0x0040AB32: F6 C4 41             test ah, 0x41
0x0040AB35: 7B 2E                jnp 0x40ab65
0x0040AB37: D9 15 DC FE B2 00    fst dword ptr [0xb2fedc]
0x0040AB3D: D9 E8                fld1
0x0040AB3F: DA E9                fucompp
0x0040AB41: DF E0                fnstsw ax
0x0040AB43: F6 C4 44             test ah, 0x44
0x0040AB46: 7A 10                jp 0x40ab58
0x0040AB48: B8 01 00 00 00       mov eax, 1
0x0040AB4D: 50                   push eax
0x0040AB4E: E8 CD FD FF FF       call 0x40a920
0x0040AB53: 83 C4 04             add esp, 4
0x0040AB56: 5D                   pop ebp
0x0040AB57: C3                   ret
0x0040AB58: 33 C0                xor eax, eax
0x0040AB5A: 50                   push eax
0x0040AB5B: E8 C0 FD FF FF       call 0x40a920
0x0040AB60: 83 C4 04             add esp, 4
0x0040AB63: 5D                   pop ebp
0x0040AB64: C3                   ret
0x0040AB65: DD D8                fstp st(0)
0x0040AB67: 5D                   pop ebp
0x0040AB68: C3                   ret
0x0040AB69: CC                   int3
0x0040AB6A: CC                   int3
0x0040AB6B: CC                   int3
0x0040AB6C: CC                   int3
0x0040AB6D: CC                   int3
0x0040AB6E: CC                   int3
0x0040AB6F: CC                   int3
0x0040AB70: 55                   push ebp
0x0040AB71: 8B EC                mov ebp, esp
0x0040AB73: 83 EC 20             sub esp, 0x20
0x0040AB76: 56                   push esi
0x0040AB77: 57                   push edi
0x0040AB78: E8 63 7B 10 00       call 0x5126e0
0x0040AB7D: 83 3D E8 FE B2 00 00 cmp dword ptr [0xb2fee8], 0
0x0040AB84: 0F 84 A8 01 00 00    je 0x40ad32
0x0040AB8A: D9 05 10 30 9E 00    fld dword ptr [0x9e3010]
0x0040AB90: 51                   push ecx
0x0040AB91: D9 1C 24             fstp dword ptr [esp]
0x0040AB94: E8 E7 14 07 00       call 0x47c080
0x0040AB99: A1 9C DE C5 00       mov eax, dword ptr [0xc5de9c]
0x0040AB9E: D9 1C 24             fstp dword ptr [esp]
0x0040ABA1: 8B 0C 85 C8 63 AB 00 mov ecx, dword ptr [eax*4 + 0xab63c8]
0x0040ABA8: 6A 01                push 1
0x0040ABAA: 51                   push ecx
0x0040ABAB: E8 10 3E 0B 00       call 0x4be9c0
0x0040ABB0: 50                   push eax
0x0040ABB1: A3 E0 FE B2 00       mov dword ptr [0xb2fee0], eax
0x0040ABB6: E8 15 2E 0B 00       call 0x4bd9d0
0x0040ABBB: 8B F8                mov edi, eax
0x0040ABBD: E8 1E 14 07 00       call 0x47bfe0
0x0040ABC2: D8 0D 0C 30 9E 00    fmul dword ptr [0x9e300c]
0x0040ABC8: 83 C4 0C             add esp, 0xc
0x0040ABCB: D8 3D 08 30 9E 00    fdivr dword ptr [0x9e3008]
0x0040ABD1: D9 1C 24             fstp dword ptr [esp]
0x0040ABD4: E8 97 14 07 00       call 0x47c070
0x0040ABD9: D9 1C 24             fstp dword ptr [esp]
0x0040ABDC: E8 6F 14 07 00       call 0x47c050
0x0040ABE1: D9 5D F4             fstp dword ptr [ebp - 0xc]
0x0040ABE4: D9 EE                fldz
0x0040ABE6: 83 C4 04             add esp, 4
0x0040ABE9: D9 5D FC             fstp dword ptr [ebp - 4]
0x0040ABEC: E8 EF 13 07 00       call 0x47bfe0
0x0040ABF1: D9 E8                fld1
0x0040ABF3: D8 D1                fcom st(1)
0x0040ABF5: DF E0                fnstsw ax
0x0040ABF7: D9 05 C4 2E 9E 00    fld dword ptr [0x9e2ec4]
0x0040ABFD: F6 C4 41             test ah, 0x41
0x0040AC00: 75 08                jne 0x40ac0a
0x0040AC02: D9 C1                fld st(1)
0x0040AC04: DE E3                fsubrp st(3)
0x0040AC06: DC CA                fmul st(2), st(0)
0x0040AC08: EB 07                jmp 0x40ac11
0x0040AC0A: DD DA                fstp st(2)
0x0040AC0C: D9 45 FC             fld dword ptr [ebp - 4]
0x0040AC0F: D9 CA                fxch st(2)
0x0040AC11: D9 45 F4             fld dword ptr [ebp - 0xc]
0x0040AC14: 8B 15 E8 FE B2 00    mov edx, dword ptr [0xb2fee8]
0x0040AC1A: D8 C9                fmul st(1)
0x0040AC1C: 52                   push edx
0x0040AC1D: DE E9                fsubp st(1)
0x0040AC1F: D9 5D E0             fstp dword ptr [ebp - 0x20]
0x0040AC22: D9 C9                fxch st(1)
0x0040AC24: D8 05 04 30 9E 00    fadd dword ptr [0x9e3004]
0x0040AC2A: D9 5D E4             fstp dword ptr [ebp - 0x1c]
0x0040AC2D: D9 5D E8             fstp dword ptr [ebp - 0x18]
0x0040AC30: E8 FB 41 36 00       call 0x76ee30
0x0040AC35: 83 C0 01             add eax, 1
0x0040AC38: E8 D3 1D 00 00       call 0x40ca10
0x0040AC3D: A1 E8 FE B2 00       mov eax, dword ptr [0xb2fee8]
0x0040AC42: 8B F4                mov esi, esp
0x0040AC44: 50                   push eax
0x0040AC45: E8 E6 41 36 00       call 0x76ee30
0x0040AC4A: 8B 0D E8 FE B2 00    mov ecx, dword ptr [0xb2fee8]
0x0040AC50: 83 C0 01             add eax, 1
0x0040AC53: 50                   push eax
0x0040AC54: 51                   push ecx
0x0040AC55: 56                   push esi
0x0040AC56: E8 B5 1E 00 00       call 0x40cb10
0x0040AC5B: 83 C4 0C             add esp, 0xc
0x0040AC5E: 56                   push esi
0x0040AC5F: E8 CC 41 36 00       call 0x76ee30
0x0040AC64: 83 E8 01             sub eax, 1
0x0040AC67: 03 C6                add eax, esi
0x0040AC69: 8D A4 24 00 00 00 00 lea esp, [esp]
0x0040AC70: 8A 08                mov cl, byte ptr [eax]
0x0040AC72: 80 F9 0D             cmp cl, 0xd
0x0040AC75: 74 05                je 0x40ac7c
0x0040AC77: 80 F9 0A             cmp cl, 0xa
0x0040AC7A: 75 08                jne 0x40ac84
0x0040AC7C: C6 00 00             mov byte ptr [eax], 0
0x0040AC7F: 83 E8 01             sub eax, 1
0x0040AC82: EB EC                jmp 0x40ac70
0x0040AC84: D9 E8                fld1
0x0040AC86: 83 EC 08             sub esp, 8
0x0040AC89: D9 54 24 04          fst dword ptr [esp + 4]
0x0040AC8D: 8D 55 FC             lea edx, [ebp - 4]
0x0040AC90: D9 EE                fldz
0x0040AC92: B0 C8                mov al, 0xc8
0x0040AC94: D9 1C 24             fstp dword ptr [esp]
0x0040AC97: 88 45 FC             mov byte ptr [ebp - 4], al
0x0040AC9A: D9 05 00 30 9E 00    fld dword ptr [0x9e3000]
0x0040ACA0: 88 45 FD             mov byte ptr [ebp - 3], al
0x0040ACA3: 52                   push edx
0x0040ACA4: 6A 00                push 0
0x0040ACA6: 6A 00                push 0
0x0040ACA8: 6A 02                push 2
0x0040ACAA: 68 E4 FE B2 00       push 0xb2fee4
0x0040ACAF: 83 EC 0C             sub esp, 0xc
0x0040ACB2: D9 5C 24 08          fstp dword ptr [esp + 8]
0x0040ACB6: 88 45 FE             mov byte ptr [ebp - 2], al
0x0040ACB9: 8D 45 E0             lea eax, [ebp - 0x20]
0x0040ACBC: D9 5C 24 04          fstp dword ptr [esp + 4]
0x0040ACC0: C6 45 FF D7          mov byte ptr [ebp - 1], 0xd7
0x0040ACC4: D9 45 F4             fld dword ptr [ebp - 0xc]
0x0040ACC7: D9 1C 24             fstp dword ptr [esp]
0x0040ACCA: 50                   push eax
0x0040ACCB: D9 05 10 30 9E 00    fld dword ptr [0x9e3010]
0x0040ACD1: 51                   push ecx
0x0040ACD2: D9 1C 24             fstp dword ptr [esp]
0x0040ACD5: 56                   push esi
0x0040ACD6: 57                   push edi
0x0040ACD7: E8 D4 35 2B 00       call 0x6be2b0
0x0040ACDC: D9 05 34 11 9E 00    fld dword ptr [0x9e1134]
0x0040ACE2: A1 E4 FE B2 00       mov eax, dword ptr [0xb2fee4]
0x0040ACE7: D9 5D EC             fstp dword ptr [ebp - 0x14]
0x0040ACEA: D9 05 FC 2F 9E 00    fld dword ptr [0x9e2ffc]
0x0040ACF0: 8D 4D EC             lea ecx, [ebp - 0x14]
0x0040ACF3: 51                   push ecx
0x0040ACF4: D9 5D F0             fstp dword ptr [ebp - 0x10]
0x0040ACF7: 8D 55 F8             lea edx, [ebp - 8]
0x0040ACFA: 52                   push edx
0x0040ACFB: 50                   push eax
0x0040ACFC: C6 45 F8 00          mov byte ptr [ebp - 8], 0
0x0040AD00: C6 45 F9 00          mov byte ptr [ebp - 7], 0
0x0040AD04: C6 45 FA 00          mov byte ptr [ebp - 6], 0
0x0040AD08: C6 45 FB FF          mov byte ptr [ebp - 5], 0xff
0x0040AD0C: E8 AF 23 2B 00       call 0x6bd0c0
0x0040AD11: 83 C4 44             add esp, 0x44
0x0040AD14: 6A 00                push 0
0x0040AD16: 6A 00                push 0
0x0040AD18: E8 43 44 2B 00       call 0x6bf160
0x0040AD1D: 8B 0D E4 FE B2 00    mov ecx, dword ptr [0xb2fee4]
0x0040AD23: 51                   push ecx
0x0040AD24: 50                   push eax
0x0040AD25: A3 EC FE B2 00       mov dword ptr [0xb2feec], eax
0x0040AD2A: E8 E1 20 2B 00       call 0x6bce10
0x0040AD2F: 83 C4 10             add esp, 0x10
0x0040AD32: 8B 45 0C             mov eax, dword ptr [ebp + 0xc]
0x0040AD35: 8B 55 08             mov edx, dword ptr [ebp + 8]
0x0040AD38: 50                   push eax
0x0040AD39: 89 15 BC 63 AB 00    mov dword ptr [0xab63bc], edx
0x0040AD3F: E8 4C FC FF FF       call 0x40a990
0x0040AD44: 83 C4 04             add esp, 4
0x0040AD47: 8D 65 D8             lea esp, [ebp - 0x28]
0x0040AD4A: 5F                   pop edi
0x0040AD4B: 5E                   pop esi
0x0040AD4C: 8B E5                mov esp, ebp
0x0040AD4E: 5D                   pop ebp
0x0040AD4F: C3                   ret
0x0040AD50: 55                   push ebp
0x0040AD51: 8B EC                mov ebp, esp
0x0040AD53: 8B 45 10             mov eax, dword ptr [ebp + 0x10]
0x0040AD56: A3 BC 63 AB 00       mov dword ptr [0xab63bc], eax
0x0040AD5B: E8 30 8A 0C 00       call 0x4d3790
0x0040AD60: 68 A0 00 00 00       push 0xa0
0x0040AD65: 68 18 1F 9E 00       push 0x9e1f18
0x0040AD6A: 6A 10                push 0x10
0x0040AD6C: 52                   push edx
0x0040AD6D: 50                   push eax
0x0040AD6E: E8 3D A0 0C 00       call 0x4d4db0
0x0040AD73: 83 C4 14             add esp, 0x14
0x0040AD76: 85 C0                test eax, eax
0x0040AD78: 0F 84 97 00 00 00    je 0x40ae15
0x0040AD7E: 8B 10                mov edx, dword ptr [eax]
0x0040AD80: 8B C8                mov ecx, eax
0x0040AD82: 8B 42 40             mov eax, dword ptr [edx + 0x40]
0x0040AD85: 56                   push esi
0x0040AD86: FF D0                call eax
0x0040AD88: 68 0E 04 00 00       push 0x40e
0x0040AD8D: 68 50 2F 9E 00       push 0x9e2f50
0x0040AD92: 6A 20                push 0x20
0x0040AD94: 52                   push edx
0x0040AD95: 50                   push eax
0x0040AD96: E8 15 A0 0C 00       call 0x4d4db0
0x0040AD9B: 8B F0                mov esi, eax
0x0040AD9D: 83 C4 14             add esp, 0x14
0x0040ADA0: 85 F6                test esi, esi
0x0040ADA2: 74 70                je 0x40ae14
0x0040ADA4: 8B 4E 08             mov ecx, dword ptr [esi + 8]
0x0040ADA7: 8B 51 0C             mov edx, dword ptr [ecx + 0xc]
0x0040ADAA: 3B 55 08             cmp edx, dword ptr [ebp + 8]
0x0040ADAD: 75 65                jne 0x40ae14
0x0040ADAF: 8B 86 D0 00 00 00    mov eax, dword ptr [esi + 0xd0]
0x0040ADB5: 8A 40 2D             mov al, byte ptr [eax + 0x2d]
0x0040ADB8: 0F BE C8             movsx ecx, al
0x0040ADBB: 6A 23                push 0x23
0x0040ADBD: 51                   push ecx
0x0040ADBE: E8 CD B3 33 00       call 0x746190
0x0040ADC3: 83 C4 08             add esp, 8
0x0040ADC6: 50                   push eax
0x0040ADC7: 8B CE                mov ecx, esi
0x0040ADC9: E8 E2 0B 30 00       call 0x70b9b0
0x0040ADCE: 8B 55 0C             mov edx, dword ptr [ebp + 0xc]
0x0040ADD1: 52                   push edx
0x0040ADD2: 8B F0                mov esi, eax
0x0040ADD4: 56                   push esi
0x0040ADD5: 68 C8 4B AD 00       push 0xad4bc8
0x0040ADDA: B9 D0 02 B3 00       mov ecx, 0xb302d0
0x0040ADDF: E8 EC DE FF FF       call 0x408cd0
0x0040ADE4: 8B CE                mov ecx, esi
0x0040ADE6: E8 95 EA FF FF       call 0x409880
0x0040ADEB: 84 C0                test al, al
0x0040ADED: 74 09                je 0x40adf8
0x0040ADEF: E8 6C F3 FF FF       call 0x40a160
0x0040ADF4: 84 C0                test al, al
0x0040ADF6: 75 12                jne 0x40ae0a
0x0040ADF8: E8 E3 E6 FF FF       call 0x4094e0
0x0040ADFD: 5E                   pop esi
0x0040ADFE: 6A 01                push 1
0x0040AE00: E8 8B FB FF FF       call 0x40a990
0x0040AE05: 83 C4 04             add esp, 4
0x0040AE08: 5D                   pop ebp
0x0040AE09: C3                   ret
0x0040AE0A: C7 05 BC 63 AB 00 FF FF FF FF mov dword ptr [0xab63bc], 0xffffffff
0x0040AE14: 5E                   pop esi
0x0040AE15: 6A 01                push 1
0x0040AE17: E8 74 FB FF FF       call 0x40a990
0x0040AE1C: 83 C4 04             add esp, 4
0x0040AE1F: 5D                   pop ebp
0x0040AE20: C3                   ret
0x0040AE21: CC                   int3
0x0040AE22: CC                   int3
0x0040AE23: CC                   int3
0x0040AE24: CC                   int3
0x0040AE25: CC                   int3
0x0040AE26: CC                   int3
0x0040AE27: CC                   int3
0x0040AE28: CC                   int3
0x0040AE29: CC                   int3
0x0040AE2A: CC                   int3
0x0040AE2B: CC                   int3
0x0040AE2C: CC                   int3
0x0040AE2D: CC                   int3
0x0040AE2E: CC                   int3
0x0040AE2F: CC                   int3
0x0040AE30: 55                   push ebp
0x0040AE31: 8B EC                mov ebp, esp
0x0040AE33: E8 58 89 0C 00       call 0x4d3790
0x0040AE38: 68 A0 00 00 00       push 0xa0
0x0040AE3D: 68 18 1F 9E 00       push 0x9e1f18
0x0040AE42: 6A 10                push 0x10
0x0040AE44: 52                   push edx
0x0040AE45: 50                   push eax
0x0040AE46: E8 65 9F 0C 00       call 0x4d4db0
0x0040AE4B: 83 C4 14             add esp, 0x14
0x0040AE4E: 85 C0                test eax, eax
0x0040AE50: 0F 84 84 00 00 00    je 0x40aeda
0x0040AE56: 8B 10                mov edx, dword ptr [eax]
0x0040AE58: 8B C8                mov ecx, eax
0x0040AE5A: 8B 42 40             mov eax, dword ptr [edx + 0x40]
0x0040AE5D: 56                   push esi
0x0040AE5E: FF D0                call eax
0x0040AE60: 68 1F 04 00 00       push 0x41f
0x0040AE65: 68 50 2F 9E 00       push 0x9e2f50
0x0040AE6A: 6A 20                push 0x20
0x0040AE6C: 52                   push edx
0x0040AE6D: 50                   push eax
0x0040AE6E: E8 3D 9F 0C 00       call 0x4d4db0
0x0040AE73: 8B F0                mov esi, eax
0x0040AE75: 83 C4 14             add esp, 0x14
0x0040AE78: 85 F6                test esi, esi
0x0040AE7A: 74 5D                je 0x40aed9
0x0040AE7C: 8B 4E 08             mov ecx, dword ptr [esi + 8]
0x0040AE7F: 8B 51 0C             mov edx, dword ptr [ecx + 0xc]
0x0040AE82: 3B 55 08             cmp edx, dword ptr [ebp + 8]
0x0040AE85: 75 52                jne 0x40aed9
0x0040AE87: 8B 86 D0 00 00 00    mov eax, dword ptr [esi + 0xd0]
0x0040AE8D: 8A 40 2D             mov al, byte ptr [eax + 0x2d]
0x0040AE90: 0F BE C8             movsx ecx, al
0x0040AE93: 6A 23                push 0x23
0x0040AE95: 51                   push ecx
0x0040AE96: E8 F5 B2 33 00       call 0x746190
0x0040AE9B: 83 C4 08             add esp, 8
0x0040AE9E: 50                   push eax
0x0040AE9F: 8B CE                mov ecx, esi
0x0040AEA1: E8 0A 0B 30 00       call 0x70b9b0
0x0040AEA6: 8B C8                mov ecx, eax
0x0040AEA8: 8B 45 0C             mov eax, dword ptr [ebp + 0xc]
0x0040AEAB: E8 D0 E9 FF FF       call 0x409880
0x0040AEB0: 84 C0                test al, al
0x0040AEB2: 74 09                je 0x40aebd
0x0040AEB4: E8 A7 F2 FF FF       call 0x40a160
0x0040AEB9: 84 C0                test al, al
0x0040AEBB: 75 12                jne 0x40aecf
0x0040AEBD: E8 1E E6 FF FF       call 0x4094e0
0x0040AEC2: 5E                   pop esi
0x0040AEC3: 6A 01                push 1
0x0040AEC5: E8 C6 FA FF FF       call 0x40a990
0x0040AECA: 83 C4 04             add esp, 4
0x0040AECD: 5D                   pop ebp
0x0040AECE: C3                   ret
0x0040AECF: C7 05 BC 63 AB 00 FF FF FF FF mov dword ptr [0xab63bc], 0xffffffff
0x0040AED9: 5E                   pop esi
0x0040AEDA: 6A 01                push 1
0x0040AEDC: E8 AF FA FF FF       call 0x40a990
0x0040AEE1: 83 C4 04             add esp, 4
0x0040AEE4: 5D                   pop ebp
0x0040AEE5: C3                   ret
0x0040AEE6: CC                   int3
0x0040AEE7: CC                   int3
0x0040AEE8: CC                   int3
0x0040AEE9: CC                   int3
0x0040AEEA: CC                   int3
0x0040AEEB: CC                   int3
0x0040AEEC: CC                   int3
0x0040AEED: CC                   int3
0x0040AEEE: CC                   int3
0x0040AEEF: CC                   int3
0x0040AEF0: 55                   push ebp
0x0040AEF1: 8B EC                mov ebp, esp
0x0040AEF3: D9 05 B4 FE B2 00    fld dword ptr [0xb2feb4]
0x0040AEF9: D9 45 08             fld dword ptr [ebp + 8]
0x0040AEFC: D8 D1                fcom st(1)
0x0040AEFE: DF E0                fnstsw ax
0x0040AF00: DD D9                fstp st(1)
0x0040AF02: F6 C4 41             test ah, 0x41
0x0040AF05: 7B 2E                jnp 0x40af35
0x0040AF07: D9 15 B4 FE B2 00    fst dword ptr [0xb2feb4]
0x0040AF0D: D9 E8                fld1
0x0040AF0F: DA E9                fucompp
0x0040AF11: DF E0                fnstsw ax
0x0040AF13: F6 C4 44             test ah, 0x44
0x0040AF16: 7A 10                jp 0x40af28
0x0040AF18: B8 01 00 00 00       mov eax, 1
0x0040AF1D: 50                   push eax
0x0040AF1E: E8 FD F9 FF FF       call 0x40a920
0x0040AF23: 83 C4 04             add esp, 4
0x0040AF26: 5D                   pop ebp
0x0040AF27: C3                   ret
0x0040AF28: 33 C0                xor eax, eax
0x0040AF2A: 50                   push eax
0x0040AF2B: E8 F0 F9 FF FF       call 0x40a920
0x0040AF30: 83 C4 04             add esp, 4
0x0040AF33: 5D                   pop ebp
0x0040AF34: C3                   ret
0x0040AF35: DD D8                fstp st(0)
0x0040AF37: 5D                   pop ebp
0x0040AF38: C3                   ret
0x0040AF39: CC                   int3
0x0040AF3A: CC                   int3
0x0040AF3B: CC                   int3
0x0040AF3C: CC                   int3
0x0040AF3D: CC                   int3
0x0040AF3E: CC                   int3
0x0040AF3F: CC                   int3
0x0040AF40: 55                   push ebp
0x0040AF41: 8B EC                mov ebp, esp
0x0040AF43: D9 05 B0 FE B2 00    fld dword ptr [0xb2feb0]
0x0040AF49: D9 45 08             fld dword ptr [ebp + 8]
0x0040AF4C: D8 D1                fcom st(1)
0x0040AF4E: DF E0                fnstsw ax
0x0040AF50: DD D9                fstp st(1)
0x0040AF52: F6 C4 41             test ah, 0x41
0x0040AF55: 7B 2E                jnp 0x40af85
0x0040AF57: D9 15 B0 FE B2 00    fst dword ptr [0xb2feb0]
0x0040AF5D: D9 E8                fld1
0x0040AF5F: DA E9                fucompp
0x0040AF61: DF E0                fnstsw ax
0x0040AF63: F6 C4 44             test ah, 0x44
0x0040AF66: 7A 10                jp 0x40af78
0x0040AF68: B8 01 00 00 00       mov eax, 1
0x0040AF6D: 50                   push eax
0x0040AF6E: E8 AD F9 FF FF       call 0x40a920
0x0040AF73: 83 C4 04             add esp, 4
0x0040AF76: 5D                   pop ebp
0x0040AF77: C3                   ret
0x0040AF78: 33 C0                xor eax, eax
0x0040AF7A: 50                   push eax
0x0040AF7B: E8 A0 F9 FF FF       call 0x40a920
0x0040AF80: 83 C4 04             add esp, 4
0x0040AF83: 5D                   pop ebp
0x0040AF84: C3                   ret
0x0040AF85: DD D8                fstp st(0)
0x0040AF87: 5D                   pop ebp
0x0040AF88: C3                   ret
0x0040AF89: CC                   int3
0x0040AF8A: CC                   int3
0x0040AF8B: CC                   int3
0x0040AF8C: CC                   int3
0x0040AF8D: CC                   int3
0x0040AF8E: CC                   int3
0x0040AF8F: CC                   int3
0x0040AF90: 55                   push ebp
0x0040AF91: 8B EC                mov ebp, esp
0x0040AF93: D9 05 B8 FE B2 00    fld dword ptr [0xb2feb8]
0x0040AF99: D9 45 08             fld dword ptr [ebp + 8]
0x0040AF9C: D8 D1                fcom st(1)
0x0040AF9E: DF E0                fnstsw ax
0x0040AFA0: DD D9                fstp st(1)
0x0040AFA2: F6 C4 41             test ah, 0x41
0x0040AFA5: 7B 2E                jnp 0x40afd5
0x0040AFA7: D9 15 B8 FE B2 00    fst dword ptr [0xb2feb8]
0x0040AFAD: D9 E8                fld1
0x0040AFAF: DA E9                fucompp
0x0040AFB1: DF E0                fnstsw ax
0x0040AFB3: F6 C4 44             test ah, 0x44
0x0040AFB6: 7A 10                jp 0x40afc8
0x0040AFB8: B8 01 00 00 00       mov eax, 1
0x0040AFBD: 50                   push eax
0x0040AFBE: E8 5D F9 FF FF       call 0x40a920
0x0040AFC3: 83 C4 04             add esp, 4
0x0040AFC6: 5D                   pop ebp
0x0040AFC7: C3                   ret
0x0040AFC8: 33 C0                xor eax, eax
0x0040AFCA: 50                   push eax
0x0040AFCB: E8 50 F9 FF FF       call 0x40a920
0x0040AFD0: 83 C4 04             add esp, 4
0x0040AFD3: 5D                   pop ebp
0x0040AFD4: C3                   ret
0x0040AFD5: DD D8                fstp st(0)
0x0040AFD7: 5D                   pop ebp
0x0040AFD8: C3                   ret
0x0040AFD9: CC                   int3
0x0040AFDA: CC                   int3
0x0040AFDB: CC                   int3
0x0040AFDC: CC                   int3
0x0040AFDD: CC                   int3
0x0040AFDE: CC                   int3
0x0040AFDF: CC                   int3
0x0040AFE0: 55                   push ebp
0x0040AFE1: 8B EC                mov ebp, esp
0x0040AFE3: 51                   push ecx
0x0040AFE4: 53                   push ebx
0x0040AFE5: 8B 5D 08             mov ebx, dword ptr [ebp + 8]
0x0040AFE8: 56                   push esi
0x0040AFE9: 57                   push edi
0x0040AFEA: 8B F9                mov edi, ecx
0x0040AFEC: 8B 47 04             mov eax, dword ptr [edi + 4]
0x0040AFEF: 3B D8                cmp ebx, eax
0x0040AFF1: 76 67                jbe 0x40b05a
0x0040AFF3: 3B 1F                cmp ebx, dword ptr [edi]
0x0040AFF5: 76 2B                jbe 0x40b022
0x0040AFF7: 8B 4F 0C             mov ecx, dword ptr [edi + 0xc]
0x0040AFFA: 85 C9                test ecx, ecx
0x0040AFFC: 75 0A                jne 0x40b008
0x0040AFFE: 53                   push ebx
0x0040AFFF: 8B CF                mov ecx, edi
0x0040B001: E8 DA 5A 18 00       call 0x590ae0
0x0040B006: 8B C8                mov ecx, eax
0x0040B008: 33 D2                xor edx, edx
0x0040B00A: 8B C3                mov eax, ebx
0x0040B00C: F7 F1                div ecx
0x0040B00E: 8B F3                mov esi, ebx
0x0040B010: 85 D2                test edx, edx
0x0040B012: 74 06                je 0x40b01a
0x0040B014: 2B CA                sub ecx, edx
0x0040B016: 03 CB                add ecx, ebx
0x0040B018: 8B F1                mov esi, ecx
0x0040B01A: 56                   push esi
0x0040B01B: 8B CF                mov ecx, edi
0x0040B01D: E8 DE F7 FF FF       call 0x40a800
0x0040B022: 8B 47 04             mov eax, dword ptr [edi + 4]
0x0040B025: 3B C3                cmp eax, ebx
0x0040B027: 73 25                jae 0x40b04e
0x0040B029: 8B C8                mov ecx, eax
0x0040B02B: 8B D3                mov edx, ebx
0x0040B02D: C1 E1 04             shl ecx, 4
0x0040B030: 2B D0                sub edx, eax
0x0040B032: 8B 47 08             mov eax, dword ptr [edi + 8]
0x0040B035: 03 C1                add eax, ecx
0x0040B037: 74 0D                je 0x40b046
0x0040B039: 33 F6                xor esi, esi
0x0040B03B: 89 30                mov dword ptr [eax], esi
0x0040B03D: 89 70 04             mov dword ptr [eax + 4], esi
0x0040B040: 89 70 08             mov dword ptr [eax + 8], esi
0x0040B043: 89 70 0C             mov dword ptr [eax + 0xc], esi
0x0040B046: 83 C1 10             add ecx, 0x10
0x0040B049: 83 EA 01             sub edx, 1
0x0040B04C: 75 E4                jne 0x40b032
0x0040B04E: 89 5F 04             mov dword ptr [edi + 4], ebx
0x0040B051: 5F                   pop edi
0x0040B052: 5E                   pop esi
0x0040B053: 5B                   pop ebx
0x0040B054: 8B E5                mov esp, ebp
0x0040B056: 5D                   pop ebp
0x0040B057: C2 04 00             ret 4
0x0040B05A: 73 F2                jae 0x40b04e
0x0040B05C: 89 5D FC             mov dword ptr [ebp - 4], ebx
0x0040B05F: C1 E3 04             shl ebx, 4
0x0040B062: 8B 77 08             mov esi, dword ptr [edi + 8]
0x0040B065: 8B 44 1E 08          mov eax, dword ptr [esi + ebx + 8]
0x0040B069: 03 F3                add esi, ebx
0x0040B06B: 85 C0                test eax, eax
0x0040B06D: 74 0F                je 0x40b07e
0x0040B06F: 6A 00                push 0
0x0040B071: 6A FE                push -2
0x0040B073: 68 8C 65 AB 00       push 0xab658c
0x0040B078: 50                   push eax
0x0040B079: E8 22 35 36 00       call 0x76e5a0
0x0040B07E: 33 C0                xor eax, eax
0x0040B080: 89 06                mov dword ptr [esi], eax
0x0040B082: 89 46 04             mov dword ptr [esi + 4], eax
0x0040B085: 89 46 08             mov dword ptr [esi + 8], eax
0x0040B088: 8B 45 FC             mov eax, dword ptr [ebp - 4]
0x0040B08B: 83 C0 01             add eax, 1
0x0040B08E: 83 C3 10             add ebx, 0x10
0x0040B091: 3B 47 04             cmp eax, dword ptr [edi + 4]
0x0040B094: 89 45 FC             mov dword ptr [ebp - 4], eax
0x0040B097: 72 C9                jb 0x40b062
0x0040B099: 8B 45 08             mov eax, dword ptr [ebp + 8]
0x0040B09C: 89 47 04             mov dword ptr [edi + 4], eax
0x0040B09F: 5F                   pop edi
0x0040B0A0: 5E                   pop esi
0x0040B0A1: 5B                   pop ebx
0x0040B0A2: 8B E5                mov esp, ebp
0x0040B0A4: 5D                   pop ebp
0x0040B0A5: C2 04 00             ret 4
0x0040B0A8: CC                   int3
0x0040B0A9: CC                   int3
0x0040B0AA: CC                   int3
0x0040B0AB: CC                   int3
0x0040B0AC: CC                   int3
0x0040B0AD: CC                   int3
0x0040B0AE: CC                   int3
0x0040B0AF: CC                   int3
0x0040B0B0: 55                   push ebp
0x0040B0B1: 8B EC                mov ebp, esp
0x0040B0B3: 83 EC 1C             sub esp, 0x1c
0x0040B0B6: 8B 45 0C             mov eax, dword ptr [ebp + 0xc]
0x0040B0B9: 53                   push ebx
0x0040B0BA: 56                   push esi
0x0040B0BB: 8B D9                mov ebx, ecx
0x0040B0BD: 50                   push eax
0x0040B0BE: 89 5D E4             mov dword ptr [ebp - 0x1c], ebx
0x0040B0C1: E8 1A FF FF FF       call 0x40afe0
0x0040B0C6: 8B 55 08             mov edx, dword ptr [ebp + 8]
0x0040B0C9: 8B 42 08             mov eax, dword ptr [edx + 8]
0x0040B0CC: 33 C9                xor ecx, ecx
0x0040B0CE: 33 F6                xor esi, esi
0x0040B0D0: 3B C1                cmp eax, ecx
0x0040B0D2: 89 4D 0C             mov dword ptr [ebp + 0xc], ecx
0x0040B0D5: 89 4D F8             mov dword ptr [ebp - 8], ecx
0x0040B0D8: 89 4D F0             mov dword ptr [ebp - 0x10], ecx
0x0040B0DB: 0F 8E BD 01 00 00    jle 0x40b29e
0x0040B0E1: 89 4D F4             mov dword ptr [ebp - 0xc], ecx
0x0040B0E4: 57                   push edi
0x0040B0E5: 85 C9                test ecx, ecx
0x0040B0E7: 7C 0F                jl 0x40b0f8
0x0040B0E9: 3B C8                cmp ecx, eax
0x0040B0EB: 7D 0B                jge 0x40b0f8
0x0040B0ED: 8B 52 1C             mov edx, dword ptr [edx + 0x1c]
0x0040B0F0: 03 55 F4             add edx, dword ptr [ebp - 0xc]
0x0040B0F3: 89 55 FC             mov dword ptr [ebp - 4], edx
0x0040B0F6: EB 0A                jmp 0x40b102
0x0040B0F8: C7 45 FC 00 00 00 00 mov dword ptr [ebp - 4], 0
0x0040B0FF: 8B 55 FC             mov edx, dword ptr [ebp - 4]
0x0040B102: 85 F6                test esi, esi
0x0040B104: 74 39                je 0x40b13f
0x0040B106: 8B 4E 04             mov ecx, dword ptr [esi + 4]
0x0040B109: 3B 4A 04             cmp ecx, dword ptr [edx + 4]
0x0040B10C: 74 38                je 0x40b146
0x0040B10E: 83 7D 0C 00          cmp dword ptr [ebp + 0xc], 0
0x0040B112: 7E 2B                jle 0x40b13f
0x0040B114: 8B 53 14             mov edx, dword ptr [ebx + 0x14]
0x0040B117: C1 E1 04             shl ecx, 4
0x0040B11A: 03 4B 08             add ecx, dword ptr [ebx + 8]
0x0040B11D: 8D 45 EC             lea eax, [ebp - 0x14]
0x0040B120: 50                   push eax
0x0040B121: 89 55 EC             mov dword ptr [ebp - 0x14], edx
0x0040B124: E8 77 E6 FF FF       call 0x4097a0
0x0040B129: 8D 4B 10             lea ecx, [ebx + 0x10]
0x0040B12C: E8 DF E2 FF FF       call 0x409410
0x0040B131: 8B 55 F8             mov edx, dword ptr [ebp - 8]
0x0040B134: 8B 4D 0C             mov ecx, dword ptr [ebp + 0xc]
0x0040B137: 89 50 04             mov dword ptr [eax + 4], edx
0x0040B13A: 8B 55 FC             mov edx, dword ptr [ebp - 4]
0x0040B13D: 89 08                mov dword ptr [eax], ecx
0x0040B13F: C7 45 0C 00 00 00 00 mov dword ptr [ebp + 0xc], 0
0x0040B146: 8B 42 1C             mov eax, dword ptr [edx + 0x1c]
0x0040B149: A8 01                test al, 1
0x0040B14B: 0F 84 D3 00 00 00    je 0x40b224
0x0040B151: 8B 72 04             mov esi, dword ptr [edx + 4]
0x0040B154: 8B 43 14             mov eax, dword ptr [ebx + 0x14]
0x0040B157: C1 E6 04             shl esi, 4
0x0040B15A: 03 73 08             add esi, dword ptr [ebx + 8]
0x0040B15D: 89 45 E8             mov dword ptr [ebp - 0x18], eax
0x0040B160: 8B 7E 04             mov edi, dword ptr [esi + 4]
0x0040B163: 83 C7 01             add edi, 1
0x0040B166: 3B 3E                cmp edi, dword ptr [esi]
0x0040B168: 76 32                jbe 0x40b19c
0x0040B16A: 8B 4E 0C             mov ecx, dword ptr [esi + 0xc]
0x0040B16D: 85 C9                test ecx, ecx
0x0040B16F: 75 0A                jne 0x40b17b
0x0040B171: 57                   push edi
0x0040B172: 8B CE                mov ecx, esi
0x0040B174: E8 C7 4E 1C 00       call 0x5d0040
0x0040B179: 8B C8                mov ecx, eax
0x0040B17B: 33 D2                xor edx, edx
0x0040B17D: 8B C7                mov eax, edi
0x0040B17F: F7 F1                div ecx
0x0040B181: 89 7D EC             mov dword ptr [ebp - 0x14], edi
0x0040B184: 85 D2                test edx, edx
0x0040B186: 74 06                je 0x40b18e
0x0040B188: 2B CA                sub ecx, edx
0x0040B18A: 03 CF                add ecx, edi
0x0040B18C: EB 03                jmp 0x40b191
0x0040B18E: 8B 4D EC             mov ecx, dword ptr [ebp - 0x14]
0x0040B191: 51                   push ecx
0x0040B192: 8B CE                mov ecx, esi
0x0040B194: E8 E7 DB FF FF       call 0x408d80
0x0040B199: 8B 55 FC             mov edx, dword ptr [ebp - 4]
0x0040B19C: 8B 46 04             mov eax, dword ptr [esi + 4]
0x0040B19F: 8B 4E 08             mov ecx, dword ptr [esi + 8]
0x0040B1A2: 8D 0C 81             lea ecx, [ecx + eax*4]
0x0040B1A5: 83 C0 01             add eax, 1
0x0040B1A8: 85 C9                test ecx, ecx
0x0040B1AA: 89 46 04             mov dword ptr [esi + 4], eax
0x0040B1AD: 74 05                je 0x40b1b4
0x0040B1AF: 8B 45 E8             mov eax, dword ptr [ebp - 0x18]
0x0040B1B2: 89 01                mov dword ptr [ecx], eax
0x0040B1B4: 8B 73 14             mov esi, dword ptr [ebx + 0x14]
0x0040B1B7: 8D 7B 10             lea edi, [ebx + 0x10]
0x0040B1BA: 83 C6 01             add esi, 1
0x0040B1BD: 3B 37                cmp esi, dword ptr [edi]
0x0040B1BF: 76 2D                jbe 0x40b1ee
0x0040B1C1: 8B 4F 0C             mov ecx, dword ptr [edi + 0xc]
0x0040B1C4: 85 C9                test ecx, ecx
0x0040B1C6: 75 0A                jne 0x40b1d2
0x0040B1C8: 56                   push esi
0x0040B1C9: 8B CF                mov ecx, edi
0x0040B1CB: E8 30 D4 13 00       call 0x548600
0x0040B1D0: 8B C8                mov ecx, eax
0x0040B1D2: 33 D2                xor edx, edx
0x0040B1D4: 8B C6                mov eax, esi
0x0040B1D6: F7 F1                div ecx
0x0040B1D8: 85 D2                test edx, edx
0x0040B1DA: 74 04                je 0x40b1e0
0x0040B1DC: 2B F2                sub esi, edx
0x0040B1DE: 03 F1                add esi, ecx
0x0040B1E0: 56                   push esi
0x0040B1E1: 8B CF                mov ecx, edi
0x0040B1E3: E8 08 D2 FF FF       call 0x4083f0
0x0040B1E8: 8B 5D E4             mov ebx, dword ptr [ebp - 0x1c]
0x0040B1EB: 8B 55 FC             mov edx, dword ptr [ebp - 4]
0x0040B1EE: 8B 4F 04             mov ecx, dword ptr [edi + 4]
0x0040B1F1: 8B 47 08             mov eax, dword ptr [edi + 8]
0x0040B1F4: 8D 04 C8             lea eax, [eax + ecx*8]
0x0040B1F7: 83 C1 01             add ecx, 1
0x0040B1FA: 89 4F 04             mov dword ptr [edi + 4], ecx
0x0040B1FD: 33 C9                xor ecx, ecx
0x0040B1FF: 3B C1                cmp eax, ecx
0x0040B201: 74 12                je 0x40b215
0x0040B203: 8B 75 0C             mov esi, dword ptr [ebp + 0xc]
0x0040B206: 89 08                mov dword ptr [eax], ecx
0x0040B208: 89 48 04             mov dword ptr [eax + 4], ecx
0x0040B20B: 89 30                mov dword ptr [eax], esi
0x0040B20D: 8B 75 F8             mov esi, dword ptr [ebp - 8]
0x0040B210: 89 70 04             mov dword ptr [eax + 4], esi
0x0040B213: EB 68                jmp 0x40b27d
0x0040B215: 8B 75 0C             mov esi, dword ptr [ebp + 0xc]
0x0040B218: 33 C0                xor eax, eax
0x0040B21A: 89 30                mov dword ptr [eax], esi
0x0040B21C: 8B 75 F8             mov esi, dword ptr [ebp - 8]
0x0040B21F: 89 70 04             mov dword ptr [eax + 4], esi
0x0040B222: EB 59                jmp 0x40b27d
0x0040B224: 85 F6                test esi, esi
0x0040B226: 74 44                je 0x40b26c
0x0040B228: 8B 4E 04             mov ecx, dword ptr [esi + 4]
0x0040B22B: 3B 4A 04             cmp ecx, dword ptr [edx + 4]
0x0040B22E: 75 3C                jne 0x40b26c
0x0040B230: 8B 76 0C             mov esi, dword ptr [esi + 0xc]
0x0040B233: 3B 72 0C             cmp esi, dword ptr [edx + 0xc]
0x0040B236: 74 34                je 0x40b26c
0x0040B238: 8B 53 14             mov edx, dword ptr [ebx + 0x14]
0x0040B23B: C1 E1 04             shl ecx, 4
0x0040B23E: 03 4B 08             add ecx, dword ptr [ebx + 8]
0x0040B241: 8D 45 E8             lea eax, [ebp - 0x18]
0x0040B244: 50                   push eax
0x0040B245: 89 55 E8             mov dword ptr [ebp - 0x18], edx
0x0040B248: E8 53 E5 FF FF       call 0x4097a0
0x0040B24D: 8D 4B 10             lea ecx, [ebx + 0x10]
0x0040B250: E8 BB E1 FF FF       call 0x409410
0x0040B255: 8B 55 F8             mov edx, dword ptr [ebp - 8]
0x0040B258: 8B 4D 0C             mov ecx, dword ptr [ebp + 0xc]
0x0040B25B: 89 50 04             mov dword ptr [eax + 4], edx
0x0040B25E: 8B 55 FC             mov edx, dword ptr [ebp - 4]
0x0040B261: 89 08                mov dword ptr [eax], ecx
0x0040B263: C7 45 0C 00 00 00 00 mov dword ptr [ebp + 0xc], 0
0x0040B26A: EB 14                jmp 0x40b280
0x0040B26C: A8 02                test al, 2
0x0040B26E: 74 10                je 0x40b280
0x0040B270: 83 7D 0C 00          cmp dword ptr [ebp + 0xc], 0
0x0040B274: 8B 02                mov eax, dword ptr [edx]
0x0040B276: 89 45 F8             mov dword ptr [ebp - 8], eax
0x0040B279: 75 05                jne 0x40b280
0x0040B27B: 8B C8                mov ecx, eax
0x0040B27D: 89 4D 0C             mov dword ptr [ebp + 0xc], ecx
0x0040B280: 8B 4D F0             mov ecx, dword ptr [ebp - 0x10]
0x0040B283: 83 45 F4 2C          add dword ptr [ebp - 0xc], 0x2c
0x0040B287: 8B F2                mov esi, edx
0x0040B289: 8B 55 08             mov edx, dword ptr [ebp + 8]
0x0040B28C: 8B 42 08             mov eax, dword ptr [edx + 8]
0x0040B28F: 83 C1 01             add ecx, 1
0x0040B292: 3B C8                cmp ecx, eax
0x0040B294: 89 4D F0             mov dword ptr [ebp - 0x10], ecx
0x0040B297: 0F 8C 48 FE FF FF    jl 0x40b0e5
0x0040B29D: 5F                   pop edi
0x0040B29E: 5E                   pop esi
0x0040B29F: 5B                   pop ebx
0x0040B2A0: 8B E5                mov esp, ebp
0x0040B2A2: 5D                   pop ebp
0x0040B2A3: C2 08 00             ret 8
0x0040B2A6: CC                   int3
0x0040B2A7: CC                   int3
0x0040B2A8: CC                   int3
0x0040B2A9: CC                   int3
0x0040B2AA: CC                   int3
0x0040B2AB: CC                   int3
0x0040B2AC: CC                   int3
0x0040B2AD: CC                   int3
0x0040B2AE: CC                   int3
0x0040B2AF: CC                   int3
0x0040B2B0: 8B 0D 88 DF C5 00    mov ecx, dword ptr [0xc5df88]
0x0040B2B6: 8B 01                mov eax, dword ptr [ecx]
0x0040B2B8: 8B 90 10 01 00 00    mov edx, dword ptr [eax + 0x110]
0x0040B2BE: 6A 02                push 2
0x0040B2C0: 68 34 30 9E 00       push 0x9e3034
0x0040B2C5: 68 24 30 9E 00       push 0x9e3024
0x0040B2CA: 6A 00                push 0
0x0040B2CC: 68 64 FE B2 00       push 0xb2fe64
0x0040B2D1: FF D2                call edx
0x0040B2D3: 8B 0D 88 DF C5 00    mov ecx, dword ptr [0xc5df88]
0x0040B2D9: 8B 01                mov eax, dword ptr [ecx]
0x0040B2DB: 8B 90 10 01 00 00    mov edx, dword ptr [eax + 0x110]
0x0040B2E1: 6A 01                push 1
0x0040B2E3: 68 34 30 9E 00       push 0x9e3034
0x0040B2E8: 68 14 30 9E 00       push 0x9e3014
0x0040B2ED: 6A 04                push 4
0x0040B2EF: 68 60 FE B2 00       push 0xb2fe60
0x0040B2F4: FF D2                call edx
0x0040B2F6: A1 F8 4B AD 00       mov eax, dword ptr [0xad4bf8]
0x0040B2FB: 83 C0 01             add eax, 1
0x0040B2FE: 50                   push eax
0x0040B2FF: 68 C8 4B AD 00       push 0xad4bc8
0x0040B304: B9 D0 02 B3 00       mov ecx, 0xb302d0
0x0040B309: E8 A2 FD FF FF       call 0x40b0b0
0x0040B30E: E9 3D C9 FF FF       jmp 0x407c50
0x0040B313: CC                   int3
0x0040B314: CC                   int3
0x0040B315: CC                   int3
0x0040B316: CC                   int3
0x0040B317: CC                   int3
0x0040B318: CC                   int3
0x0040B319: CC                   int3
0x0040B31A: CC                   int3
0x0040B31B: CC                   int3
0x0040B31C: CC                   int3
0x0040B31D: CC                   int3
0x0040B31E: CC                   int3
0x0040B31F: CC                   int3
0x0040B320: 80 3D 58 07 B3 00 00 cmp byte ptr [0xb30758], 0
0x0040B327: 74 62                je 0x40b38b
0x0040B329: 6A 00                push 0
0x0040B32B: C6 05 58 07 B3 00 00 mov byte ptr [0xb30758], 0
0x0040B332: E8 39 38 1E 00       call 0x5eeb70
0x0040B337: A1 60 07 B3 00       mov eax, dword ptr [0xb30760]
0x0040B33C: 83 C4 04             add esp, 4
0x0040B33F: 85 C0                test eax, eax
0x0040B341: 74 13                je 0x40b356
0x0040B343: 50                   push eax
0x0040B344: E8 67 30 2B 00       call 0x6be3b0
0x0040B349: 83 C4 04             add esp, 4
0x0040B34C: C7 05 60 07 B3 00 00 00 00 00 mov dword ptr [0xb30760], 0
0x0040B356: 56                   push esi
0x0040B357: 57                   push edi
0x0040B358: BE 74 08 B3 00       mov esi, 0xb30874
0x0040B35D: BF 0A 00 00 00       mov edi, 0xa
0x0040B362: 83 3E 00             cmp dword ptr [esi], 0
0x0040B365: 74 09                je 0x40b370
0x0040B367: 56                   push esi
0x0040B368: E8 53 2C 2B 00       call 0x6bdfc0
0x0040B36D: 83 C4 04             add esp, 4
0x0040B370: 81 C6 0C 01 00 00    add esi, 0x10c
0x0040B376: 83 EF 01             sub edi, 1
0x0040B379: 75 E7                jne 0x40b362
0x0040B37B: A1 5C 07 B3 00       mov eax, dword ptr [0xb3075c]
0x0040B380: 50                   push eax
0x0040B381: E8 AA 0B 07 00       call 0x47bf30
0x0040B386: 83 C4 04             add esp, 4
0x0040B389: 5F                   pop edi
0x0040B38A: 5E                   pop esi
0x0040B38B: C3                   ret
0x0040B38C: CC                   int3
0x0040B38D: CC                   int3
0x0040B38E: CC                   int3
0x0040B38F: CC                   int3
0x0040B390: 80 3D 59 07 B3 00 00 cmp byte ptr [0xb30759], 0
0x0040B397: 75 19                jne 0x40b3b2
0x0040B399: 80 3D 58 07 B3 00 00 cmp byte ptr [0xb30758], 0
0x0040B3A0: 74 10                je 0x40b3b2
0x0040B3A2: 83 3D 5C 07 B3 00 00 cmp dword ptr [0xb3075c], 0
0x0040B3A9: 74 07                je 0x40b3b2
0x0040B3AB: C6 05 59 07 B3 00 01 mov byte ptr [0xb30759], 1
0x0040B3B2: C3                   ret
0x0040B3B3: CC                   int3
0x0040B3B4: CC                   int3
0x0040B3B5: CC                   int3
0x0040B3B6: CC                   int3
0x0040B3B7: CC                   int3
0x0040B3B8: CC                   int3
0x0040B3B9: CC                   int3
0x0040B3BA: CC                   int3
0x0040B3BB: CC                   int3
0x0040B3BC: CC                   int3
0x0040B3BD: CC                   int3
0x0040B3BE: CC                   int3
0x0040B3BF: CC                   int3
0x0040B3C0: 80 3D 59 07 B3 00 00 cmp byte ptr [0xb30759], 0
0x0040B3C7: 74 07                je 0x40b3d0
0x0040B3C9: C6 05 59 07 B3 00 00 mov byte ptr [0xb30759], 0
0x0040B3D0: C3                   ret
0x0040B3D1: CC                   int3
0x0040B3D2: CC                   int3
0x0040B3D3: CC                   int3
0x0040B3D4: CC                   int3
0x0040B3D5: CC                   int3
0x0040B3D6: CC                   int3
0x0040B3D7: CC                   int3
0x0040B3D8: CC                   int3
0x0040B3D9: CC                   int3
0x0040B3DA: CC                   int3
0x0040B3DB: CC                   int3
0x0040B3DC: CC                   int3
0x0040B3DD: CC                   int3
0x0040B3DE: CC                   int3
0x0040B3DF: CC                   int3
0x0040B3E0: 80 3D 5A 07 B3 00 00 cmp byte ptr [0xb3075a], 0
0x0040B3E7: 74 07                je 0x40b3f0
0x0040B3E9: C6 05 5A 07 B3 00 00 mov byte ptr [0xb3075a], 0
0x0040B3F0: C3                   ret
0x0040B3F1: CC                   int3
0x0040B3F2: CC                   int3
0x0040B3F3: CC                   int3
0x0040B3F4: CC                   int3
0x0040B3F5: CC                   int3
0x0040B3F6: CC                   int3
0x0040B3F7: CC                   int3
0x0040B3F8: CC                   int3
0x0040B3F9: CC                   int3
0x0040B3FA: CC                   int3
0x0040B3FB: CC                   int3
0x0040B3FC: CC                   int3
0x0040B3FD: CC                   int3
0x0040B3FE: CC                   int3
0x0040B3FF: CC                   int3
0x0040B400: 80 3D 5A 07 B3 00 00 cmp byte ptr [0xb3075a], 0
0x0040B407: 75 07                jne 0x40b410
0x0040B409: C6 05 5A 07 B3 00 01 mov byte ptr [0xb3075a], 1
0x0040B410: C3                   ret
0x0040B411: CC                   int3
0x0040B412: CC                   int3
0x0040B413: CC                   int3
0x0040B414: CC                   int3
0x0040B415: CC                   int3
0x0040B416: CC                   int3
0x0040B417: CC                   int3
0x0040B418: CC                   int3
0x0040B419: CC                   int3
0x0040B41A: CC                   int3
0x0040B41B: CC                   int3
0x0040B41C: CC                   int3
0x0040B41D: CC                   int3
0x0040B41E: CC                   int3
0x0040B41F: CC                   int3
0x0040B420: 55                   push ebp
0x0040B421: 8B EC                mov ebp, esp
0x0040B423: 83 EC 14             sub esp, 0x14
0x0040B426: 80 3D 59 07 B3 00 00 cmp byte ptr [0xb30759], 0
0x0040B42D: 0F 84 07 01 00 00    je 0x40b53a
0x0040B433: 53                   push ebx
0x0040B434: 56                   push esi
0x0040B435: 8B 35 6C 07 B3 00    mov esi, dword ptr [0xb3076c]
0x0040B43B: 69 F6 0C 01 00 00    imul esi, esi, 0x10c
0x0040B441: 57                   push edi
0x0040B442: 81 C6 70 07 B3 00    add esi, 0xb30770
0x0040B448: E8 D3 F9 45 00       call 0x86ae20
0x0040B44D: 8B 7D 08             mov edi, dword ptr [ebp + 8]
0x0040B450: 68 00 01 00 00       push 0x100
0x0040B455: 89 06                mov dword ptr [esi], eax
0x0040B457: 57                   push edi
0x0040B458: 8D 46 04             lea eax, [esi + 4]
0x0040B45B: 50                   push eax
0x0040B45C: E8 BF 38 36 00       call 0x76ed20
0x0040B461: 8B 5D 0C             mov ebx, dword ptr [ebp + 0xc]
0x0040B464: 8D 4D EC             lea ecx, [ebp - 0x14]
0x0040B467: 51                   push ecx
0x0040B468: 8D 55 F0             lea edx, [ebp - 0x10]
0x0040B46B: 52                   push edx
0x0040B46C: 8D 45 F8             lea eax, [ebp - 8]
0x0040B46F: 50                   push eax
0x0040B470: 53                   push ebx
0x0040B471: E8 6A 9A 0A 00       call 0x4b4ee0
0x0040B476: D9 45 F8             fld dword ptr [ebp - 8]
0x0040B479: D9 05 C0 30 9E 00    fld dword ptr [0x9e30c0]
0x0040B47F: C6 86 0B 01 00 00 FF mov byte ptr [esi + 0x10b], 0xff
0x0040B486: D9 7D FE             fnstcw word ptr [ebp - 2]
0x0040B489: C6 05 5B 07 B3 00 01 mov byte ptr [0xb3075b], 1
0x0040B490: 0F B7 45 FE          movzx eax, word ptr [ebp - 2]
0x0040B494: DC C9                fmul st(1), st(0)
0x0040B496: 0D 00 0C 00 00       or eax, 0xc00
0x0040B49B: D9 C9                fxch st(1)
0x0040B49D: 89 45 F4             mov dword ptr [ebp - 0xc], eax
0x0040B4A0: D9 6D F4             fldcw word ptr [ebp - 0xc]
0x0040B4A3: DB 5D F4             fistp dword ptr [ebp - 0xc]
0x0040B4A6: 8A 4D F4             mov cl, byte ptr [ebp - 0xc]
0x0040B4A9: 88 8E 0A 01 00 00    mov byte ptr [esi + 0x10a], cl
0x0040B4AF: 8B 0D 6C 07 B3 00    mov ecx, dword ptr [0xb3076c]
0x0040B4B5: D9 6D FE             fldcw word ptr [ebp - 2]
0x0040B4B8: 83 C1 01             add ecx, 1
0x0040B4BB: D9 45 F0             fld dword ptr [ebp - 0x10]
0x0040B4BE: D9 7D FE             fnstcw word ptr [ebp - 2]
0x0040B4C1: D8 C9                fmul st(1)
0x0040B4C3: 0F B7 45 FE          movzx eax, word ptr [ebp - 2]
0x0040B4C7: 0D 00 0C 00 00       or eax, 0xc00
0x0040B4CC: 89 45 F4             mov dword ptr [ebp - 0xc], eax
0x0040B4CF: D9 6D F4             fldcw word ptr [ebp - 0xc]
0x0040B4D2: DB 5D F4             fistp dword ptr [ebp - 0xc]
0x0040B4D5: 8A 55 F4             mov dl, byte ptr [ebp - 0xc]
0x0040B4D8: 88 96 09 01 00 00    mov byte ptr [esi + 0x109], dl
0x0040B4DE: D9 6D FE             fldcw word ptr [ebp - 2]
0x0040B4E1: D8 4D EC             fmul dword ptr [ebp - 0x14]
0x0040B4E4: D9 7D FE             fnstcw word ptr [ebp - 2]
0x0040B4E7: 0F B7 45 FE          movzx eax, word ptr [ebp - 2]
0x0040B4EB: 0D 00 0C 00 00       or eax, 0xc00
0x0040B4F0: 89 45 F4             mov dword ptr [ebp - 0xc], eax
0x0040B4F3: D9 6D F4             fldcw word ptr [ebp - 0xc]
0x0040B4F6: DB 5D F4             fistp dword ptr [ebp - 0xc]
0x0040B4F9: 8A 45 F4             mov al, byte ptr [ebp - 0xc]
0x0040B4FC: 88 86 08 01 00 00    mov byte ptr [esi + 0x108], al
0x0040B502: B8 CD CC CC CC       mov eax, 0xcccccccd
0x0040B507: F7 E1                mul ecx
0x0040B509: D9 6D FE             fldcw word ptr [ebp - 2]
0x0040B50C: C1 EA 03             shr edx, 3
0x0040B50F: 8B C2                mov eax, edx
0x0040B511: F7 D8                neg eax
0x0040B513: 03 C0                add eax, eax
0x0040B515: 03 C0                add eax, eax
0x0040B517: 2B C2                sub eax, edx
0x0040B519: 33 D2                xor edx, edx
0x0040B51B: 83 FB 02             cmp ebx, 2
0x0040B51E: 0F 9C C2             setl dl
0x0040B521: 8D 0C 41             lea ecx, [ecx + eax*2]
0x0040B524: 89 0D 6C 07 B3 00    mov dword ptr [0xb3076c], ecx
0x0040B52A: 83 C2 03             add edx, 3
0x0040B52D: 52                   push edx
0x0040B52E: 57                   push edi
0x0040B52F: E8 3C 9D 35 00       call 0x765270
0x0040B534: 83 C4 18             add esp, 0x18
0x0040B537: 5F                   pop edi
0x0040B538: 5E                   pop esi
0x0040B539: 5B                   pop ebx
0x0040B53A: 8B E5                mov esp, ebp
0x0040B53C: 5D                   pop ebp
0x0040B53D: C3                   ret
0x0040B53E: CC                   int3
0x0040B53F: CC                   int3
0x0040B540: 55                   push ebp
0x0040B541: 8B EC                mov ebp, esp
0x0040B543: 83 EC 24             sub esp, 0x24
0x0040B546: 80 3D 5A 07 B3 00 00 cmp byte ptr [0xb3075a], 0
0x0040B54D: 0F 85 B7 01 00 00    jne 0x40b70a
0x0040B553: 53                   push ebx
0x0040B554: 56                   push esi
0x0040B555: 57                   push edi
0x0040B556: E8 C5 F8 45 00       call 0x86ae20
0x0040B55B: 33 C9                xor ecx, ecx
0x0040B55D: 89 45 F8             mov dword ptr [ebp - 8], eax
0x0040B560: 89 4D FC             mov dword ptr [ebp - 4], ecx
0x0040B563: EB 03                jmp 0x40b568
0x0040B565: 8B 4D FC             mov ecx, dword ptr [ebp - 4]
0x0040B568: A1 6C 07 B3 00       mov eax, dword ptr [0xb3076c]
0x0040B56D: 03 C1                add eax, ecx
0x0040B56F: 33 D2                xor edx, edx
0x0040B571: BE 0A 00 00 00       mov esi, 0xa
0x0040B576: F7 F6                div esi
0x0040B578: 83 C1 0C             add ecx, 0xc
0x0040B57B: 89 4D F4             mov dword ptr [ebp - 0xc], ecx
0x0040B57E: 8B F2                mov esi, edx
0x0040B580: 8B 55 10             mov edx, dword ptr [ebp + 0x10]
0x0040B583: 69 F6 0C 01 00 00    imul esi, esi, 0x10c
0x0040B589: D9 02                fld dword ptr [edx]
0x0040B58B: D9 5D E8             fstp dword ptr [ebp - 0x18]
0x0040B58E: DB 45 F4             fild dword ptr [ebp - 0xc]
0x0040B591: 81 C6 70 07 B3 00    add esi, 0xb30770
0x0040B597: 85 C9                test ecx, ecx
0x0040B599: 7D 06                jge 0x40b5a1
0x0040B59B: D8 05 AC 23 9E 00    fadd dword ptr [0x9e23ac]
0x0040B5A1: D8 0D C8 30 9E 00    fmul dword ptr [0x9e30c8]
0x0040B5A7: 32 DB                xor bl, bl
0x0040B5A9: 38 5E 04             cmp byte ptr [esi + 4], bl
0x0040B5AC: 8D 7E 04             lea edi, [esi + 4]
0x0040B5AF: D9 55 F4             fst dword ptr [ebp - 0xc]
0x0040B5B2: D8 6A 0C             fsubr dword ptr [edx + 0xc]
0x0040B5B5: D9 5D EC             fstp dword ptr [ebp - 0x14]
0x0040B5B8: D9 E8                fld1
0x0040B5BA: D9 5D F0             fstp dword ptr [ebp - 0x10]
0x0040B5BD: 74 72                je 0x40b631
0x0040B5BF: 83 BE 04 01 00 00 00 cmp dword ptr [esi + 0x104], 0
0x0040B5C6: 8D 9E 04 01 00 00    lea ebx, [esi + 0x104]
0x0040B5CC: 74 09                je 0x40b5d7
0x0040B5CE: 53                   push ebx
0x0040B5CF: E8 EC 29 2B 00       call 0x6bdfc0
0x0040B5D4: 83 C4 04             add esp, 4
0x0040B5D7: D9 E8                fld1
0x0040B5D9: 83 EC 08             sub esp, 8
0x0040B5DC: D9 54 24 04          fst dword ptr [esp + 4]
0x0040B5E0: A1 64 07 B3 00       mov eax, dword ptr [0xb30764]
0x0040B5E5: D9 05 C4 30 9E 00    fld dword ptr [0x9e30c4]
0x0040B5EB: 8D 8E 08 01 00 00    lea ecx, [esi + 0x108]
0x0040B5F1: D9 1C 24             fstp dword ptr [esp]
0x0040B5F4: 8D 55 E8             lea edx, [ebp - 0x18]
0x0040B5F7: D9 EE                fldz
0x0040B5F9: 51                   push ecx
0x0040B5FA: 68 44 1F 00 00       push 0x1f44
0x0040B5FF: 6A 00                push 0
0x0040B601: 6A 01                push 1
0x0040B603: 53                   push ebx
0x0040B604: 83 EC 0C             sub esp, 0xc
0x0040B607: D9 54 24 08          fst dword ptr [esp + 8]
0x0040B60B: D9 05 68 07 B3 00    fld dword ptr [0xb30768]
0x0040B611: D9 5C 24 04          fstp dword ptr [esp + 4]
0x0040B615: D9 C9                fxch st(1)
0x0040B617: D9 1C 24             fstp dword ptr [esp]
0x0040B61A: 52                   push edx
0x0040B61B: 51                   push ecx
0x0040B61C: D9 1C 24             fstp dword ptr [esp]
0x0040B61F: 57                   push edi
0x0040B620: 50                   push eax
0x0040B621: E8 8A 2C 2B 00       call 0x6be2b0
0x0040B626: 8B 55 10             mov edx, dword ptr [ebp + 0x10]
0x0040B629: 83 C4 38             add esp, 0x38
0x0040B62C: B3 01                mov bl, 1
0x0040B62E: C6 07 00             mov byte ptr [edi], 0
0x0040B631: 8B 8E 04 01 00 00    mov ecx, dword ptr [esi + 0x104]
0x0040B637: 85 C9                test ecx, ecx
0x0040B639: 8D BE 04 01 00 00    lea edi, [esi + 0x104]
0x0040B63F: 0F 84 8E 00 00 00    je 0x40b6d3
0x0040B645: 8B 45 F8             mov eax, dword ptr [ebp - 8]
0x0040B648: 2B 06                sub eax, dword ptr [esi]
0x0040B64A: 3D C8 32 00 00       cmp eax, 0x32c8
0x0040B64F: 76 11                jbe 0x40b662
0x0040B651: 57                   push edi
0x0040B652: E8 69 29 2B 00       call 0x6bdfc0
0x0040B657: 83 C4 04             add esp, 4
0x0040B65A: C7 07 00 00 00 00    mov dword ptr [edi], 0
0x0040B660: EB 71                jmp 0x40b6d3
0x0040B662: 3D 10 27 00 00       cmp eax, 0x2710
0x0040B667: 76 2A                jbe 0x40b693
0x0040B669: BA C8 32 00 00       mov edx, 0x32c8
0x0040B66E: 2B D0                sub edx, eax
0x0040B670: B8 AB AA AA AA       mov eax, 0xaaaaaaab
0x0040B675: F7 E2                mul edx
0x0040B677: C1 EA 03             shr edx, 3
0x0040B67A: 88 96 0B 01 00 00    mov byte ptr [esi + 0x10b], dl
0x0040B680: 81 C6 08 01 00 00    add esi, 0x108
0x0040B686: 56                   push esi
0x0040B687: 51                   push ecx
0x0040B688: E8 E3 19 2B 00       call 0x6bd070
0x0040B68D: 8B 55 10             mov edx, dword ptr [ebp + 0x10]
0x0040B690: 83 C4 08             add esp, 8
0x0040B693: 80 3D 5B 07 B3 00 00 cmp byte ptr [0xb3075b], 0
0x0040B69A: 74 26                je 0x40b6c2
0x0040B69C: 84 DB                test bl, bl
0x0040B69E: 75 22                jne 0x40b6c2
0x0040B6A0: D9 02                fld dword ptr [edx]
0x0040B6A2: 8B 0F                mov ecx, dword ptr [edi]
0x0040B6A4: D9 5D DC             fstp dword ptr [ebp - 0x24]
0x0040B6A7: 8D 45 DC             lea eax, [ebp - 0x24]
0x0040B6AA: D9 42 0C             fld dword ptr [edx + 0xc]
0x0040B6AD: 50                   push eax
0x0040B6AE: D8 65 F4             fsub dword ptr [ebp - 0xc]
0x0040B6B1: 51                   push ecx
0x0040B6B2: D9 5D E0             fstp dword ptr [ebp - 0x20]
0x0040B6B5: D9 EE                fldz
0x0040B6B7: D9 5D E4             fstp dword ptr [ebp - 0x1c]
0x0040B6BA: E8 E1 19 2B 00       call 0x6bd0a0
0x0040B6BF: 83 C4 08             add esp, 8
0x0040B6C2: 8B 17                mov edx, dword ptr [edi]
0x0040B6C4: A1 60 07 B3 00       mov eax, dword ptr [0xb30760]
0x0040B6C9: 52                   push edx
0x0040B6CA: 50                   push eax
0x0040B6CB: E8 40 17 2B 00       call 0x6bce10
0x0040B6D0: 83 C4 08             add esp, 8
0x0040B6D3: 8B 45 FC             mov eax, dword ptr [ebp - 4]
0x0040B6D6: 83 C0 01             add eax, 1
0x0040B6D9: 83 F8 0A             cmp eax, 0xa
0x0040B6DC: 89 45 FC             mov dword ptr [ebp - 4], eax
0x0040B6DF: 0F 82 80 FE FF FF    jb 0x40b565
0x0040B6E5: 8B 0D 60 07 B3 00    mov ecx, dword ptr [0xb30760]
0x0040B6EB: 51                   push ecx
0x0040B6EC: E8 4F 17 2B 00       call 0x6bce40
0x0040B6F1: 8B 15 60 07 B3 00    mov edx, dword ptr [0xb30760]
0x0040B6F7: 52                   push edx
0x0040B6F8: E8 93 2C 2B 00       call 0x6be390
0x0040B6FD: 83 C4 08             add esp, 8
0x0040B700: 5F                   pop edi
0x0040B701: 5E                   pop esi
0x0040B702: C6 05 5B 07 B3 00 00 mov byte ptr [0xb3075b], 0
0x0040B709: 5B                   pop ebx
0x0040B70A: 8B E5                mov esp, ebp
0x0040B70C: 5D                   pop ebp
0x0040B70D: C3                   ret
0x0040B70E: CC                   int3
0x0040B70F: CC                   int3
0x0040B710: 55                   push ebp
0x0040B711: 8B EC                mov ebp, esp
0x0040B713: 83 EC 10             sub esp, 0x10
0x0040B716: 80 3D 58 07 B3 00 00 cmp byte ptr [0xb30758], 0
0x0040B71D: 0F 85 A6 00 00 00    jne 0x40b7c9
0x0040B723: 6A 00                push 0
0x0040B725: 6A 00                push 0
0x0040B727: E8 34 3A 2B 00       call 0x6bf160
0x0040B72C: 83 C4 08             add esp, 8
0x0040B72F: 85 C0                test eax, eax
0x0040B731: A3 60 07 B3 00       mov dword ptr [0xb30760], eax
0x0040B736: 0F 84 8D 00 00 00    je 0x40b7c9
0x0040B73C: 6A 01                push 1
0x0040B73E: E8 7D D6 09 00       call 0x4a8dc0
0x0040B743: 50                   push eax
0x0040B744: E8 87 22 0B 00       call 0x4bd9d0
0x0040B749: 83 C4 08             add esp, 8
0x0040B74C: 85 C0                test eax, eax
0x0040B74E: A3 64 07 B3 00       mov dword ptr [0xb30764], eax
0x0040B753: 74 74                je 0x40b7c9
0x0040B755: 6A 01                push 1
0x0040B757: E8 84 D6 09 00       call 0x4a8de0
0x0040B75C: D9 15 68 07 B3 00    fst dword ptr [0xb30768]
0x0040B762: D9 EE                fldz
0x0040B764: 83 C4 04             add esp, 4
0x0040B767: D9 C0                fld st(0)
0x0040B769: DD EA                fucomp st(2)
0x0040B76B: DF E0                fnstsw ax
0x0040B76D: DD D9                fstp st(1)
0x0040B76F: F6 C4 44             test ah, 0x44
0x0040B772: 7B 53                jnp 0x40b7c7
0x0040B774: D9 55 F0             fst dword ptr [ebp - 0x10]
0x0040B777: 68 5C 07 B3 00       push 0xb3075c
0x0040B77C: D9 5D F4             fstp dword ptr [ebp - 0xc]
0x0040B77F: 68 40 B5 40 00       push 0x40b540
0x0040B784: D9 E8                fld1
0x0040B786: 6A 00                push 0
0x0040B788: D9 55 F8             fst dword ptr [ebp - 8]
0x0040B78B: 6A 07                push 7
0x0040B78D: D9 5D FC             fstp dword ptr [ebp - 4]
0x0040B790: 51                   push ecx
0x0040B791: D9 05 CC 30 9E 00    fld dword ptr [0x9e30cc]
0x0040B797: 8D 45 F0             lea eax, [ebp - 0x10]
0x0040B79A: D9 1C 24             fstp dword ptr [esp]
0x0040B79D: 50                   push eax
0x0040B79E: E8 0D D4 09 00       call 0x4a8bb0
0x0040B7A3: 83 C4 18             add esp, 0x18
0x0040B7A6: 83 3D 5C 07 B3 00 00 cmp dword ptr [0xb3075c], 0
0x0040B7AD: 74 1A                je 0x40b7c9
0x0040B7AF: 68 20 B4 40 00       push 0x40b420
0x0040B7B4: E8 B7 33 1E 00       call 0x5eeb70
0x0040B7B9: 83 C4 04             add esp, 4
0x0040B7BC: C6 05 58 07 B3 00 01 mov byte ptr [0xb30758], 1
0x0040B7C3: 8B E5                mov esp, ebp
0x0040B7C5: 5D                   pop ebp
0x0040B7C6: C3                   ret
0x0040B7C7: DD D8                fstp st(0)
0x0040B7C9: 8B E5                mov esp, ebp
0x0040B7CB: 5D                   pop ebp
0x0040B7CC: C3                   ret
0x0040B7CD: CC                   int3
0x0040B7CE: CC                   int3
0x0040B7CF: CC                   int3
0x0040B7D0: 55                   push ebp
0x0040B7D1: 8B EC                mov ebp, esp
0x0040B7D3: E8 98 B5 FF FF       call 0x406d70
0x0040B7D8: 8B 15 E8 11 B3 00    mov edx, dword ptr [0xb311e8]
0x0040B7DE: 8B 4D 08             mov ecx, dword ptr [ebp + 8]
0x0040B7E1: 52                   push edx
0x0040B7E2: 89 01                mov dword ptr [ecx], eax
0x0040B7E4: FF 15 D4 F2 9D 00    call dword ptr [0x9df2d4]
0x0040B7EA: 5D                   pop ebp
0x0040B7EB: C2 04 00             ret 4
0x0040B7EE: CC                   int3
0x0040B7EF: CC                   int3
0x0040B7F0: 55                   push ebp
0x0040B7F1: 8B EC                mov ebp, esp
0x0040B7F3: 51                   push ecx
0x0040B7F4: 6A 00                push 0
0x0040B7F6: FF 15 E0 F1 9D 00    call dword ptr [0x9df1e0]
0x0040B7FC: 85 C0                test eax, eax
0x0040B7FE: A3 E8 11 B3 00       mov dword ptr [0xb311e8], eax
0x0040B803: 75 09                jne 0x40b80e
0x0040B805: 83 C8 FF             or eax, 0xffffffff
0x0040B808: 8B E5                mov esp, ebp
0x0040B80A: 5D                   pop ebp
0x0040B80B: C2 10 00             ret 0x10
0x0040B80E: 56                   push esi
0x0040B80F: 8D 45 FC             lea eax, [ebp - 4]
0x0040B812: 50                   push eax
0x0040B813: 68 D0 B7 40 00       push 0x40b7d0
0x0040B818: 6A 00                push 0
0x0040B81A: 68 00 00 80 00       push 0x800000
0x0040B81F: 6A 00                push 0
0x0040B821: C7 45 FC FF FF FF FF mov dword ptr [ebp - 4], 0xffffffff
0x0040B828: FF 15 E4 F1 9D 00    call dword ptr [0x9df1e4]
0x0040B82E: 8B F0                mov esi, eax
0x0040B830: 85 F6                test esi, esi
0x0040B832: 75 0A                jne 0x40b83e
0x0040B834: 83 C8 FF             or eax, 0xffffffff
0x0040B837: 5E                   pop esi
0x0040B838: 8B E5                mov esp, ebp
0x0040B83A: 5D                   pop ebp
0x0040B83B: C2 10 00             ret 0x10
0x0040B83E: 56                   push esi
0x0040B83F: FF 15 D4 F2 9D 00    call dword ptr [0x9df2d4]
0x0040B845: 56                   push esi
0x0040B846: FF 15 E8 F1 9D 00    call dword ptr [0x9df1e8]
0x0040B84C: 8B 45 FC             mov eax, dword ptr [ebp - 4]
0x0040B84F: 5E                   pop esi
0x0040B850: 8B E5                mov esp, ebp
0x0040B852: 5D                   pop ebp
0x0040B853: C2 10 00             ret 0x10
0x0040B856: 83 3D F4 11 B3 00 01 cmp dword ptr [0xb311f4], 1
0x0040B85D: 75 05                jne 0x40b864
0x0040B85F: E8 18 1B 00 00       call 0x40d37c
0x0040B864: FF 74 24 04          push dword ptr [esp + 4]
0x0040B868: E8 6F 19 00 00       call 0x40d1dc
0x0040B86D: 68 FF 00 00 00       push 0xff
0x0040B872: E8 93 16 00 00       call 0x40cf0a
0x0040B877: 59                   pop ecx
0x0040B878: 59                   pop ecx
0x0040B879: C3                   ret
0x0040B87A: 66 81 3D 00 00 40 00 4D 5A cmp word ptr [0x400000], 0x5a4d
0x0040B883: 75 33                jne 0x40b8b8
0x0040B885: A1 3C 00 40 00       mov eax, dword ptr [0x40003c]
0x0040B88A: 81 B8 00 00 40 00 50 45 00 00 cmp dword ptr [eax + 0x400000], 0x4550
0x0040B894: 75 22                jne 0x40b8b8
0x0040B896: 66 81 B8 18 00 40 00 0B 01 cmp word ptr [eax + 0x400018], 0x10b
0x0040B89F: 75 17                jne 0x40b8b8
0x0040B8A1: 83 B8 74 00 40 00 0E cmp dword ptr [eax + 0x400074], 0xe
0x0040B8A8: 76 0E                jbe 0x40b8b8
0x0040B8AA: 33 C9                xor ecx, ecx
0x0040B8AC: 39 88 E8 00 40 00    cmp dword ptr [eax + 0x4000e8], ecx
0x0040B8B2: 0F 95 C1             setne cl
0x0040B8B5: 8B C1                mov eax, ecx
0x0040B8B7: C3                   ret
0x0040B8B8: 33 C0                xor eax, eax
0x0040B8BA: C3                   ret
0x0040B8BB: 6A 60                push 0x60
0x0040B8BD: 68 28 F2 AA 00       push 0xaaf228
0x0040B8C2: E8 A1 2A 00 00       call 0x40e368
0x0040B8C7: 83 65 FC 00          and dword ptr [ebp - 4], 0
0x0040B8CB: 8D 45 90             lea eax, [ebp - 0x70]
0x0040B8CE: 50                   push eax
0x0040B8CF: FF 15 C8 F1 9D 00    call dword ptr [0x9df1c8]
0x0040B8D5: C7 45 FC FE FF FF FF mov dword ptr [ebp - 4], 0xfffffffe
0x0040B8DC: BF 94 00 00 00       mov edi, 0x94
0x0040B8E1: 57                   push edi
0x0040B8E2: 6A 00                push 0
0x0040B8E4: 8B 1D CC F1 9D 00    mov ebx, dword ptr [0x9df1cc]
0x0040B8EA: FF D3                call ebx
0x0040B8EC: 50                   push eax
0x0040B8ED: FF 15 D0 F1 9D 00    call dword ptr [0x9df1d0]
0x0040B8F3: 8B F0                mov esi, eax
0x0040B8F5: 85 F6                test esi, esi
0x0040B8F7: 75 0D                jne 0x40b906
0x0040B8F9: 6A 12                push 0x12
0x0040B8FB: E8 56 FF FF FF       call 0x40b856
0x0040B900: 59                   pop ecx
0x0040B901: E9 8A 01 00 00       jmp 0x40ba90
0x0040B906: 89 3E                mov dword ptr [esi], edi
0x0040B908: 56                   push esi
0x0040B909: FF 15 D4 F1 9D 00    call dword ptr [0x9df1d4]
0x0040B90F: 56                   push esi
0x0040B910: 6A 00                push 0
0x0040B912: 85 C0                test eax, eax
0x0040B914: 75 0E                jne 0x40b924
0x0040B916: FF D3                call ebx
0x0040B918: 50                   push eax
0x0040B919: FF 15 D8 F1 9D 00    call dword ptr [0x9df1d8]
0x0040B91F: E9 6C 01 00 00       jmp 0x40ba90
0x0040B924: 8B 46 10             mov eax, dword ptr [esi + 0x10]
0x0040B927: 89 45 E0             mov dword ptr [ebp - 0x20], eax
0x0040B92A: 8B 46 04             mov eax, dword ptr [esi + 4]
0x0040B92D: 89 45 DC             mov dword ptr [ebp - 0x24], eax
0x0040B930: 8B 46 08             mov eax, dword ptr [esi + 8]
0x0040B933: 89 45 D8             mov dword ptr [ebp - 0x28], eax
0x0040B936: 8B 7E 0C             mov edi, dword ptr [esi + 0xc]
0x0040B939: 81 E7 FF 7F 00 00    and edi, 0x7fff
0x0040B93F: FF D3                call ebx
0x0040B941: 50                   push eax
0x0040B942: FF 15 D8 F1 9D 00    call dword ptr [0x9df1d8]
0x0040B948: 8B 75 E0             mov esi, dword ptr [ebp - 0x20]
0x0040B94B: 83 FE 02             cmp esi, 2
0x0040B94E: 74 06                je 0x40b956
0x0040B950: 81 CF 00 80 00 00    or edi, 0x8000
0x0040B956: 8B 4D DC             mov ecx, dword ptr [ebp - 0x24]
0x0040B959: 8B C1                mov eax, ecx
0x0040B95B: C1 E0 08             shl eax, 8
0x0040B95E: 8B 55 D8             mov edx, dword ptr [ebp - 0x28]
0x0040B961: 03 C2                add eax, edx
0x0040B963: 89 35 08 12 B3 00    mov dword ptr [0xb31208], esi
0x0040B969: A3 10 12 B3 00       mov dword ptr [0xb31210], eax
0x0040B96E: 89 0D 14 12 B3 00    mov dword ptr [0xb31214], ecx
0x0040B974: 89 15 18 12 B3 00    mov dword ptr [0xb31218], edx
0x0040B97A: 89 3D 0C 12 B3 00    mov dword ptr [0xb3120c], edi
0x0040B980: E8 F5 FE FF FF       call 0x40b87a
0x0040B985: 89 45 E0             mov dword ptr [ebp - 0x20], eax
0x0040B988: 33 DB                xor ebx, ebx
0x0040B98A: 43                   inc ebx
0x0040B98B: 53                   push ebx
0x0040B98C: E8 7D 29 00 00       call 0x40e30e
0x0040B991: 59                   pop ecx
0x0040B992: 85 C0                test eax, eax
0x0040B994: 75 08                jne 0x40b99e
0x0040B996: 6A 1C                push 0x1c
0x0040B998: E8 B9 FE FF FF       call 0x40b856
0x0040B99D: 59                   pop ecx
0x0040B99E: E8 8C 27 00 00       call 0x40e12f
0x0040B9A3: 85 C0                test eax, eax
0x0040B9A5: 75 08                jne 0x40b9af
0x0040B9A7: 6A 10                push 0x10
0x0040B9A9: E8 A8 FE FF FF       call 0x40b856
0x0040B9AE: 59                   pop ecx
0x0040B9AF: E8 5E 22 00 00       call 0x40dc12
0x0040B9B4: 89 5D FC             mov dword ptr [ebp - 4], ebx
0x0040B9B7: E8 16 20 00 00       call 0x40d9d2
0x0040B9BC: 85 C0                test eax, eax
0x0040B9BE: 7D 08                jge 0x40b9c8
0x0040B9C0: 6A 1B                push 0x1b
0x0040B9C2: E8 F9 14 00 00       call 0x40cec0
0x0040B9C7: 59                   pop ecx
0x0040B9C8: FF 15 DC F1 9D 00    call dword ptr [0x9df1dc]
0x0040B9CE: A3 74 04 DD 00       mov dword ptr [0xdd0474], eax
0x0040B9D3: E8 C5 1E 00 00       call 0x40d89d
0x0040B9D8: A3 EC 11 B3 00       mov dword ptr [0xb311ec], eax
0x0040B9DD: E8 02 1E 00 00       call 0x40d7e4
0x0040B9E2: 85 C0                test eax, eax
0x0040B9E4: 7D 08                jge 0x40b9ee
0x0040B9E6: 6A 08                push 8
0x0040B9E8: E8 D3 14 00 00       call 0x40cec0
0x0040B9ED: 59                   pop ecx
0x0040B9EE: E8 7E 1B 00 00       call 0x40d571
0x0040B9F3: 85 C0                test eax, eax
0x0040B9F5: 7D 08                jge 0x40b9ff
0x0040B9F7: 6A 09                push 9
0x0040B9F9: E8 C2 14 00 00       call 0x40cec0
0x0040B9FE: 59                   pop ecx
0x0040B9FF: 53                   push ebx
0x0040BA00: E8 D7 15 00 00       call 0x40cfdc
0x0040BA05: 59                   pop ecx
0x0040BA06: 85 C0                test eax, eax
0x0040BA08: 74 07                je 0x40ba11
0x0040BA0A: 50                   push eax
0x0040BA0B: E8 B0 14 00 00       call 0x40cec0
0x0040BA10: 59                   pop ecx
0x0040BA11: E8 FE 1A 00 00       call 0x40d514
0x0040BA16: 84 5D BC             test byte ptr [ebp - 0x44], bl
0x0040BA19: 74 06                je 0x40ba21
0x0040BA1B: 0F B7 4D C0          movzx ecx, word ptr [ebp - 0x40]
0x0040BA1F: EB 03                jmp 0x40ba24
0x0040BA21: 6A 0A                push 0xa
0x0040BA23: 59                   pop ecx
0x0040BA24: 51                   push ecx
0x0040BA25: 50                   push eax
0x0040BA26: 6A 00                push 0
0x0040BA28: 68 00 00 40 00       push 0x400000
0x0040BA2D: E8 BE FD FF FF       call 0x40b7f0
0x0040BA32: 89 45 E4             mov dword ptr [ebp - 0x1c], eax
0x0040BA35: 83 7D E0 00          cmp dword ptr [ebp - 0x20], 0
0x0040BA39: 75 06                jne 0x40ba41
0x0040BA3B: 50                   push eax
0x0040BA3C: E8 0F 17 00 00       call 0x40d150
0x0040BA41: E8 2C 17 00 00       call 0x40d172
0x0040BA46: EB 2E                jmp 0x40ba76
0x0040BA48: 8B 45 EC             mov eax, dword ptr [ebp - 0x14]
0x0040BA4B: 8B 08                mov ecx, dword ptr [eax]
0x0040BA4D: 8B 09                mov ecx, dword ptr [ecx]
0x0040BA4F: 89 4D D4             mov dword ptr [ebp - 0x2c], ecx
0x0040BA52: 50                   push eax
0x0040BA53: 51                   push ecx
0x0040BA54: E8 5D 19 00 00       call 0x40d3b6
0x0040BA59: 59                   pop ecx
0x0040BA5A: 59                   pop ecx
0x0040BA5B: C3                   ret
0x0040BA5C: 8B 65 E8             mov esp, dword ptr [ebp - 0x18]
0x0040BA5F: 8B 45 D4             mov eax, dword ptr [ebp - 0x2c]
0x0040BA62: 89 45 E4             mov dword ptr [ebp - 0x1c], eax
0x0040BA65: 83 7D E0 00          cmp dword ptr [ebp - 0x20], 0
0x0040BA69: 75 06                jne 0x40ba71
0x0040BA6B: 50                   push eax
0x0040BA6C: E8 F0 16 00 00       call 0x40d161
0x0040BA71: E8 0B 17 00 00       call 0x40d181
0x0040BA76: C7 45 FC FE FF FF FF mov dword ptr [ebp - 4], 0xfffffffe
0x0040BA7D: 8B 45 E4             mov eax, dword ptr [ebp - 0x1c]
0x0040BA80: EB 13                jmp 0x40ba95
0x0040BA82: 33 C0                xor eax, eax
0x0040BA84: 40                   inc eax
0x0040BA85: C3                   ret
0x0040BA86: 8B 65 E8             mov esp, dword ptr [ebp - 0x18]
0x0040BA89: C7 45 FC FE FF FF FF mov dword ptr [ebp - 4], 0xfffffffe
0x0040BA90: B8 FF 00 00 00       mov eax, 0xff
0x0040BA95: E8 13 29 00 00       call 0x40e3ad
0x0040BA9A: C3                   ret
0x0040BA9B: E8 C6 2A 00 00       call 0x40e566
0x0040BAA0: E9 16 FE FF FF       jmp 0x40b8bb
0x0040BAA5: FF 35 90 16 B3 00    push dword ptr [0xb31690]
0x0040BAAB: E8 8D 22 00 00       call 0x40dd3d
0x0040BAB0: 85 C0                test eax, eax
0x0040BAB2: 59                   pop ecx
0x0040BAB3: 74 02                je 0x40bab7
0x0040BAB5: FF D0                call eax
0x0040BAB7: 6A 19                push 0x19
0x0040BAB9: E8 1E 17 00 00       call 0x40d1dc
0x0040BABE: 6A 01                push 1
0x0040BAC0: 6A 00                push 0
0x0040BAC2: E8 26 2C 00 00       call 0x40e6ed
0x0040BAC7: 83 C4 0C             add esp, 0xc
0x0040BACA: E9 2B 2B 00 00       jmp 0x40e5fa
0x0040BACF: B8 24 F2 40 00       mov eax, 0x40f224
0x0040BAD4: A3 C0 67 AB 00       mov dword ptr [0xab67c0], eax
0x0040BAD9: C7 05 C4 67 AB 00 20 E9 40 00 mov dword ptr [0xab67c4], 0x40e920
0x0040BAE3: C7 05 C8 67 AB 00 DE E8 40 00 mov dword ptr [0xab67c8], 0x40e8de
0x0040BAED: C7 05 CC 67 AB 00 12 E9 40 00 mov dword ptr [0xab67cc], 0x40e912
0x0040BAF7: C7 05 D0 67 AB 00 88 E8 40 00 mov dword ptr [0xab67d0], 0x40e888
0x0040BB01: A3 D4 67 AB 00       mov dword ptr [0xab67d4], eax
0x0040BB06: C7 05 D8 67 AB 00 9E F1 40 00 mov dword ptr [0xab67d8], 0x40f19e
0x0040BB10: C7 05 DC 67 AB 00 9E E8 40 00 mov dword ptr [0xab67dc], 0x40e89e
0x0040BB1A: C7 05 E0 67 AB 00 08 E8 40 00 mov dword ptr [0xab67e0], 0x40e808
0x0040BB24: C7 05 E4 67 AB 00 97 E7 40 00 mov dword ptr [0xab67e4], 0x40e797
0x0040BB2E: C3                   ret
0x0040BB2F: E8 9B FF FF FF       call 0x40bacf
0x0040BB34: E8 90 37 00 00       call 0x40f2c9
0x0040BB39: 83 7C 24 04 00       cmp dword ptr [esp + 4], 0
0x0040BB3E: A3 FC 11 B3 00       mov dword ptr [0xb311fc], eax
0x0040BB43: 74 05                je 0x40bb4a
0x0040BB45: E8 1A 37 00 00       call 0x40f264
0x0040BB4A: DB E2                fnclex
0x0040BB4C: C3                   ret
0x0040BB4D: CC                   int3
0x0040BB4E: CC                   int3
0x0040BB4F: CC                   int3
0x0040BB50: 51                   push ecx
0x0040BB51: 8D 4C 24 04          lea ecx, [esp + 4]
0x0040BB55: 2B C8                sub ecx, eax
0x0040BB57: 1B C0                sbb eax, eax
0x0040BB59: F7 D0                not eax
0x0040BB5B: 23 C8                and ecx, eax
0x0040BB5D: 8B C4                mov eax, esp
0x0040BB5F: 25 00 F0 FF FF       and eax, 0xfffff000
0x0040BB64: 3B C8                cmp ecx, eax
0x0040BB66: 72 0A                jb 0x40bb72
0x0040BB68: 8B C1                mov eax, ecx
0x0040BB6A: 59                   pop ecx
0x0040BB6B: 94                   xchg esp, eax
0x0040BB6C: 8B 00                mov eax, dword ptr [eax]
0x0040BB6E: 89 04 24             mov dword ptr [esp], eax
0x0040BB71: C3                   ret
0x0040BB72: 2D 00 10 00 00       sub eax, 0x1000
0x0040BB77: 85 00                test dword ptr [eax], eax
0x0040BB79: EB E9                jmp 0x40bb64
0x0040BB7B: CC                   int3
0x0040BB7C: CC                   int3
0x0040BB7D: CC                   int3
0x0040BB7E: CC                   int3
0x0040BB7F: CC                   int3
0x0040BB80: 8B 54 24 0C          mov edx, dword ptr [esp + 0xc]
0x0040BB84: 8B 4C 24 04          mov ecx, dword ptr [esp + 4]
0x0040BB88: 85 D2                test edx, edx
0x0040BB8A: 74 69                je 0x40bbf5
0x0040BB8C: 33 C0                xor eax, eax
0x0040BB8E: 8A 44 24 08          mov al, byte ptr [esp + 8]
0x0040BB92: 84 C0                test al, al
0x0040BB94: 75 16                jne 0x40bbac
0x0040BB96: 81 FA 00 01 00 00    cmp edx, 0x100
0x0040BB9C: 72 0E                jb 0x40bbac
0x0040BB9E: 83 3D 44 03 DD 00 00 cmp dword ptr [0xdd0344], 0
0x0040BBA5: 74 05                je 0x40bbac
0x0040BBA7: E9 9D 37 00 00       jmp 0x40f349
0x0040BBAC: 57                   push edi
0x0040BBAD: 8B F9                mov edi, ecx
0x0040BBAF: 83 FA 04             cmp edx, 4
0x0040BBB2: 72 31                jb 0x40bbe5
0x0040BBB4: F7 D9                neg ecx
0x0040BBB6: 83 E1 03             and ecx, 3
0x0040BBB9: 74 0C                je 0x40bbc7
0x0040BBBB: 2B D1                sub edx, ecx
0x0040BBBD: 88 07                mov byte ptr [edi], al
0x0040BBBF: 83 C7 01             add edi, 1
0x0040BBC2: 83 E9 01             sub ecx, 1
0x0040BBC5: 75 F6                jne 0x40bbbd
0x0040BBC7: 8B C8                mov ecx, eax
0x0040BBC9: C1 E0 08             shl eax, 8
0x0040BBCC: 03 C1                add eax, ecx
0x0040BBCE: 8B C8                mov ecx, eax
0x0040BBD0: C1 E0 10             shl eax, 0x10
0x0040BBD3: 03 C1                add eax, ecx
0x0040BBD5: 8B CA                mov ecx, edx
0x0040BBD7: 83 E2 03             and edx, 3
0x0040BBDA: C1 E9 02             shr ecx, 2
0x0040BBDD: 74 06                je 0x40bbe5
0x0040BBDF: F3 AB                rep stosd dword ptr es:[edi], eax
0x0040BBE1: 85 D2                test edx, edx
0x0040BBE3: 74 0A                je 0x40bbef
0x0040BBE5: 88 07                mov byte ptr [edi], al
0x0040BBE7: 83 C7 01             add edi, 1
0x0040BBEA: 83 EA 01             sub edx, 1
0x0040BBED: 75 F6                jne 0x40bbe5
0x0040BBEF: 8B 44 24 08          mov eax, dword ptr [esp + 8]
0x0040BBF3: 5F                   pop edi
0x0040BBF4: C3                   ret
0x0040BBF5: 8B 44 24 04          mov eax, dword ptr [esp + 4]
0x0040BBF9: C3                   ret
0x0040BBFA: 6A 0A                push 0xa
0x0040BBFC: 6A 00                push 0
0x0040BBFE: FF 74 24 0C          push dword ptr [esp + 0xc]
0x0040BC02: E8 10 3A 00 00       call 0x40f617
0x0040BC07: 83 C4 0C             add esp, 0xc
0x0040BC0A: C3                   ret
0x0040BC0B: E9 EA FF FF FF       jmp 0x40bbfa
0x0040BC10: 6A 0A                push 0xa
0x0040BC12: 6A 00                push 0
0x0040BC14: FF 74 24 0C          push dword ptr [esp + 0xc]
0x0040BC18: E8 E1 3C 00 00       call 0x40f8fe
0x0040BC1D: 83 C4 0C             add esp, 0xc
0x0040BC20: C3                   ret
0x0040BC21: 51                   push ecx
0x0040BC22: C7 01 E0 30 9E 00    mov dword ptr [ecx], 0x9e30e0
0x0040BC28: E8 24 3D 00 00       call 0x40f951
0x0040BC2D: 59                   pop ecx
0x0040BC2E: C3                   ret
0x0040BC2F: 56                   push esi
0x0040BC30: 8B F1                mov esi, ecx
0x0040BC32: E8 EA FF FF FF       call 0x40bc21
0x0040BC37: F6 44 24 08 01       test byte ptr [esp + 8], 1
0x0040BC3C: 74 07                je 0x40bc45
0x0040BC3E: 56                   push esi
0x0040BC3F: E8 4C 10 07 00       call 0x47cc90
0x0040BC44: 59                   pop ecx
0x0040BC45: 8B C6                mov eax, esi
0x0040BC47: 5E                   pop esi
0x0040BC48: C2 04 00             ret 4
0x0040BC4B: 8B 44 24 04          mov eax, dword ptr [esp + 4]
0x0040BC4F: 83 C1 09             add ecx, 9
0x0040BC52: 51                   push ecx
0x0040BC53: 83 C0 09             add eax, 9
0x0040BC56: 50                   push eax
0x0040BC57: E8 74 3D 00 00       call 0x40f9d0
0x0040BC5C: F7 D8                neg eax
0x0040BC5E: 59                   pop ecx
0x0040BC5F: 1B C0                sbb eax, eax
0x0040BC61: 59                   pop ecx
0x0040BC62: 40                   inc eax
0x0040BC63: C2 04 00             ret 4
0x0040BC66: CC                   int3
0x0040BC67: CC                   int3
0x0040BC68: 56                   push esi
0x0040BC69: 43                   inc ebx
0x0040BC6A: 32 30                xor dh, byte ptr [eax]
0x0040BC6C: 58                   pop eax
0x0040BC6D: 43                   inc ebx
0x0040BC6E: 30 30                xor byte ptr [eax], dh
0x0040BC70: 55                   push ebp
0x0040BC71: 8B EC                mov ebp, esp
0x0040BC73: 83 EC 08             sub esp, 8
0x0040BC76: 53                   push ebx
0x0040BC77: 56                   push esi
0x0040BC78: 57                   push edi
0x0040BC79: 55                   push ebp
0x0040BC7A: FC                   cld
0x0040BC7B: 8B 5D 0C             mov ebx, dword ptr [ebp + 0xc]
0x0040BC7E: 8B 45 08             mov eax, dword ptr [ebp + 8]
0x0040BC81: F7 40 04 06 00 00 00 test dword ptr [eax + 4], 6
0x0040BC88: 0F 85 C3 00 00 00    jne 0x40bd51
0x0040BC8E: 89 45 F8             mov dword ptr [ebp - 8], eax
0x0040BC91: 8B 45 10             mov eax, dword ptr [ebp + 0x10]
0x0040BC94: 89 45 FC             mov dword ptr [ebp - 4], eax
0x0040BC97: 8D 45 F8             lea eax, [ebp - 8]
0x0040BC9A: 89 43 FC             mov dword ptr [ebx - 4], eax
0x0040BC9D: 8B 73 0C             mov esi, dword ptr [ebx + 0xc]
0x0040BCA0: 8B 7B 08             mov edi, dword ptr [ebx + 8]
0x0040BCA3: 53                   push ebx
0x0040BCA4: E8 E7 3F 00 00       call 0x40fc90
0x0040BCA9: 83 C4 04             add esp, 4
0x0040BCAC: 0B C0                or eax, eax
0x0040BCAE: 0F 8E 8F 00 00 00    jle 0x40bd43
0x0040BCB4: 83 FE FF             cmp esi, -1
0x0040BCB7: 0F 84 8D 00 00 00    je 0x40bd4a
0x0040BCBD: 8D 0C 76             lea ecx, [esi + esi*2]
0x0040BCC0: 8B 44 8F 04          mov eax, dword ptr [edi + ecx*4 + 4]
0x0040BCC4: 0B C0                or eax, eax
0x0040BCC6: 74 66                je 0x40bd2e
0x0040BCC8: 56                   push esi
0x0040BCC9: 55                   push ebp
0x0040BCCA: 8D 6B 10             lea ebp, [ebx + 0x10]
0x0040BCCD: 33 DB                xor ebx, ebx
0x0040BCCF: 33 C9                xor ecx, ecx
0x0040BCD1: 33 D2                xor edx, edx
0x0040BCD3: 33 F6                xor esi, esi
0x0040BCD5: 33 FF                xor edi, edi
0x0040BCD7: FF D0                call eax
0x0040BCD9: 5D                   pop ebp
0x0040BCDA: 5E                   pop esi
0x0040BCDB: 8B 5D 0C             mov ebx, dword ptr [ebp + 0xc]
0x0040BCDE: 0B C0                or eax, eax
0x0040BCE0: 74 4C                je 0x40bd2e
0x0040BCE2: 78 58                js 0x40bd3c
0x0040BCE4: 6A 01                push 1
0x0040BCE6: FF 75 08             push dword ptr [ebp + 8]
0x0040BCE9: E8 6A 3D 00 00       call 0x40fa58
0x0040BCEE: 83 C4 08             add esp, 8
0x0040BCF1: 8B 7B 08             mov edi, dword ptr [ebx + 8]
0x0040BCF4: 53                   push ebx
0x0040BCF5: E8 92 3D 00 00       call 0x40fa8c
0x0040BCFA: 83 C4 04             add esp, 4
0x0040BCFD: 8D 6B 10             lea ebp, [ebx + 0x10]
0x0040BD00: 56                   push esi
0x0040BD01: 53                   push ebx
0x0040BD02: E8 EA 3D 00 00       call 0x40faf1
0x0040BD07: 83 C4 08             add esp, 8
0x0040BD0A: 8D 0C 76             lea ecx, [esi + esi*2]
0x0040BD0D: 6A 01                push 1
0x0040BD0F: 8B 44 8F 08          mov eax, dword ptr [edi + ecx*4 + 8]
0x0040BD13: E8 89 3E 00 00       call 0x40fba1
0x0040BD18: 8B 04 8F             mov eax, dword ptr [edi + ecx*4]
0x0040BD1B: 89 43 0C             mov dword ptr [ebx + 0xc], eax
0x0040BD1E: 8B 44 8F 08          mov eax, dword ptr [edi + ecx*4 + 8]
0x0040BD22: 33 DB                xor ebx, ebx
0x0040BD24: 33 C9                xor ecx, ecx
0x0040BD26: 33 D2                xor edx, edx
0x0040BD28: 33 F6                xor esi, esi
0x0040BD2A: 33 FF                xor edi, edi
0x0040BD2C: FF D0                call eax
0x0040BD2E: 8B 7B 08             mov edi, dword ptr [ebx + 8]
0x0040BD31: 8D 0C 76             lea ecx, [esi + esi*2]
0x0040BD34: 8B 34 8F             mov esi, dword ptr [edi + ecx*4]
0x0040BD37: E9 78 FF FF FF       jmp 0x40bcb4
0x0040BD3C: B8 00 00 00 00       mov eax, 0
0x0040BD41: EB 23                jmp 0x40bd66
0x0040BD43: 8B 45 08             mov eax, dword ptr [ebp + 8]
0x0040BD46: 83 48 04 08          or dword ptr [eax + 4], 8
0x0040BD4A: B8 01 00 00 00       mov eax, 1
0x0040BD4F: EB 15                jmp 0x40bd66
0x0040BD51: 55                   push ebp
0x0040BD52: 8D 6B 10             lea ebp, [ebx + 0x10]
0x0040BD55: 6A FF                push -1
0x0040BD57: 53                   push ebx
0x0040BD58: E8 94 3D 00 00       call 0x40faf1
0x0040BD5D: 83 C4 08             add esp, 8
0x0040BD60: 5D                   pop ebp
0x0040BD61: B8 01 00 00 00       mov eax, 1
0x0040BD66: 5D                   pop ebp
0x0040BD67: 5F                   pop edi
0x0040BD68: 5E                   pop esi
0x0040BD69: 5B                   pop ebx
0x0040BD6A: 8B E5                mov esp, ebp
0x0040BD6C: 5D                   pop ebp
0x0040BD6D: C3                   ret
0x0040BD6E: 55                   push ebp
0x0040BD6F: 8B 4C 24 08          mov ecx, dword ptr [esp + 8]
0x0040BD73: 8B 29                mov ebp, dword ptr [ecx]
0x0040BD75: 8B 41 1C             mov eax, dword ptr [ecx + 0x1c]
0x0040BD78: 50                   push eax
0x0040BD79: 8B 41 18             mov eax, dword ptr [ecx + 0x18]
0x0040BD7C: 50                   push eax
0x0040BD7D: E8 6F 3D 00 00       call 0x40faf1
0x0040BD82: 83 C4 08             add esp, 8
0x0040BD85: 5D                   pop ebp
0x0040BD86: C2 04 00             ret 4
0x0040BD89: CC                   int3
0x0040BD8A: CC                   int3
0x0040BD8B: CC                   int3
0x0040BD8C: CC                   int3
0x0040BD8D: CC                   int3
0x0040BD8E: CC                   int3
0x0040BD8F: CC                   int3
0x0040BD90: 3B C1                cmp eax, ecx
0x0040BD92: 56                   push esi
0x0040BD93: 8B F2                mov esi, edx
0x0040BD95: 74 1F                je 0x40bdb6
0x0040BD97: 85 F6                test esi, esi
0x0040BD99: 74 1B                je 0x40bdb6
0x0040BD9B: 53                   push ebx
0x0040BD9C: 8D 64 24 00          lea esp, [esp]
0x0040BDA0: 8A 19                mov bl, byte ptr [ecx]
0x0040BDA2: 8A 10                mov dl, byte ptr [eax]
0x0040BDA4: 88 18                mov byte ptr [eax], bl
0x0040BDA6: 83 EE 01             sub esi, 1
0x0040BDA9: 88 11                mov byte ptr [ecx], dl
0x0040BDAB: 83 C0 01             add eax, 1
0x0040BDAE: 83 C1 01             add ecx, 1
0x0040BDB1: 85 F6                test esi, esi
0x0040BDB3: 75 EB                jne 0x40bda0
0x0040BDB5: 5B                   pop ebx
0x0040BDB6: 5E                   pop esi
0x0040BDB7: C3                   ret
0x0040BDB8: CC                   int3
0x0040BDB9: CC                   int3
0x0040BDBA: CC                   int3
0x0040BDBB: CC                   int3
0x0040BDBC: CC                   int3
0x0040BDBD: CC                   int3
0x0040BDBE: CC                   int3
0x0040BDBF: CC                   int3
0x0040BDC0: 8B 4C 24 04          mov ecx, dword ptr [esp + 4]
0x0040BDC4: 55                   push ebp
0x0040BDC5: 8B 6C 24 0C          mov ebp, dword ptr [esp + 0xc]
0x0040BDC9: 3B E9                cmp ebp, ecx
0x0040BDCB: 76 78                jbe 0x40be45
0x0040BDCD: 53                   push ebx
0x0040BDCE: 8B 5C 24 14          mov ebx, dword ptr [esp + 0x14]
0x0040BDD2: 56                   push esi
0x0040BDD3: 8D 04 19             lea eax, [ecx + ebx]
0x0040BDD6: 57                   push edi
0x0040BDD7: 89 44 24 18          mov dword ptr [esp + 0x18], eax
0x0040BDDB: EB 03                jmp 0x40bde0
0x0040BDDD: 8D 49 00             lea ecx, [ecx]
0x0040BDE0: 8B 74 24 18          mov esi, dword ptr [esp + 0x18]
0x0040BDE4: 3B F5                cmp esi, ebp
0x0040BDE6: 8B F9                mov edi, ecx
0x0040BDE8: 77 1F                ja 0x40be09
0x0040BDEA: 8D 9B 00 00 00 00    lea ebx, [ebx]
0x0040BDF0: 57                   push edi
0x0040BDF1: 56                   push esi
0x0040BDF2: FF 54 24 28          call dword ptr [esp + 0x28]
0x0040BDF6: 83 C4 08             add esp, 8
0x0040BDF9: 85 C0                test eax, eax
0x0040BDFB: 7E 02                jle 0x40bdff
0x0040BDFD: 8B FE                mov edi, esi
0x0040BDFF: 03 F3                add esi, ebx
0x0040BE01: 3B F5                cmp esi, ebp
0x0040BE03: 76 EB                jbe 0x40bdf0
0x0040BE05: 8B 4C 24 14          mov ecx, dword ptr [esp + 0x14]
0x0040BE09: 3B FD                cmp edi, ebp
0x0040BE0B: 8B F3                mov esi, ebx
0x0040BE0D: 8B C5                mov eax, ebp
0x0040BE0F: 74 2B                je 0x40be3c
0x0040BE11: 85 DB                test ebx, ebx
0x0040BE13: 74 27                je 0x40be3c
0x0040BE15: 8B CF                mov ecx, edi
0x0040BE17: 2B CD                sub ecx, ebp
0x0040BE19: 8D A4 24 00 00 00 00 lea esp, [esp]
0x0040BE20: 8A 18                mov bl, byte ptr [eax]
0x0040BE22: 8A 14 01             mov dl, byte ptr [ecx + eax]
0x0040BE25: 88 1C 01             mov byte ptr [ecx + eax], bl
0x0040BE28: 83 EE 01             sub esi, 1
0x0040BE2B: 88 10                mov byte ptr [eax], dl
0x0040BE2D: 83 C0 01             add eax, 1
0x0040BE30: 85 F6                test esi, esi
0x0040BE32: 75 EC                jne 0x40be20
0x0040BE34: 8B 5C 24 1C          mov ebx, dword ptr [esp + 0x1c]
0x0040BE38: 8B 4C 24 14          mov ecx, dword ptr [esp + 0x14]
0x0040BE3C: 2B EB                sub ebp, ebx
0x0040BE3E: 3B E9                cmp ebp, ecx
0x0040BE40: 77 9E                ja 0x40bde0
0x0040BE42: 5F                   pop edi
0x0040BE43: 5E                   pop esi
0x0040BE44: 5B                   pop ebx
0x0040BE45: 5D                   pop ebp
0x0040BE46: C3                   ret
0x0040BE47: CC                   int3
0x0040BE48: CC                   int3
0x0040BE49: CC                   int3
0x0040BE4A: CC                   int3
0x0040BE4B: CC                   int3
0x0040BE4C: CC                   int3
0x0040BE4D: CC                   int3
0x0040BE4E: CC                   int3
0x0040BE4F: CC                   int3
0x0040BE50: 81 EC 00 01 00 00    sub esp, 0x100
0x0040BE56: 53                   push ebx
0x0040BE57: 8B 9C 24 08 01 00 00 mov ebx, dword ptr [esp + 0x108]
0x0040BE5E: 85 DB                test ebx, ebx
0x0040BE60: 56                   push esi
0x0040BE61: 8B B4 24 10 01 00 00 mov esi, dword ptr [esp + 0x110]
0x0040BE68: 75 2A                jne 0x40be94
0x0040BE6A: 85 F6                test esi, esi
0x0040BE6C: 74 26                je 0x40be94
0x0040BE6E: E8 FA 41 00 00       call 0x41006d
0x0040BE73: 6A 00                push 0
0x0040BE75: 6A 00                push 0
0x0040BE77: 6A 00                push 0
0x0040BE79: 6A 00                push 0
0x0040BE7B: 6A 00                push 0
0x0040BE7D: C7 00 16 00 00 00    mov dword ptr [eax], 0x16
0x0040BE83: E8 1A 09 00 00       call 0x40c7a2
0x0040BE88: 83 C4 14             add esp, 0x14
0x0040BE8B: 5E                   pop esi
0x0040BE8C: 5B                   pop ebx
0x0040BE8D: 81 C4 00 01 00 00    add esp, 0x100
0x0040BE93: C3                   ret
0x0040BE94: 55                   push ebp
0x0040BE95: 8B AC 24 18 01 00 00 mov ebp, dword ptr [esp + 0x118]
0x0040BE9C: 85 ED                test ebp, ebp
0x0040BE9E: 76 0A                jbe 0x40beaa
0x0040BEA0: 83 BC 24 1C 01 00 00 00 cmp dword ptr [esp + 0x11c], 0
0x0040BEA8: 75 27                jne 0x40bed1
0x0040BEAA: E8 BE 41 00 00       call 0x41006d
0x0040BEAF: 6A 00                push 0
0x0040BEB1: 6A 00                push 0
0x0040BEB3: 6A 00                push 0
0x0040BEB5: 6A 00                push 0
0x0040BEB7: 6A 00                push 0
0x0040BEB9: C7 00 16 00 00 00    mov dword ptr [eax], 0x16
0x0040BEBF: E8 DE 08 00 00       call 0x40c7a2
0x0040BEC4: 83 C4 14             add esp, 0x14
0x0040BEC7: 5D                   pop ebp
0x0040BEC8: 5E                   pop esi
0x0040BEC9: 5B                   pop ebx
0x0040BECA: 81 C4 00 01 00 00    add esp, 0x100
0x0040BED0: C3                   ret
0x0040BED1: 83 FE 02             cmp esi, 2
0x0040BED4: 0F 82 13 02 00 00    jb 0x40c0ed
0x0040BEDA: 83 C6 FF             add esi, -1
0x0040BEDD: 0F AF F5             imul esi, ebp
0x0040BEE0: 03 F3                add esi, ebx
0x0040BEE2: C7 44 24 18 00 00 00 00 mov dword ptr [esp + 0x18], 0
0x0040BEEA: 89 5C 24 0C          mov dword ptr [esp + 0xc], ebx
0x0040BEEE: 89 74 24 10          mov dword ptr [esp + 0x10], esi
0x0040BEF2: 57                   push edi
0x0040BEF3: 8B C6                mov eax, esi
0x0040BEF5: 2B C3                sub eax, ebx
0x0040BEF7: 33 D2                xor edx, edx
0x0040BEF9: F7 F5                div ebp
0x0040BEFB: 83 C0 01             add eax, 1
0x0040BEFE: 83 F8 08             cmp eax, 8
0x0040BF01: 77 3D                ja 0x40bf40
0x0040BF03: 8B 84 24 20 01 00 00 mov eax, dword ptr [esp + 0x120]
0x0040BF0A: 50                   push eax
0x0040BF0B: 55                   push ebp
0x0040BF0C: 56                   push esi
0x0040BF0D: 53                   push ebx
0x0040BF0E: E8 AD FE FF FF       call 0x40bdc0
0x0040BF13: 83 C4 10             add esp, 0x10
0x0040BF16: 8B 44 24 1C          mov eax, dword ptr [esp + 0x1c]
0x0040BF1A: 83 E8 01             sub eax, 1
0x0040BF1D: 89 44 24 1C          mov dword ptr [esp + 0x1c], eax
0x0040BF21: 0F 88 C5 01 00 00    js 0x40c0ec
0x0040BF27: 8B 54 84 20          mov edx, dword ptr [esp + eax*4 + 0x20]
0x0040BF2B: 8B 84 84 98 00 00 00 mov eax, dword ptr [esp + eax*4 + 0x98]
0x0040BF32: 89 54 24 10          mov dword ptr [esp + 0x10], edx
0x0040BF36: 89 44 24 14          mov dword ptr [esp + 0x14], eax
0x0040BF3A: 8B F0                mov esi, eax
0x0040BF3C: 8B DA                mov ebx, edx
0x0040BF3E: EB B3                jmp 0x40bef3
0x0040BF40: D1 E8                shr eax, 1
0x0040BF42: 0F AF C5             imul eax, ebp
0x0040BF45: 03 C3                add eax, ebx
0x0040BF47: 8B F8                mov edi, eax
0x0040BF49: 57                   push edi
0x0040BF4A: 53                   push ebx
0x0040BF4B: FF 94 24 28 01 00 00 call dword ptr [esp + 0x128]
0x0040BF52: 83 C4 08             add esp, 8
0x0040BF55: 85 C0                test eax, eax
0x0040BF57: 7E 0B                jle 0x40bf64
0x0040BF59: 8B D5                mov edx, ebp
0x0040BF5B: 8B CF                mov ecx, edi
0x0040BF5D: 8B C3                mov eax, ebx
0x0040BF5F: E8 2C FE FF FF       call 0x40bd90
0x0040BF64: 56                   push esi
0x0040BF65: 53                   push ebx
0x0040BF66: FF 94 24 28 01 00 00 call dword ptr [esp + 0x128]
0x0040BF6D: 83 C4 08             add esp, 8
0x0040BF70: 85 C0                test eax, eax
0x0040BF72: 7E 0B                jle 0x40bf7f
0x0040BF74: 8B D5                mov edx, ebp
0x0040BF76: 8B CE                mov ecx, esi
0x0040BF78: 8B C3                mov eax, ebx
0x0040BF7A: E8 11 FE FF FF       call 0x40bd90
0x0040BF7F: 56                   push esi
0x0040BF80: 57                   push edi
0x0040BF81: FF 94 24 28 01 00 00 call dword ptr [esp + 0x128]
0x0040BF88: 83 C4 08             add esp, 8
0x0040BF8B: 85 C0                test eax, eax
0x0040BF8D: 7E 11                jle 0x40bfa0
0x0040BF8F: 8B D5                mov edx, ebp
0x0040BF91: 8B CE                mov ecx, esi
0x0040BF93: 8B C7                mov eax, edi
0x0040BF95: E8 F6 FD FF FF       call 0x40bd90
0x0040BF9A: 8D 9B 00 00 00 00    lea ebx, [ebx]
0x0040BFA0: 3B FB                cmp edi, ebx
0x0040BFA2: 76 1C                jbe 0x40bfc0
0x0040BFA4: 03 DD                add ebx, ebp
0x0040BFA6: 3B DF                cmp ebx, edi
0x0040BFA8: 73 16                jae 0x40bfc0
0x0040BFAA: 57                   push edi
0x0040BFAB: 53                   push ebx
0x0040BFAC: FF 94 24 28 01 00 00 call dword ptr [esp + 0x128]
0x0040BFB3: 83 C4 08             add esp, 8
0x0040BFB6: 85 C0                test eax, eax
0x0040BFB8: 7E EA                jle 0x40bfa4
0x0040BFBA: 3B FB                cmp edi, ebx
0x0040BFBC: 77 1A                ja 0x40bfd8
0x0040BFBE: 8B FF                mov edi, edi
0x0040BFC0: 03 DD                add ebx, ebp
0x0040BFC2: 3B 5C 24 14          cmp ebx, dword ptr [esp + 0x14]
0x0040BFC6: 77 10                ja 0x40bfd8
0x0040BFC8: 57                   push edi
0x0040BFC9: 53                   push ebx
0x0040BFCA: FF 94 24 28 01 00 00 call dword ptr [esp + 0x128]
0x0040BFD1: 83 C4 08             add esp, 8
0x0040BFD4: 85 C0                test eax, eax
0x0040BFD6: 7E E8                jle 0x40bfc0
0x0040BFD8: 2B F5                sub esi, ebp
0x0040BFDA: 3B F7                cmp esi, edi
0x0040BFDC: 76 10                jbe 0x40bfee
0x0040BFDE: 57                   push edi
0x0040BFDF: 56                   push esi
0x0040BFE0: FF 94 24 28 01 00 00 call dword ptr [esp + 0x128]
0x0040BFE7: 83 C4 08             add esp, 8
0x0040BFEA: 85 C0                test eax, eax
0x0040BFEC: 7F EA                jg 0x40bfd8
0x0040BFEE: 3B DE                cmp ebx, esi
0x0040BFF0: 77 43                ja 0x40c035
0x0040BFF2: 8B CD                mov ecx, ebp
0x0040BFF4: 8B C6                mov eax, esi
0x0040BFF6: 74 2E                je 0x40c026
0x0040BFF8: 8B EB                mov ebp, ebx
0x0040BFFA: 2B EE                sub ebp, esi
0x0040BFFC: 8D 64 24 00          lea esp, [esp]
0x0040C000: 0F B6 14 28          movzx edx, byte ptr [eax + ebp]
0x0040C004: 88 54 24 1B          mov byte ptr [esp + 0x1b], dl
0x0040C008: 0F B6 10             movzx edx, byte ptr [eax]
0x0040C00B: 88 14 28             mov byte ptr [eax + ebp], dl
0x0040C00E: 0F B6 54 24 1B       movzx edx, byte ptr [esp + 0x1b]
0x0040C013: 83 E9 01             sub ecx, 1
0x0040C016: 88 10                mov byte ptr [eax], dl
0x0040C018: 83 C0 01             add eax, 1
0x0040C01B: 85 C9                test ecx, ecx
0x0040C01D: 75 E1                jne 0x40c000
0x0040C01F: 8B AC 24 1C 01 00 00 mov ebp, dword ptr [esp + 0x11c]
0x0040C026: 3B FE                cmp edi, esi
0x0040C028: 0F 85 72 FF FF FF    jne 0x40bfa0
0x0040C02E: 8B FB                mov edi, ebx
0x0040C030: E9 6B FF FF FF       jmp 0x40bfa0
0x0040C035: 03 F5                add esi, ebp
0x0040C037: 3B FE                cmp edi, esi
0x0040C039: 73 25                jae 0x40c060
0x0040C03B: EB 03                jmp 0x40c040
0x0040C03D: 8D 49 00             lea ecx, [ecx]
0x0040C040: 2B F5                sub esi, ebp
0x0040C042: 3B F7                cmp esi, edi
0x0040C044: 76 1A                jbe 0x40c060
0x0040C046: 57                   push edi
0x0040C047: 56                   push esi
0x0040C048: FF 94 24 28 01 00 00 call dword ptr [esp + 0x128]
0x0040C04F: 83 C4 08             add esp, 8
0x0040C052: 85 C0                test eax, eax
0x0040C054: 74 EA                je 0x40c040
0x0040C056: 3B FE                cmp edi, esi
0x0040C058: 72 20                jb 0x40c07a
0x0040C05A: 8D 9B 00 00 00 00    lea ebx, [ebx]
0x0040C060: 8B 44 24 10          mov eax, dword ptr [esp + 0x10]
0x0040C064: 2B F5                sub esi, ebp
0x0040C066: 3B F0                cmp esi, eax
0x0040C068: 76 14                jbe 0x40c07e
0x0040C06A: 57                   push edi
0x0040C06B: 56                   push esi
0x0040C06C: FF 94 24 28 01 00 00 call dword ptr [esp + 0x128]
0x0040C073: 83 C4 08             add esp, 8
0x0040C076: 85 C0                test eax, eax
0x0040C078: 74 E6                je 0x40c060
0x0040C07A: 8B 44 24 10          mov eax, dword ptr [esp + 0x10]
0x0040C07E: 8B 54 24 14          mov edx, dword ptr [esp + 0x14]
0x0040C082: 8B CA                mov ecx, edx
0x0040C084: 8B FE                mov edi, esi
0x0040C086: 2B CB                sub ecx, ebx
0x0040C088: 2B F8                sub edi, eax
0x0040C08A: 3B F9                cmp edi, ecx
0x0040C08C: 7C 2F                jl 0x40c0bd
0x0040C08E: 3B C6                cmp eax, esi
0x0040C090: 73 16                jae 0x40c0a8
0x0040C092: 8B 4C 24 1C          mov ecx, dword ptr [esp + 0x1c]
0x0040C096: 89 44 8C 20          mov dword ptr [esp + ecx*4 + 0x20], eax
0x0040C09A: 89 B4 8C 98 00 00 00 mov dword ptr [esp + ecx*4 + 0x98], esi
0x0040C0A1: 83 C1 01             add ecx, 1
0x0040C0A4: 89 4C 24 1C          mov dword ptr [esp + 0x1c], ecx
0x0040C0A8: 3B DA                cmp ebx, edx
0x0040C0AA: 0F 83 66 FE FF FF    jae 0x40bf16
0x0040C0B0: 8B 74 24 14          mov esi, dword ptr [esp + 0x14]
0x0040C0B4: 89 5C 24 10          mov dword ptr [esp + 0x10], ebx
0x0040C0B8: E9 36 FE FF FF       jmp 0x40bef3
0x0040C0BD: 3B DA                cmp ebx, edx
0x0040C0BF: 73 16                jae 0x40c0d7
0x0040C0C1: 8B 4C 24 1C          mov ecx, dword ptr [esp + 0x1c]
0x0040C0C5: 89 5C 8C 20          mov dword ptr [esp + ecx*4 + 0x20], ebx
0x0040C0C9: 89 94 8C 98 00 00 00 mov dword ptr [esp + ecx*4 + 0x98], edx
0x0040C0D0: 83 C1 01             add ecx, 1
0x0040C0D3: 89 4C 24 1C          mov dword ptr [esp + 0x1c], ecx
0x0040C0D7: 3B C6                cmp eax, esi
0x0040C0D9: 0F 83 37 FE FF FF    jae 0x40bf16
0x0040C0DF: 8B 5C 24 10          mov ebx, dword ptr [esp + 0x10]
0x0040C0E3: 89 74 24 14          mov dword ptr [esp + 0x14], esi
0x0040C0E7: E9 07 FE FF FF       jmp 0x40bef3
0x0040C0EC: 5F                   pop edi
0x0040C0ED: 5D                   pop ebp
0x0040C0EE: 5E                   pop esi
0x0040C0EF: 5B                   pop ebx
0x0040C0F0: 81 C4 00 01 00 00    add esp, 0x100
0x0040C0F6: C3                   ret
0x0040C0F7: 55                   push ebp
0x0040C0F8: 8B EC                mov ebp, esp
0x0040C0FA: 83 EC 20             sub esp, 0x20
0x0040C0FD: 53                   push ebx
0x0040C0FE: 33 DB                xor ebx, ebx
0x0040C100: 39 5D 0C             cmp dword ptr [ebp + 0xc], ebx
0x0040C103: 75 1D                jne 0x40c122
0x0040C105: E8 63 3F 00 00       call 0x41006d
0x0040C10A: 53                   push ebx
0x0040C10B: 53                   push ebx
0x0040C10C: 53                   push ebx
0x0040C10D: 53                   push ebx
0x0040C10E: 53                   push ebx
0x0040C10F: C7 00 16 00 00 00    mov dword ptr [eax], 0x16
0x0040C115: E8 88 06 00 00       call 0x40c7a2
0x0040C11A: 83 C4 14             add esp, 0x14
0x0040C11D: 83 C8 FF             or eax, 0xffffffff
0x0040C120: EB 4D                jmp 0x40c16f
0x0040C122: 8B 45 08             mov eax, dword ptr [ebp + 8]
0x0040C125: 3B C3                cmp eax, ebx
0x0040C127: 74 DC                je 0x40c105
0x0040C129: 56                   push esi
0x0040C12A: 89 45 E8             mov dword ptr [ebp - 0x18], eax
0x0040C12D: 89 45 E0             mov dword ptr [ebp - 0x20], eax
0x0040C130: 8D 45 10             lea eax, [ebp + 0x10]
0x0040C133: 50                   push eax
0x0040C134: 53                   push ebx
0x0040C135: FF 75 0C             push dword ptr [ebp + 0xc]
0x0040C138: 8D 45 E0             lea eax, [ebp - 0x20]
0x0040C13B: 50                   push eax
0x0040C13C: C7 45 E4 FF FF FF 7F mov dword ptr [ebp - 0x1c], 0x7fffffff
0x0040C143: C7 45 EC 42 00 00 00 mov dword ptr [ebp - 0x14], 0x42
0x0040C14A: E8 63 41 00 00       call 0x4102b2
0x0040C14F: 83 C4 10             add esp, 0x10
0x0040C152: FF 4D E4             dec dword ptr [ebp - 0x1c]
0x0040C155: 8B F0                mov esi, eax
0x0040C157: 78 07                js 0x40c160
0x0040C159: 8B 45 E0             mov eax, dword ptr [ebp - 0x20]
0x0040C15C: 88 18                mov byte ptr [eax], bl
0x0040C15E: EB 0C                jmp 0x40c16c
0x0040C160: 8D 45 E0             lea eax, [ebp - 0x20]
0x0040C163: 50                   push eax
0x0040C164: 53                   push ebx
0x0040C165: E8 47 3F 00 00       call 0x4100b1
0x0040C16A: 59                   pop ecx
0x0040C16B: 59                   pop ecx
0x0040C16C: 8B C6                mov eax, esi
0x0040C16E: 5E                   pop esi
0x0040C16F: 5B                   pop ebx
0x0040C170: C9                   leave
0x0040C171: C3                   ret
0x0040C172: 33 C0                xor eax, eax
0x0040C174: F6 C3 10             test bl, 0x10
0x0040C177: 74 01                je 0x40c17a
0x0040C179: 40                   inc eax
0x0040C17A: F6 C3 08             test bl, 8
0x0040C17D: 74 03                je 0x40c182
0x0040C17F: 83 C8 04             or eax, 4
0x0040C182: F6 C3 04             test bl, 4
0x0040C185: 74 03                je 0x40c18a
0x0040C187: 83 C8 08             or eax, 8
0x0040C18A: F6 C3 02             test bl, 2
0x0040C18D: 74 03                je 0x40c192
0x0040C18F: 83 C8 10             or eax, 0x10
0x0040C192: F6 C3 01             test bl, 1
0x0040C195: 74 03                je 0x40c19a
0x0040C197: 83 C8 20             or eax, 0x20
0x0040C19A: F7 C3 00 00 08 00    test ebx, 0x80000
0x0040C1A0: 74 03                je 0x40c1a5
0x0040C1A2: 83 C8 02             or eax, 2
0x0040C1A5: 8B CB                mov ecx, ebx
0x0040C1A7: BA 00 03 00 00       mov edx, 0x300
0x0040C1AC: 23 CA                and ecx, edx
0x0040C1AE: 56                   push esi
0x0040C1AF: BE 00 02 00 00       mov esi, 0x200
0x0040C1B4: 74 23                je 0x40c1d9
0x0040C1B6: 81 F9 00 01 00 00    cmp ecx, 0x100
0x0040C1BC: 74 16                je 0x40c1d4
0x0040C1BE: 3B CE                cmp ecx, esi
0x0040C1C0: 74 0B                je 0x40c1cd
0x0040C1C2: 3B CA                cmp ecx, edx
0x0040C1C4: 75 13                jne 0x40c1d9
0x0040C1C6: 0D 00 0C 00 00       or eax, 0xc00
0x0040C1CB: EB 0C                jmp 0x40c1d9
0x0040C1CD: 0D 00 08 00 00       or eax, 0x800
0x0040C1D2: EB 05                jmp 0x40c1d9
0x0040C1D4: 0D 00 04 00 00       or eax, 0x400
0x0040C1D9: 8B CB                mov ecx, ebx
0x0040C1DB: 81 E1 00 00 03 00    and ecx, 0x30000
0x0040C1E1: 74 0C                je 0x40c1ef
0x0040C1E3: 81 F9 00 00 01 00    cmp ecx, 0x10000
0x0040C1E9: 75 06                jne 0x40c1f1
0x0040C1EB: 0B C6                or eax, esi
0x0040C1ED: EB 02                jmp 0x40c1f1
0x0040C1EF: 0B C2                or eax, edx
0x0040C1F1: F7 C3 00 00 04 00    test ebx, 0x40000
0x0040C1F7: 5E                   pop esi
0x0040C1F8: 74 05                je 0x40c1ff
0x0040C1FA: 0D 00 10 00 00       or eax, 0x1000
0x0040C1FF: C3                   ret
0x0040C200: 33 C0                xor eax, eax
0x0040C202: F6 C2 10             test dl, 0x10
0x0040C205: 74 05                je 0x40c20c
0x0040C207: B8 80 00 00 00       mov eax, 0x80
0x0040C20C: F6 C2 08             test dl, 8
0x0040C20F: 53                   push ebx
0x0040C210: 56                   push esi
0x0040C211: 57                   push edi
0x0040C212: BB 00 02 00 00       mov ebx, 0x200
0x0040C217: 74 02                je 0x40c21b
0x0040C219: 0B C3                or eax, ebx
0x0040C21B: F6 C2 04             test dl, 4
0x0040C21E: 74 05                je 0x40c225
0x0040C220: 0D 00 04 00 00       or eax, 0x400
0x0040C225: F6 C2 02             test dl, 2
0x0040C228: 74 05                je 0x40c22f
0x0040C22A: 0D 00 08 00 00       or eax, 0x800
0x0040C22F: F6 C2 01             test dl, 1
0x0040C232: 74 05                je 0x40c239
0x0040C234: 0D 00 10 00 00       or eax, 0x1000
0x0040C239: F7 C2 00 00 08 00    test edx, 0x80000
0x0040C23F: BF 00 01 00 00       mov edi, 0x100
0x0040C244: 74 02                je 0x40c248
0x0040C246: 0B C7                or eax, edi
0x0040C248: 8B CA                mov ecx, edx
0x0040C24A: BE 00 03 00 00       mov esi, 0x300
0x0040C24F: 23 CE                and ecx, esi
0x0040C251: 74 1F                je 0x40c272
0x0040C253: 3B CF                cmp ecx, edi
0x0040C255: 74 16                je 0x40c26d
0x0040C257: 3B CB                cmp ecx, ebx
0x0040C259: 74 0B                je 0x40c266
0x0040C25B: 3B CE                cmp ecx, esi
0x0040C25D: 75 13                jne 0x40c272
0x0040C25F: 0D 00 60 00 00       or eax, 0x6000
0x0040C264: EB 0C                jmp 0x40c272
0x0040C266: 0D 00 40 00 00       or eax, 0x4000
0x0040C26B: EB 05                jmp 0x40c272
0x0040C26D: 0D 00 20 00 00       or eax, 0x2000
0x0040C272: B9 00 00 00 03       mov ecx, 0x3000000
0x0040C277: 5F                   pop edi
0x0040C278: 23 D1                and edx, ecx
0x0040C27A: 81 FA 00 00 00 01    cmp edx, 0x1000000
0x0040C280: 5E                   pop esi
0x0040C281: 5B                   pop ebx
0x0040C282: 74 16                je 0x40c29a
0x0040C284: 81 FA 00 00 00 02    cmp edx, 0x2000000
0x0040C28A: 74 0A                je 0x40c296
0x0040C28C: 3B D1                cmp edx, ecx
0x0040C28E: 75 0F                jne 0x40c29f
0x0040C290: 0D 00 80 00 00       or eax, 0x8000
0x0040C295: C3                   ret
0x0040C296: 83 C8 40             or eax, 0x40
0x0040C299: C3                   ret
0x0040C29A: 0D 40 80 00 00       or eax, 0x8040
0x0040C29F: C3                   ret
0x0040C2A0: 55                   push ebp
0x0040C2A1: 8B EC                mov ebp, esp
0x0040C2A3: 51                   push ecx
0x0040C2A4: 51                   push ecx
0x0040C2A5: DD 7D FC             fnstsw word ptr [ebp - 4]
0x0040C2A8: DB E2                fnclex
0x0040C2AA: 83 3D 44 03 DD 00 00 cmp dword ptr [0xdd0344], 0
0x0040C2B1: 0F 84 82 00 00 00    je 0x40c339
0x0040C2B7: 8A 45 FC             mov al, byte ptr [ebp - 4]
0x0040C2BA: 33 D2                xor edx, edx
0x0040C2BC: A8 3F                test al, 0x3f
0x0040C2BE: 56                   push esi
0x0040C2BF: BE 00 00 08 00       mov esi, 0x80000
0x0040C2C4: 74 29                je 0x40c2ef
0x0040C2C6: A8 01                test al, 1
0x0040C2C8: 74 03                je 0x40c2cd
0x0040C2CA: 6A 10                push 0x10
0x0040C2CC: 5A                   pop edx
0x0040C2CD: A8 04                test al, 4
0x0040C2CF: 74 03                je 0x40c2d4
0x0040C2D1: 83 CA 08             or edx, 8
0x0040C2D4: A8 08                test al, 8
0x0040C2D6: 74 03                je 0x40c2db
0x0040C2D8: 83 CA 04             or edx, 4
0x0040C2DB: A8 10                test al, 0x10
0x0040C2DD: 74 03                je 0x40c2e2
0x0040C2DF: 83 CA 02             or edx, 2
0x0040C2E2: A8 20                test al, 0x20
0x0040C2E4: 74 03                je 0x40c2e9
0x0040C2E6: 83 CA 01             or edx, 1
0x0040C2E9: A8 02                test al, 2
0x0040C2EB: 74 02                je 0x40c2ef
0x0040C2ED: 0B D6                or edx, esi
0x0040C2EF: 0F AE 5D F8          stmxcsr dword ptr [ebp - 8]
0x0040C2F3: 83 65 F8 C0          and dword ptr [ebp - 8], 0xffffffc0
0x0040C2F7: 0F AE 55 F8          ldmxcsr dword ptr [ebp - 8]
0x0040C2FB: 8A 4D F8             mov cl, byte ptr [ebp - 8]
0x0040C2FE: 33 C0                xor eax, eax
0x0040C300: F6 C1 3F             test cl, 0x3f
0x0040C303: 74 2F                je 0x40c334
0x0040C305: F6 C1 01             test cl, 1
0x0040C308: 74 03                je 0x40c30d
0x0040C30A: 6A 10                push 0x10
0x0040C30C: 58                   pop eax
0x0040C30D: F6 C1 04             test cl, 4
0x0040C310: 74 03                je 0x40c315
0x0040C312: 83 C8 08             or eax, 8
0x0040C315: F6 C1 08             test cl, 8
0x0040C318: 74 03                je 0x40c31d
0x0040C31A: 83 C8 04             or eax, 4
0x0040C31D: F6 C1 10             test cl, 0x10
0x0040C320: 74 03                je 0x40c325
0x0040C322: 83 C8 02             or eax, 2
0x0040C325: F6 C1 20             test cl, 0x20
0x0040C328: 74 03                je 0x40c32d
0x0040C32A: 83 C8 01             or eax, 1
0x0040C32D: F6 C1 02             test cl, 2
0x0040C330: 74 02                je 0x40c334
0x0040C332: 0B C6                or eax, esi
0x0040C334: 0B C2                or eax, edx
0x0040C336: 5E                   pop esi
0x0040C337: C9                   leave
0x0040C338: C3                   ret
0x0040C339: 8A 4D FC             mov cl, byte ptr [ebp - 4]
0x0040C33C: 33 C0                xor eax, eax
0x0040C33E: F6 C1 3F             test cl, 0x3f
0x0040C341: 74 32                je 0x40c375
0x0040C343: F6 C1 01             test cl, 1
0x0040C346: 74 03                je 0x40c34b
0x0040C348: 6A 10                push 0x10
0x0040C34A: 58                   pop eax
0x0040C34B: F6 C1 04             test cl, 4
0x0040C34E: 74 03                je 0x40c353
0x0040C350: 83 C8 08             or eax, 8
0x0040C353: F6 C1 08             test cl, 8
0x0040C356: 74 03                je 0x40c35b
0x0040C358: 83 C8 04             or eax, 4
0x0040C35B: F6 C1 10             test cl, 0x10
0x0040C35E: 74 03                je 0x40c363
0x0040C360: 83 C8 02             or eax, 2
0x0040C363: F6 C1 20             test cl, 0x20
0x0040C366: 74 03                je 0x40c36b
0x0040C368: 83 C8 01             or eax, 1
0x0040C36B: F6 C1 02             test cl, 2
0x0040C36E: 74 05                je 0x40c375
0x0040C370: 0D 00 00 08 00       or eax, 0x80000
0x0040C375: C9                   leave
0x0040C376: C3                   ret
0x0040C377: 83 EC 10             sub esp, 0x10
0x0040C37A: 53                   push ebx
0x0040C37B: 55                   push ebp
0x0040C37C: 56                   push esi
0x0040C37D: 57                   push edi
0x0040C37E: 9B                   wait
0x0040C37F: D9 7C 24 14          fnstcw word ptr [esp + 0x14]
0x0040C383: 8B 5C 24 14          mov ebx, dword ptr [esp + 0x14]
0x0040C387: 33 D2                xor edx, edx
0x0040C389: F6 C3 01             test bl, 1
0x0040C38C: 74 03                je 0x40c391
0x0040C38E: 6A 10                push 0x10
0x0040C390: 5A                   pop edx
0x0040C391: F6 C3 04             test bl, 4
0x0040C394: 74 03                je 0x40c399
0x0040C396: 83 CA 08             or edx, 8
0x0040C399: F6 C3 08             test bl, 8
0x0040C39C: 74 03                je 0x40c3a1
0x0040C39E: 83 CA 04             or edx, 4
0x0040C3A1: F6 C3 10             test bl, 0x10
0x0040C3A4: 74 03                je 0x40c3a9
0x0040C3A6: 83 CA 02             or edx, 2
0x0040C3A9: F6 C3 20             test bl, 0x20
0x0040C3AC: 74 03                je 0x40c3b1
0x0040C3AE: 83 CA 01             or edx, 1
0x0040C3B1: F6 C3 02             test bl, 2
0x0040C3B4: 74 06                je 0x40c3bc
0x0040C3B6: 81 CA 00 00 08 00    or edx, 0x80000
0x0040C3BC: 0F B7 CB             movzx ecx, bx
0x0040C3BF: 8B C1                mov eax, ecx
0x0040C3C1: BF 00 0C 00 00       mov edi, 0xc00
0x0040C3C6: 23 C7                and eax, edi
0x0040C3C8: BD 00 03 00 00       mov ebp, 0x300
0x0040C3CD: BE 00 02 00 00       mov esi, 0x200
0x0040C3D2: 74 20                je 0x40c3f4
0x0040C3D4: 3D 00 04 00 00       cmp eax, 0x400
0x0040C3D9: 74 13                je 0x40c3ee
0x0040C3DB: 3D 00 08 00 00       cmp eax, 0x800
0x0040C3E0: 74 08                je 0x40c3ea
0x0040C3E2: 3B C7                cmp eax, edi
0x0040C3E4: 75 0E                jne 0x40c3f4
0x0040C3E6: 0B D5                or edx, ebp
0x0040C3E8: EB 0A                jmp 0x40c3f4
0x0040C3EA: 0B D6                or edx, esi
0x0040C3EC: EB 06                jmp 0x40c3f4
0x0040C3EE: 81 CA 00 01 00 00    or edx, 0x100
0x0040C3F4: 23 CD                and ecx, ebp
0x0040C3F6: 74 0C                je 0x40c404
0x0040C3F8: 3B CE                cmp ecx, esi
0x0040C3FA: 75 0E                jne 0x40c40a
0x0040C3FC: 81 CA 00 00 01 00    or edx, 0x10000
0x0040C402: EB 06                jmp 0x40c40a
0x0040C404: 81 CA 00 00 02 00    or edx, 0x20000
0x0040C40A: 66 F7 C3 00 10       test bx, 0x1000
0x0040C40F: 74 06                je 0x40c417
0x0040C411: 81 CA 00 00 04 00    or edx, 0x40000
0x0040C417: 8B 74 24 28          mov esi, dword ptr [esp + 0x28]
0x0040C41B: 8B 4C 24 24          mov ecx, dword ptr [esp + 0x24]
0x0040C41F: 8B C6                mov eax, esi
0x0040C421: F7 D0                not eax
0x0040C423: 23 C2                and eax, edx
0x0040C425: 23 CE                and ecx, esi
0x0040C427: 0B C1                or eax, ecx
0x0040C429: 3B C2                cmp eax, edx
0x0040C42B: 89 44 24 1C          mov dword ptr [esp + 0x1c], eax
0x0040C42F: 0F 84 AA 00 00 00    je 0x40c4df
0x0040C435: 8B D8                mov ebx, eax
0x0040C437: E8 36 FD FF FF       call 0x40c172
0x0040C43C: 0F B7 C0             movzx eax, ax
0x0040C43F: 89 44 24 10          mov dword ptr [esp + 0x10], eax
0x0040C443: D9 6C 24 10          fldcw word ptr [esp + 0x10]
0x0040C447: 9B                   wait
0x0040C448: D9 7C 24 10          fnstcw word ptr [esp + 0x10]
0x0040C44C: 8B 5C 24 10          mov ebx, dword ptr [esp + 0x10]
0x0040C450: 33 D2                xor edx, edx
0x0040C452: F6 C3 01             test bl, 1
0x0040C455: 74 03                je 0x40c45a
0x0040C457: 6A 10                push 0x10
0x0040C459: 5A                   pop edx
0x0040C45A: F6 C3 04             test bl, 4
0x0040C45D: 74 03                je 0x40c462
0x0040C45F: 83 CA 08             or edx, 8
0x0040C462: F6 C3 08             test bl, 8
0x0040C465: 74 03                je 0x40c46a
0x0040C467: 83 CA 04             or edx, 4
0x0040C46A: F6 C3 10             test bl, 0x10
0x0040C46D: 74 03                je 0x40c472
0x0040C46F: 83 CA 02             or edx, 2
0x0040C472: F6 C3 20             test bl, 0x20
0x0040C475: 74 03                je 0x40c47a
0x0040C477: 83 CA 01             or edx, 1
0x0040C47A: F6 C3 02             test bl, 2
0x0040C47D: 74 06                je 0x40c485
0x0040C47F: 81 CA 00 00 08 00    or edx, 0x80000
0x0040C485: 0F B7 CB             movzx ecx, bx
0x0040C488: 8B C1                mov eax, ecx
0x0040C48A: 23 C7                and eax, edi
0x0040C48C: 74 24                je 0x40c4b2
0x0040C48E: 3D 00 04 00 00       cmp eax, 0x400
0x0040C493: 74 17                je 0x40c4ac
0x0040C495: 3D 00 08 00 00       cmp eax, 0x800
0x0040C49A: 74 08                je 0x40c4a4
0x0040C49C: 3B C7                cmp eax, edi
0x0040C49E: 75 12                jne 0x40c4b2
0x0040C4A0: 0B D5                or edx, ebp
0x0040C4A2: EB 0E                jmp 0x40c4b2
0x0040C4A4: 81 CA 00 02 00 00    or edx, 0x200
0x0040C4AA: EB 06                jmp 0x40c4b2
0x0040C4AC: 81 CA 00 01 00 00    or edx, 0x100
0x0040C4B2: 23 CD                and ecx, ebp
0x0040C4B4: 74 10                je 0x40c4c6
0x0040C4B6: 81 F9 00 02 00 00    cmp ecx, 0x200
0x0040C4BC: 75 0E                jne 0x40c4cc
0x0040C4BE: 81 CA 00 00 01 00    or edx, 0x10000
0x0040C4C4: EB 06                jmp 0x40c4cc
0x0040C4C6: 81 CA 00 00 02 00    or edx, 0x20000
0x0040C4CC: 66 F7 C3 00 10       test bx, 0x1000
0x0040C4D1: 74 06                je 0x40c4d9
0x0040C4D3: 81 CA 00 00 04 00    or edx, 0x40000
0x0040C4D9: 8B C2                mov eax, edx
0x0040C4DB: 89 54 24 1C          mov dword ptr [esp + 0x1c], edx
0x0040C4DF: 83 3D 44 03 DD 00 00 cmp dword ptr [0xdd0344], 0
0x0040C4E6: 0F 84 86 01 00 00    je 0x40c672
0x0040C4EC: 81 E6 1F 03 08 03    and esi, 0x308031f
0x0040C4F2: 8B FE                mov edi, esi
0x0040C4F4: 0F AE 5C 24 18       stmxcsr dword ptr [esp + 0x18]
0x0040C4F9: 8B 44 24 18          mov eax, dword ptr [esp + 0x18]
0x0040C4FD: 33 F6                xor esi, esi
0x0040C4FF: 84 C0                test al, al
0x0040C501: 79 03                jns 0x40c506
0x0040C503: 6A 10                push 0x10
0x0040C505: 5E                   pop esi
0x0040C506: 66 A9 00 02          test ax, 0x200
0x0040C50A: 74 03                je 0x40c50f
0x0040C50C: 83 CE 08             or esi, 8
0x0040C50F: 66 A9 00 04          test ax, 0x400
0x0040C513: 74 03                je 0x40c518
0x0040C515: 83 CE 04             or esi, 4
0x0040C518: 66 A9 00 08          test ax, 0x800
0x0040C51C: 74 03                je 0x40c521
0x0040C51E: 83 CE 02             or esi, 2
0x0040C521: 66 A9 00 10          test ax, 0x1000
0x0040C525: 74 03                je 0x40c52a
0x0040C527: 83 CE 01             or esi, 1
0x0040C52A: 66 A9 00 01          test ax, 0x100
0x0040C52E: 74 06                je 0x40c536
0x0040C530: 81 CE 00 00 08 00    or esi, 0x80000
0x0040C536: 8B C8                mov ecx, eax
0x0040C538: BD 00 60 00 00       mov ebp, 0x6000
0x0040C53D: 23 CD                and ecx, ebp
0x0040C53F: 74 2A                je 0x40c56b
0x0040C541: 81 F9 00 20 00 00    cmp ecx, 0x2000
0x0040C547: 74 1C                je 0x40c565
0x0040C549: 81 F9 00 40 00 00    cmp ecx, 0x4000
0x0040C54F: 74 0C                je 0x40c55d
0x0040C551: 3B CD                cmp ecx, ebp
0x0040C553: 75 16                jne 0x40c56b
0x0040C555: 81 CE 00 03 00 00    or esi, 0x300
0x0040C55B: EB 0E                jmp 0x40c56b
0x0040C55D: 81 CE 00 02 00 00    or esi, 0x200
0x0040C563: EB 06                jmp 0x40c56b
0x0040C565: 81 CE 00 01 00 00    or esi, 0x100
0x0040C56B: BB 40 80 00 00       mov ebx, 0x8040
0x0040C570: 23 C3                and eax, ebx
0x0040C572: 83 E8 40             sub eax, 0x40
0x0040C575: 74 1C                je 0x40c593
0x0040C577: 2D C0 7F 00 00       sub eax, 0x7fc0
0x0040C57C: 74 0D                je 0x40c58b
0x0040C57E: 83 E8 40             sub eax, 0x40
0x0040C581: 75 16                jne 0x40c599
0x0040C583: 81 CE 00 00 00 01    or esi, 0x1000000
0x0040C589: EB 0E                jmp 0x40c599
0x0040C58B: 81 CE 00 00 00 03    or esi, 0x3000000
0x0040C591: EB 06                jmp 0x40c599
0x0040C593: 81 CE 00 00 00 02    or esi, 0x2000000
0x0040C599: 8B D7                mov edx, edi
0x0040C59B: 23 7C 24 24          and edi, dword ptr [esp + 0x24]
0x0040C59F: F7 D2                not edx
0x0040C5A1: 23 D6                and edx, esi
0x0040C5A3: 0B D7                or edx, edi
0x0040C5A5: 3B D6                cmp edx, esi
0x0040C5A7: 75 07                jne 0x40c5b0
0x0040C5A9: 8B C6                mov eax, esi
0x0040C5AB: E9 AB 00 00 00       jmp 0x40c65b
0x0040C5B0: E8 4B FC FF FF       call 0x40c200
0x0040C5B5: 50                   push eax
0x0040C5B6: 89 44 24 2C          mov dword ptr [esp + 0x2c], eax
0x0040C5BA: E8 83 49 00 00       call 0x410f42
0x0040C5BF: 59                   pop ecx
0x0040C5C0: 0F AE 5C 24 28       stmxcsr dword ptr [esp + 0x28]
0x0040C5C5: 8B 44 24 28          mov eax, dword ptr [esp + 0x28]
0x0040C5C9: 33 D2                xor edx, edx
0x0040C5CB: 84 C0                test al, al
0x0040C5CD: 79 03                jns 0x40c5d2
0x0040C5CF: 6A 10                push 0x10
0x0040C5D1: 5A                   pop edx
0x0040C5D2: BF 00 02 00 00       mov edi, 0x200
0x0040C5D7: 85 C7                test edi, eax
0x0040C5D9: 74 03                je 0x40c5de
0x0040C5DB: 83 CA 08             or edx, 8
0x0040C5DE: 66 A9 00 04          test ax, 0x400
0x0040C5E2: 74 03                je 0x40c5e7
0x0040C5E4: 83 CA 04             or edx, 4
0x0040C5E7: 66 A9 00 08          test ax, 0x800
0x0040C5EB: 74 03                je 0x40c5f0
0x0040C5ED: 83 CA 02             or edx, 2
0x0040C5F0: 66 A9 00 10          test ax, 0x1000
0x0040C5F4: 74 03                je 0x40c5f9
0x0040C5F6: 83 CA 01             or edx, 1
0x0040C5F9: BE 00 01 00 00       mov esi, 0x100
0x0040C5FE: 85 C6                test esi, eax
0x0040C600: 74 06                je 0x40c608
0x0040C602: 81 CA 00 00 08 00    or edx, 0x80000
0x0040C608: 8B C8                mov ecx, eax
0x0040C60A: 23 CD                and ecx, ebp
0x0040C60C: 74 22                je 0x40c630
0x0040C60E: 81 F9 00 20 00 00    cmp ecx, 0x2000
0x0040C614: 74 18                je 0x40c62e
0x0040C616: 81 F9 00 40 00 00    cmp ecx, 0x4000
0x0040C61C: 74 0C                je 0x40c62a
0x0040C61E: 3B CD                cmp ecx, ebp
0x0040C620: 75 0E                jne 0x40c630
0x0040C622: 81 CA 00 03 00 00    or edx, 0x300
0x0040C628: EB 06                jmp 0x40c630
0x0040C62A: 0B D7                or edx, edi
0x0040C62C: EB 02                jmp 0x40c630
0x0040C62E: 0B D6                or edx, esi
0x0040C630: 23 C3                and eax, ebx
0x0040C632: 83 E8 40             sub eax, 0x40
0x0040C635: 74 1C                je 0x40c653
0x0040C637: 2D C0 7F 00 00       sub eax, 0x7fc0
0x0040C63C: 74 0D                je 0x40c64b
0x0040C63E: 83 E8 40             sub eax, 0x40
0x0040C641: 75 16                jne 0x40c659
0x0040C643: 81 CA 00 00 00 01    or edx, 0x1000000
0x0040C649: EB 0E                jmp 0x40c659
0x0040C64B: 81 CA 00 00 00 03    or edx, 0x3000000
0x0040C651: EB 06                jmp 0x40c659
0x0040C653: 81 CA 00 00 00 02    or edx, 0x2000000
0x0040C659: 8B C2                mov eax, edx
0x0040C65B: 8B 4C 24 1C          mov ecx, dword ptr [esp + 0x1c]
0x0040C65F: 8B D0                mov edx, eax
0x0040C661: 33 D1                xor edx, ecx
0x0040C663: 0B C1                or eax, ecx
0x0040C665: F7 C2 1F 03 08 00    test edx, 0x8031f
0x0040C66B: 74 05                je 0x40c672
0x0040C66D: 0D 00 00 00 80       or eax, 0x80000000
0x0040C672: 5F                   pop edi
0x0040C673: 5E                   pop esi
0x0040C674: 5D                   pop ebp
0x0040C675: 5B                   pop ebx
0x0040C676: 83 C4 10             add esp, 0x10
0x0040C679: C3                   ret
0x0040C67A: 8B 44 24 04          mov eax, dword ptr [esp + 4]
0x0040C67E: A3 00 12 B3 00       mov dword ptr [0xb31200], eax
0x0040C683: C3                   ret
0x0040C684: 55                   push ebp
0x0040C685: 8D AC 24 58 FD FF FF lea ebp, [esp - 0x2a8]
0x0040C68C: 81 EC 28 03 00 00    sub esp, 0x328
0x0040C692: A1 94 69 AB 00       mov eax, dword ptr [0xab6994]
0x0040C697: 33 C5                xor eax, ebp
0x0040C699: 89 85 A4 02 00 00    mov dword ptr [ebp + 0x2a4], eax
0x0040C69F: 56                   push esi
0x0040C6A0: 89 85 88 00 00 00    mov dword ptr [ebp + 0x88], eax
0x0040C6A6: 89 8D 84 00 00 00    mov dword ptr [ebp + 0x84], ecx
0x0040C6AC: 89 95 80 00 00 00    mov dword ptr [ebp + 0x80], edx
0x0040C6B2: 89 5D 7C             mov dword ptr [ebp + 0x7c], ebx
0x0040C6B5: 89 75 78             mov dword ptr [ebp + 0x78], esi
0x0040C6B8: 89 7D 74             mov dword ptr [ebp + 0x74], edi
0x0040C6BB: 66 8C 95 A0 00 00 00 mov word ptr [ebp + 0xa0], ss
0x0040C6C2: 66 8C 8D 94 00 00 00 mov word ptr [ebp + 0x94], cs
0x0040C6C9: 66 8C 5D 70          mov word ptr [ebp + 0x70], ds
0x0040C6CD: 66 8C 45 6C          mov word ptr [ebp + 0x6c], es
0x0040C6D1: 66 8C 65 68          mov word ptr [ebp + 0x68], fs
0x0040C6D5: 66 8C 6D 64          mov word ptr [ebp + 0x64], gs
0x0040C6D9: 9C                   pushfd
0x0040C6DA: 8F 85 98 00 00 00    pop dword ptr [ebp + 0x98]
0x0040C6E0: 8B B5 AC 02 00 00    mov esi, dword ptr [ebp + 0x2ac]
0x0040C6E6: 8D 85 AC 02 00 00    lea eax, [ebp + 0x2ac]
0x0040C6EC: 89 85 9C 00 00 00    mov dword ptr [ebp + 0x9c], eax
0x0040C6F2: C7 45 D8 01 00 01 00 mov dword ptr [ebp - 0x28], 0x10001
0x0040C6F9: 89 B5 90 00 00 00    mov dword ptr [ebp + 0x90], esi
0x0040C6FF: 8B 40 FC             mov eax, dword ptr [eax - 4]
0x0040C702: 6A 50                push 0x50
0x0040C704: 89 85 8C 00 00 00    mov dword ptr [ebp + 0x8c], eax
0x0040C70A: 8D 45 80             lea eax, [ebp - 0x80]
0x0040C70D: 6A 00                push 0
0x0040C70F: 50                   push eax
0x0040C710: E8 6B F4 FF FF       call 0x40bb80
0x0040C715: 8D 45 80             lea eax, [ebp - 0x80]
0x0040C718: 89 45 D0             mov dword ptr [ebp - 0x30], eax
0x0040C71B: 8D 45 D8             lea eax, [ebp - 0x28]
0x0040C71E: 83 C4 0C             add esp, 0xc
0x0040C721: C7 45 80 0D 00 00 C0 mov dword ptr [ebp - 0x80], 0xc000000d
0x0040C728: 89 75 8C             mov dword ptr [ebp - 0x74], esi
0x0040C72B: 89 45 D4             mov dword ptr [ebp - 0x2c], eax
0x0040C72E: FF 15 B4 F1 9D 00    call dword ptr [0x9df1b4]
0x0040C734: 6A 00                push 0
0x0040C736: 8B F0                mov esi, eax
0x0040C738: FF 15 B8 F1 9D 00    call dword ptr [0x9df1b8]
0x0040C73E: 8D 45 D0             lea eax, [ebp - 0x30]
0x0040C741: 50                   push eax
0x0040C742: FF 15 BC F1 9D 00    call dword ptr [0x9df1bc]
0x0040C748: 85 C0                test eax, eax
0x0040C74A: 75 0C                jne 0x40c758
0x0040C74C: 85 F6                test esi, esi
0x0040C74E: 75 08                jne 0x40c758
0x0040C750: 6A 02                push 2
0x0040C752: E8 67 4A 00 00       call 0x4111be
0x0040C757: 59                   pop ecx
0x0040C758: 68 0D 00 00 C0       push 0xc000000d
0x0040C75D: FF 15 C0 F1 9D 00    call dword ptr [0x9df1c0]
0x0040C763: 50                   push eax
0x0040C764: FF 15 C4 F1 9D 00    call dword ptr [0x9df1c4]
0x0040C76A: 8B 8D A4 02 00 00    mov ecx, dword ptr [ebp + 0x2a4]
0x0040C770: 33 CD                xor ecx, ebp
0x0040C772: 5E                   pop esi
0x0040C773: E8 4E 4A 00 00       call 0x4111c6
0x0040C778: 81 C5 A8 02 00 00    add ebp, 0x2a8
0x0040C77E: C9                   leave
0x0040C77F: C3                   ret
0x0040C780: 56                   push esi
0x0040C781: FF 35 00 12 B3 00    push dword ptr [0xb31200]
0x0040C787: E8 B1 15 00 00       call 0x40dd3d
0x0040C78C: FF 74 24 0C          push dword ptr [esp + 0xc]
0x0040C790: 8B F0                mov esi, eax
0x0040C792: E8 2F 15 00 00       call 0x40dcc6
0x0040C797: 59                   pop ecx
0x0040C798: 59                   pop ecx
0x0040C799: A3 00 12 B3 00       mov dword ptr [0xb31200], eax
0x0040C79E: 8B C6                mov eax, esi
0x0040C7A0: 5E                   pop esi
0x0040C7A1: C3                   ret
0x0040C7A2: 55                   push ebp
0x0040C7A3: 8B EC                mov ebp, esp
0x0040C7A5: FF 35 00 12 B3 00    push dword ptr [0xb31200]
0x0040C7AB: E8 8D 15 00 00       call 0x40dd3d
0x0040C7B0: 85 C0                test eax, eax
0x0040C7B2: 59                   pop ecx
0x0040C7B3: 74 03                je 0x40c7b8
0x0040C7B5: 5D                   pop ebp
0x0040C7B6: FF E0                jmp eax
0x0040C7B8: 6A 02                push 2
0x0040C7BA: E8 FF 49 00 00       call 0x4111be
0x0040C7BF: 59                   pop ecx
0x0040C7C0: 5D                   pop ebp
0x0040C7C1: E9 BE FE FF FF       jmp 0x40c684
0x0040C7C6: 33 C0                xor eax, eax
0x0040C7C8: 50                   push eax
0x0040C7C9: 50                   push eax
0x0040C7CA: 50                   push eax
0x0040C7CB: 50                   push eax
0x0040C7CC: 50                   push eax
0x0040C7CD: E8 D0 FF FF FF       call 0x40c7a2
0x0040C7D2: 83 C4 14             add esp, 0x14
0x0040C7D5: C3                   ret
0x0040C7D6: 51                   push ecx
0x0040C7D7: 53                   push ebx
0x0040C7D8: 55                   push ebp
0x0040C7D9: 56                   push esi
0x0040C7DA: 57                   push edi
0x0040C7DB: FF 35 68 04 DD 00    push dword ptr [0xdd0468]
0x0040C7E1: E8 57 15 00 00       call 0x40dd3d
0x0040C7E6: FF 35 64 04 DD 00    push dword ptr [0xdd0464]
0x0040C7EC: 8B F0                mov esi, eax
0x0040C7EE: 89 74 24 18          mov dword ptr [esp + 0x18], esi
0x0040C7F2: E8 46 15 00 00       call 0x40dd3d
0x0040C7F7: 8B F8                mov edi, eax
0x0040C7F9: 3B FE                cmp edi, esi
0x0040C7FB: 59                   pop ecx
0x0040C7FC: 59                   pop ecx
0x0040C7FD: 0F 82 84 00 00 00    jb 0x40c887
0x0040C803: 8B DF                mov ebx, edi
0x0040C805: 2B DE                sub ebx, esi
0x0040C807: 8D 6B 04             lea ebp, [ebx + 4]
0x0040C80A: 83 FD 04             cmp ebp, 4
0x0040C80D: 72 78                jb 0x40c887
0x0040C80F: 56                   push esi
0x0040C810: E8 E3 4A 00 00       call 0x4112f8
0x0040C815: 8B F0                mov esi, eax
0x0040C817: 3B F5                cmp esi, ebp
0x0040C819: 59                   pop ecx
0x0040C81A: 73 4A                jae 0x40c866
0x0040C81C: B8 00 08 00 00       mov eax, 0x800
0x0040C821: 3B F0                cmp esi, eax
0x0040C823: 73 02                jae 0x40c827
0x0040C825: 8B C6                mov eax, esi
0x0040C827: 03 C6                add eax, esi
0x0040C829: 3B C6                cmp eax, esi
0x0040C82B: 72 10                jb 0x40c83d
0x0040C82D: 50                   push eax
0x0040C82E: FF 74 24 14          push dword ptr [esp + 0x14]
0x0040C832: E8 26 4A 00 00       call 0x41125d
0x0040C837: 85 C0                test eax, eax
0x0040C839: 59                   pop ecx
0x0040C83A: 59                   pop ecx
0x0040C83B: 75 17                jne 0x40c854
0x0040C83D: 8D 46 10             lea eax, [esi + 0x10]
0x0040C840: 3B C6                cmp eax, esi
0x0040C842: 72 43                jb 0x40c887
0x0040C844: 50                   push eax
0x0040C845: FF 74 24 14          push dword ptr [esp + 0x14]
0x0040C849: E8 0F 4A 00 00       call 0x41125d
0x0040C84E: 85 C0                test eax, eax
0x0040C850: 59                   pop ecx
0x0040C851: 59                   pop ecx
0x0040C852: 74 33                je 0x40c887
0x0040C854: C1 FB 02             sar ebx, 2
0x0040C857: 50                   push eax
0x0040C858: 8D 3C 98             lea edi, [eax + ebx*4]
0x0040C85B: E8 66 14 00 00       call 0x40dcc6
0x0040C860: 59                   pop ecx
0x0040C861: A3 68 04 DD 00       mov dword ptr [0xdd0468], eax
0x0040C866: FF 74 24 18          push dword ptr [esp + 0x18]
0x0040C86A: E8 57 14 00 00       call 0x40dcc6
0x0040C86F: 89 07                mov dword ptr [edi], eax
0x0040C871: 83 C7 04             add edi, 4
0x0040C874: 57                   push edi
0x0040C875: E8 4C 14 00 00       call 0x40dcc6
0x0040C87A: 59                   pop ecx
0x0040C87B: A3 64 04 DD 00       mov dword ptr [0xdd0464], eax
0x0040C880: 8B 44 24 1C          mov eax, dword ptr [esp + 0x1c]
0x0040C884: 59                   pop ecx
0x0040C885: EB 02                jmp 0x40c889
0x0040C887: 33 C0                xor eax, eax
0x0040C889: 5F                   pop edi
0x0040C88A: 5E                   pop esi
0x0040C88B: 5D                   pop ebp
0x0040C88C: 5B                   pop ebx
0x0040C88D: 59                   pop ecx
0x0040C88E: C3                   ret
0x0040C88F: 56                   push esi
0x0040C890: 6A 04                push 4
0x0040C892: 6A 20                push 0x20
0x0040C894: E8 7C 49 00 00       call 0x411215
0x0040C899: 8B F0                mov esi, eax
0x0040C89B: 56                   push esi
0x0040C89C: E8 25 14 00 00       call 0x40dcc6
0x0040C8A1: 83 C4 0C             add esp, 0xc
0x0040C8A4: 85 F6                test esi, esi
0x0040C8A6: A3 68 04 DD 00       mov dword ptr [0xdd0468], eax
0x0040C8AB: A3 64 04 DD 00       mov dword ptr [0xdd0464], eax
0x0040C8B0: 75 05                jne 0x40c8b7
0x0040C8B2: 6A 18                push 0x18
0x0040C8B4: 58                   pop eax
0x0040C8B5: 5E                   pop esi
0x0040C8B6: C3                   ret
0x0040C8B7: 83 26 00             and dword ptr [esi], 0
0x0040C8BA: 33 C0                xor eax, eax
0x0040C8BC: 5E                   pop esi
0x0040C8BD: C3                   ret
0x0040C8BE: 6A 0C                push 0xc
0x0040C8C0: 68 50 F2 AA 00       push 0xaaf250
0x0040C8C5: E8 9E 1A 00 00       call 0x40e368
0x0040C8CA: E8 50 06 00 00       call 0x40cf1f
0x0040C8CF: 83 65 FC 00          and dword ptr [ebp - 4], 0
0x0040C8D3: FF 75 08             push dword ptr [ebp + 8]
0x0040C8D6: E8 FB FE FF FF       call 0x40c7d6
0x0040C8DB: 59                   pop ecx
0x0040C8DC: 89 45 E4             mov dword ptr [ebp - 0x1c], eax
0x0040C8DF: C7 45 FC FE FF FF FF mov dword ptr [ebp - 4], 0xfffffffe
0x0040C8E6: E8 09 00 00 00       call 0x40c8f4
0x0040C8EB: 8B 45 E4             mov eax, dword ptr [ebp - 0x1c]
0x0040C8EE: E8 BA 1A 00 00       call 0x40e3ad
0x0040C8F3: C3                   ret
0x0040C8F4: E8 2F 06 00 00       call 0x40cf28
0x0040C8F9: C3                   ret
0x0040C8FA: FF 74 24 04          push dword ptr [esp + 4]
0x0040C8FE: E8 BB FF FF FF       call 0x40c8be
0x0040C903: F7 D8                neg eax
0x0040C905: 1B C0                sbb eax, eax
0x0040C907: F7 D8                neg eax
0x0040C909: 59                   pop ecx
0x0040C90A: 48                   dec eax
0x0040C90B: C3                   ret
0x0040C90C: 55                   push ebp
0x0040C90D: 8B EC                mov ebp, esp
0x0040C90F: 51                   push ecx
0x0040C910: 51                   push ecx
0x0040C911: D9 EE                fldz
0x0040C913: 8B 45 08             mov eax, dword ptr [ebp + 8]
0x0040C916: DD 5D F8             fstp qword ptr [ebp - 8]
0x0040C919: 89 45 F8             mov dword ptr [ebp - 8], eax
0x0040C91C: 8B 45 14             mov eax, dword ptr [ebp + 0x14]
0x0040C91F: 33 45 0C             xor eax, dword ptr [ebp + 0xc]
0x0040C922: 25 FF FF FF 7F       and eax, 0x7fffffff
0x0040C927: 33 45 14             xor eax, dword ptr [ebp + 0x14]
0x0040C92A: 89 45 FC             mov dword ptr [ebp - 4], eax
0x0040C92D: DD 45 F8             fld qword ptr [ebp - 8]
0x0040C930: C9                   leave
0x0040C931: C3                   ret
0x0040C932: 66 8B 44 24 0A       mov ax, word ptr [esp + 0xa]
0x0040C937: 66 25 F0 7F          and ax, 0x7ff0
0x0040C93B: 33 C9                xor ecx, ecx
0x0040C93D: 66 3D F0 7F          cmp ax, 0x7ff0
0x0040C941: 0F 95 C1             setne cl
0x0040C944: 8B C1                mov eax, ecx
0x0040C946: C3                   ret
0x0040C947: 8B 44 24 0A          mov eax, dword ptr [esp + 0xa]
0x0040C94B: B9 F8 7F 00 00       mov ecx, 0x7ff8
0x0040C950: 23 C1                and eax, ecx
0x0040C952: 66 3D F0 7F          cmp ax, 0x7ff0
0x0040C956: 75 11                jne 0x40c969
0x0040C958: F7 44 24 08 FF FF 07 00 test dword ptr [esp + 8], 0x7ffff
0x0040C960: 75 0C                jne 0x40c96e
0x0040C962: 83 7C 24 04 00       cmp dword ptr [esp + 4], 0
0x0040C967: 75 05                jne 0x40c96e
0x0040C969: 66 3B C1             cmp ax, cx
0x0040C96C: 75 04                jne 0x40c972
0x0040C96E: 33 C0                xor eax, eax
0x0040C970: 40                   inc eax
0x0040C971: C3                   ret
0x0040C972: 33 C0                xor eax, eax
0x0040C974: C3                   ret
0x0040C975: 55                   push ebp
0x0040C976: 8B EC                mov ebp, esp
0x0040C978: 8B 45 0E             mov eax, dword ptr [ebp + 0xe]
0x0040C97B: B9 F0 7F 00 00       mov ecx, 0x7ff0
0x0040C980: 8B D0                mov edx, eax
0x0040C982: 23 D1                and edx, ecx
0x0040C984: 66 3B D1             cmp dx, cx
0x0040C987: 75 2D                jne 0x40c9b6
0x0040C989: DD 45 08             fld qword ptr [ebp + 8]
0x0040C98C: 51                   push ecx
0x0040C98D: 51                   push ecx
0x0040C98E: DD 1C 24             fstp qword ptr [esp]
0x0040C991: E8 DD 4B 00 00       call 0x411573
0x0040C996: 48                   dec eax
0x0040C997: 59                   pop ecx
0x0040C998: 59                   pop ecx
0x0040C999: 74 14                je 0x40c9af
0x0040C99B: 48                   dec eax
0x0040C99C: 74 0C                je 0x40c9aa
0x0040C99E: 48                   dec eax
0x0040C99F: 74 05                je 0x40c9a6
0x0040C9A1: 33 C0                xor eax, eax
0x0040C9A3: 40                   inc eax
0x0040C9A4: 5D                   pop ebp
0x0040C9A5: C3                   ret
0x0040C9A6: 6A 02                push 2
0x0040C9A8: EB 02                jmp 0x40c9ac
0x0040C9AA: 6A 04                push 4
0x0040C9AC: 58                   pop eax
0x0040C9AD: 5D                   pop ebp
0x0040C9AE: C3                   ret
0x0040C9AF: B8 00 02 00 00       mov eax, 0x200
0x0040C9B4: 5D                   pop ebp
0x0040C9B5: C3                   ret
0x0040C9B6: 25 00 80 00 00       and eax, 0x8000
0x0040C9BB: 66 85 D2             test dx, dx
0x0040C9BE: 8B C8                mov ecx, eax
0x0040C9C0: 75 1D                jne 0x40c9df
0x0040C9C2: F7 45 0C FF FF 0F 00 test dword ptr [ebp + 0xc], 0xfffff
0x0040C9C9: 75 06                jne 0x40c9d1
0x0040C9CB: 83 7D 08 00          cmp dword ptr [ebp + 8], 0
0x0040C9CF: 74 0E                je 0x40c9df
0x0040C9D1: F7 D8                neg eax
0x0040C9D3: 1B C0                sbb eax, eax
0x0040C9D5: 83 E0 90             and eax, 0xffffff90
0x0040C9D8: 05 80 00 00 00       add eax, 0x80
0x0040C9DD: 5D                   pop ebp
0x0040C9DE: C3                   ret
0x0040C9DF: D9 EE                fldz
0x0040C9E1: DC 5D 08             fcomp qword ptr [ebp + 8]
0x0040C9E4: DF E0                fnstsw ax
0x0040C9E6: F6 C4 44             test ah, 0x44
0x0040C9E9: 8B C1                mov eax, ecx
0x0040C9EB: 7A 0C                jp 0x40c9f9
0x0040C9ED: F7 D8                neg eax
0x0040C9EF: 1B C0                sbb eax, eax
0x0040C9F1: 83 E0 E0             and eax, 0xffffffe0
0x0040C9F4: 83 C0 40             add eax, 0x40
0x0040C9F7: 5D                   pop ebp
0x0040C9F8: C3                   ret
0x0040C9F9: F7 D8                neg eax
0x0040C9FB: 1B C0                sbb eax, eax
0x0040C9FD: 25 08 FF FF FF       and eax, 0xffffff08
0x0040CA02: 05 00 01 00 00       add eax, 0x100
0x0040CA07: 5D                   pop ebp
0x0040CA08: C3                   ret
0x0040CA09: CC                   int3
0x0040CA0A: CC                   int3
0x0040CA0B: CC                   int3
0x0040CA0C: CC                   int3
0x0040CA0D: CC                   int3
0x0040CA0E: CC                   int3
0x0040CA0F: CC                   int3
0x0040CA10: 51                   push ecx
0x0040CA11: 8D 4C 24 08          lea ecx, [esp + 8]
0x0040CA15: 2B C8                sub ecx, eax
0x0040CA17: 83 E1 0F             and ecx, 0xf
0x0040CA1A: 03 C1                add eax, ecx
0x0040CA1C: 1B C9                sbb ecx, ecx
0x0040CA1E: 0B C1                or eax, ecx
0x0040CA20: 59                   pop ecx
0x0040CA21: E9 2A F1 FF FF       jmp 0x40bb50
0x0040CA26: 51                   push ecx
0x0040CA27: 8D 4C 24 08          lea ecx, [esp + 8]
0x0040CA2B: 2B C8                sub ecx, eax
0x0040CA2D: 83 E1 07             and ecx, 7
0x0040CA30: 03 C1                add eax, ecx
0x0040CA32: 1B C9                sbb ecx, ecx
0x0040CA34: 0B C1                or eax, ecx
0x0040CA36: 59                   pop ecx
0x0040CA37: E9 14 F1 FF FF       jmp 0x40bb50
0x0040CA3C: CC                   int3
0x0040CA3D: CC                   int3
0x0040CA3E: CC                   int3
0x0040CA3F: CC                   int3
0x0040CA40: 8D 42 FF             lea eax, [edx - 1]
0x0040CA43: 5B                   pop ebx
0x0040CA44: C3                   ret
0x0040CA45: 8D A4 24 00 00 00 00 lea esp, [esp]
0x0040CA4C: 8D 64 24 00          lea esp, [esp]
0x0040CA50: 33 C0                xor eax, eax
0x0040CA52: 8A 44 24 08          mov al, byte ptr [esp + 8]
0x0040CA56: 53                   push ebx
0x0040CA57: 8B D8                mov ebx, eax
0x0040CA59: C1 E0 08             shl eax, 8
0x0040CA5C: 8B 54 24 08          mov edx, dword ptr [esp + 8]
0x0040CA60: F7 C2 03 00 00 00    test edx, 3
0x0040CA66: 74 15                je 0x40ca7d
0x0040CA68: 8A 0A                mov cl, byte ptr [edx]
0x0040CA6A: 83 C2 01             add edx, 1
0x0040CA6D: 3A CB                cmp cl, bl
0x0040CA6F: 74 CF                je 0x40ca40
0x0040CA71: 84 C9                test cl, cl
0x0040CA73: 74 51                je 0x40cac6
0x0040CA75: F7 C2 03 00 00 00    test edx, 3
0x0040CA7B: 75 EB                jne 0x40ca68
0x0040CA7D: 0B D8                or ebx, eax
0x0040CA7F: 57                   push edi
0x0040CA80: 8B C3                mov eax, ebx
0x0040CA82: C1 E3 10             shl ebx, 0x10
0x0040CA85: 56                   push esi
0x0040CA86: 0B D8                or ebx, eax
0x0040CA88: 8B 0A                mov ecx, dword ptr [edx]
0x0040CA8A: BF FF FE FE 7E       mov edi, 0x7efefeff
0x0040CA8F: 8B C1                mov eax, ecx
0x0040CA91: 8B F7                mov esi, edi
0x0040CA93: 33 CB                xor ecx, ebx
0x0040CA95: 03 F0                add esi, eax
0x0040CA97: 03 F9                add edi, ecx
0x0040CA99: 83 F1 FF             xor ecx, 0xffffffff
0x0040CA9C: 83 F0 FF             xor eax, 0xffffffff
0x0040CA9F: 33 CF                xor ecx, edi
0x0040CAA1: 33 C6                xor eax, esi
0x0040CAA3: 83 C2 04             add edx, 4
0x0040CAA6: 81 E1 00 01 01 81    and ecx, 0x81010100
0x0040CAAC: 75 1C                jne 0x40caca
0x0040CAAE: 25 00 01 01 81       and eax, 0x81010100
0x0040CAB3: 74 D3                je 0x40ca88
0x0040CAB5: 25 00 01 01 01       and eax, 0x1010100
0x0040CABA: 75 08                jne 0x40cac4
0x0040CABC: 81 E6 00 00 00 80    and esi, 0x80000000
0x0040CAC2: 75 C4                jne 0x40ca88
0x0040CAC4: 5E                   pop esi
0x0040CAC5: 5F                   pop edi
0x0040CAC6: 5B                   pop ebx
0x0040CAC7: 33 C0                xor eax, eax
0x0040CAC9: C3                   ret
0x0040CACA: 8B 42 FC             mov eax, dword ptr [edx - 4]
0x0040CACD: 3A C3                cmp al, bl
0x0040CACF: 74 36                je 0x40cb07
0x0040CAD1: 84 C0                test al, al
0x0040CAD3: 74 EF                je 0x40cac4
0x0040CAD5: 3A E3                cmp ah, bl
0x0040CAD7: 74 27                je 0x40cb00
0x0040CAD9: 84 E4                test ah, ah
0x0040CADB: 74 E7                je 0x40cac4
0x0040CADD: C1 E8 10             shr eax, 0x10
0x0040CAE0: 3A C3                cmp al, bl
0x0040CAE2: 74 15                je 0x40caf9
0x0040CAE4: 84 C0                test al, al
0x0040CAE6: 74 DC                je 0x40cac4
0x0040CAE8: 3A E3                cmp ah, bl
0x0040CAEA: 74 06                je 0x40caf2
0x0040CAEC: 84 E4                test ah, ah
0x0040CAEE: 74 D4                je 0x40cac4
0x0040CAF0: EB 96                jmp 0x40ca88
0x0040CAF2: 5E                   pop esi
0x0040CAF3: 5F                   pop edi
0x0040CAF4: 8D 42 FF             lea eax, [edx - 1]
0x0040CAF7: 5B                   pop ebx
0x0040CAF8: C3                   ret
0x0040CAF9: 8D 42 FE             lea eax, [edx - 2]
0x0040CAFC: 5E                   pop esi
0x0040CAFD: 5F                   pop edi
0x0040CAFE: 5B                   pop ebx
0x0040CAFF: C3                   ret
0x0040CB00: 8D 42 FD             lea eax, [edx - 3]
0x0040CB03: 5E                   pop esi
0x0040CB04: 5F                   pop edi
0x0040CB05: 5B                   pop ebx
0x0040CB06: C3                   ret
0x0040CB07: 8D 42 FC             lea eax, [edx - 4]
0x0040CB0A: 5E                   pop esi
0x0040CB0B: 5F                   pop edi
0x0040CB0C: 5B                   pop ebx
0x0040CB0D: C3                   ret
0x0040CB0E: CC                   int3
0x0040CB0F: CC                   int3
0x0040CB10: 55                   push ebp
0x0040CB11: 8B EC                mov ebp, esp
0x0040CB13: 57                   push edi
0x0040CB14: 56                   push esi
0x0040CB15: 8B 75 0C             mov esi, dword ptr [ebp + 0xc]
0x0040CB18: 8B 4D 10             mov ecx, dword ptr [ebp + 0x10]
0x0040CB1B: 8B 7D 08             mov edi, dword ptr [ebp + 8]
0x0040CB1E: 8B C1                mov eax, ecx
0x0040CB20: 8B D1                mov edx, ecx
0x0040CB22: 03 C6                add eax, esi
0x0040CB24: 3B FE                cmp edi, esi
0x0040CB26: 76 08                jbe 0x40cb30
0x0040CB28: 3B F8                cmp edi, eax
0x0040CB2A: 0F 82 A4 01 00 00    jb 0x40ccd4
0x0040CB30: 81 F9 00 01 00 00    cmp ecx, 0x100
0x0040CB36: 72 1F                jb 0x40cb57
0x0040CB38: 83 3D 44 03 DD 00 00 cmp dword ptr [0xdd0344], 0
0x0040CB3F: 74 16                je 0x40cb57
0x0040CB41: 57                   push edi
0x0040CB42: 56                   push esi
0x0040CB43: 83 E7 0F             and edi, 0xf
0x0040CB46: 83 E6 0F             and esi, 0xf
0x0040CB49: 3B FE                cmp edi, esi
0x0040CB4B: 5E                   pop esi
0x0040CB4C: 5F                   pop edi
0x0040CB4D: 75 08                jne 0x40cb57
0x0040CB4F: 5E                   pop esi
0x0040CB50: 5F                   pop edi
0x0040CB51: 5D                   pop ebp
0x0040CB52: E9 B4 53 00 00       jmp 0x411f0b
0x0040CB57: F7 C7 03 00 00 00    test edi, 3
0x0040CB5D: 75 15                jne 0x40cb74
0x0040CB5F: C1 E9 02             shr ecx, 2
0x0040CB62: 83 E2 03             and edx, 3
0x0040CB65: 83 F9 08             cmp ecx, 8
0x0040CB68: 72 2A                jb 0x40cb94
0x0040CB6A: F3 A5                rep movsd dword ptr es:[edi], dword ptr [esi]
0x0040CB6C: FF 24 95 84 CC 40 00 jmp dword ptr [edx*4 + 0x40cc84]
0x0040CB73: 90                   nop
0x0040CB74: 8B C7                mov eax, edi
0x0040CB76: BA 03 00 00 00       mov edx, 3
0x0040CB7B: 83 E9 04             sub ecx, 4
0x0040CB7E: 72 0C                jb 0x40cb8c
0x0040CB80: 83 E0 03             and eax, 3
0x0040CB83: 03 C8                add ecx, eax
0x0040CB85: FF 24 85 98 CB 40 00 jmp dword ptr [eax*4 + 0x40cb98]
0x0040CB8C: FF 24 8D 94 CC 40 00 jmp dword ptr [ecx*4 + 0x40cc94]
0x0040CB93: 90                   nop
0x0040CB94: FF 24 8D 18 CC 40 00 jmp dword ptr [ecx*4 + 0x40cc18]
0x0040CB9B: 90                   nop
0x0040CB9C: A8 CB                test al, 0xcb
0x0040CB9E: 40                   inc eax
0x0040CB9F: 00 D4                add ah, dl
0x0040CBA1: CB                   retf
0x0040CBA2: 40                   inc eax
0x0040CBA3: 00 F8                add al, bh
0x0040CBA5: CB                   retf
0x0040CBA6: 40                   inc eax
0x0040CBA7: 00 23                add byte ptr [ebx], ah
0x0040CBA9: D1 8A 06 88 07 8A    ror dword ptr [edx - 0x75f877fa], 1
0x0040CBAF: 46                   inc esi
0x0040CBB0: 01 88 47 01 8A 46    add dword ptr [eax + 0x468a0147], ecx
0x0040CBB6: 02 C1                add al, cl
0x0040CBB8: E9 02 88 47 02       jmp 0x28853bf
0x0040CBBD: 83 C6 03             add esi, 3
0x0040CBC0: 83 C7 03             add edi, 3
0x0040CBC3: 83 F9 08             cmp ecx, 8
0x0040CBC6: 72 CC                jb 0x40cb94
0x0040CBC8: F3 A5                rep movsd dword ptr es:[edi], dword ptr [esi]
0x0040CBCA: FF 24 95 84 CC 40 00 jmp dword ptr [edx*4 + 0x40cc84]
0x0040CBD1: 8D 49 00             lea ecx, [ecx]
0x0040CBD4: 23 D1                and edx, ecx
0x0040CBD6: 8A 06                mov al, byte ptr [esi]
0x0040CBD8: 88 07                mov byte ptr [edi], al
0x0040CBDA: 8A 46 01             mov al, byte ptr [esi + 1]
0x0040CBDD: C1 E9 02             shr ecx, 2
0x0040CBE0: 88 47 01             mov byte ptr [edi + 1], al
0x0040CBE3: 83 C6 02             add esi, 2
0x0040CBE6: 83 C7 02             add edi, 2
0x0040CBE9: 83 F9 08             cmp ecx, 8
0x0040CBEC: 72 A6                jb 0x40cb94
0x0040CBEE: F3 A5                rep movsd dword ptr es:[edi], dword ptr [esi]
0x0040CBF0: FF 24 95 84 CC 40 00 jmp dword ptr [edx*4 + 0x40cc84]
0x0040CBF7: 90                   nop
0x0040CBF8: 23 D1                and edx, ecx
0x0040CBFA: 8A 06                mov al, byte ptr [esi]
0x0040CBFC: 88 07                mov byte ptr [edi], al
0x0040CBFE: 83 C6 01             add esi, 1
0x0040CC01: C1 E9 02             shr ecx, 2
0x0040CC04: 83 C7 01             add edi, 1
0x0040CC07: 83 F9 08             cmp ecx, 8
0x0040CC0A: 72 88                jb 0x40cb94
0x0040CC0C: F3 A5                rep movsd dword ptr es:[edi], dword ptr [esi]
0x0040CC0E: FF 24 95 84 CC 40 00 jmp dword ptr [edx*4 + 0x40cc84]
0x0040CC15: 8D 49 00             lea ecx, [ecx]
0x0040CC18: 7B CC                jnp 0x40cbe6
0x0040CC1A: 40                   inc eax
0x0040CC1B: 00 68 CC             add byte ptr [eax - 0x34], ch
0x0040CC1E: 40                   inc eax
0x0040CC1F: 00 60 CC             add byte ptr [eax - 0x34], ah
0x0040CC22: 40                   inc eax
0x0040CC23: 00 58 CC             add byte ptr [eax - 0x34], bl
0x0040CC26: 40                   inc eax
0x0040CC27: 00 50 CC             add byte ptr [eax - 0x34], dl
0x0040CC2A: 40                   inc eax
0x0040CC2B: 00 48 CC             add byte ptr [eax - 0x34], cl
0x0040CC2E: 40                   inc eax
0x0040CC2F: 00 40 CC             add byte ptr [eax - 0x34], al
0x0040CC32: 40                   inc eax
0x0040CC33: 00 38                add byte ptr [eax], bh
0x0040CC35: CC                   int3
0x0040CC36: 40                   inc eax
0x0040CC37: 00 8B 44 8E E4 89    add byte ptr [ebx - 0x761b71bc], cl
0x0040CC3D: 44                   inc esp
